(lp0
VThe Netherlands
p1
aVUK
p2
aVSwitzerland
p3
aVSwitzerland
p4
aVChina
p5
aVGermany
p6
aVAustralia
p7
aVAustralia
p8
aVAustralia
p9
aVAustralia
p10
aVAustralia
p11
aVAustralia
p12
aVCanada
p13
aVUSA
p14
aVFrance
p15
aVUSA
p16
aVIndia
p17
aVFrance
p18
aVUSA
p19
aVUSA
p20
aVDenmark
p21
aVDenmark
p22
aVDenmark
p23
aVCzech Republic
p24
aVCzech Republic
p25
aVUSA
p26
aVCanada
p27
aVUSA
p28
aVUSA
p29
aVUSA
p30
aVUSA
p31
aVGermany
p32
aVUSA
p33
aVGermany
p34
aVAustralia
p35
aVJapan
p36
aVJapan
p37
aVJapan
p38
aVNorway
p39
aVNorway
p40
aVUK
p41
aVAustralia
p42
aVFrance
p43
aVUK
p44
aVGermany
p45
aVUSA
p46
aVUSA
p47
aVUSA
p48
aVGermany
p49
aVUSA
p50
aVCanada
p51
aVGermany
p52
aVThe Netherlands
p53
aVGermany
p54
aVGermany
p55
aVCanada
p56
aVAustralia
p57
aVUSA
p58
aVUSA
p59
aVUSA
p60
aVUSA
p61
aVUSA
p62
aVFrance
p63
aVUSA
p64
aVUSA
p65
aVUSA
p66
aVUK
p67
aVUK
p68
aVEgypt
p69
aVUK
p70
aVUK
p71
aVUK
p72
aVUSA
p73
aVUSA
p74
aVUK
p75
aVUSA
p76
aVUSA
p77
aVChina
p78
aVUSA
p79
aVCanada
p80
aVUSA
p81
aVChina
p82
aVUSA
p83
aVItaly
p84
aVNorway
p85
aVUSA
p86
aVMexico
p87
aVUSA
p88
aVUSA
p89
aVUSA
p90
aVUSA
p91
aVCanada
p92
aVUSA
p93
aVUSA
p94
aVUSA
p95
aVUSA
p96
aVUSA
p97
aVArgentina
p98
aVArgentina
p99
aVCanada
p100
aVSaudi Arabia
p101
aVRepublic of Korea
p102
aVRepublic of Korea
p103
aVUSA
p104
aVSaudi Arabia
p105
aVUSA
p106
aVItaly
p107
aVItaly
p108
aVItaly
p109
aVUSA
p110
aVUSA
p111
aVAustralia
p112
aVUSA
p113
aVChina
p114
aVUSA
p115
aVChina
p116
aVCanada
p117
aVCanada
p118
aVCanada
p119
aVIran
p120
aVChina
p121
aVChina
p122
aVUK
p123
aVGermany
p124
aVGermany
p125
aVNorway
p126
aVNorway
p127
aVGermany
p128
aVRussia
p129
aVUSA
p130
aVRussia
p131
aVGermany
p132
aVSaudi Arabia
p133
aVUSA
p134
aVUSA
p135
aVUSA
p136
aVSaudi Arabia
p137
aVCzech Republic
p138
aVCzech Republic
p139
aVNorway
p140
aVFrance
p141
aVCzech Republic
p142
aVAustralia
p143
aVAustralia
p144
aVAustralia
p145
aVAustralia
p146
aVAustralia
p147
aVSaudi Arabia
p148
aVNorway
p149
aVUSA
p150
aVUSA
p151
aVUSA
p152
a.