(lp0
Vissue
p1
aVgeophysics
p2
aVeffect
p3
aVnoise
p4
aVblending
p5
aVdeblending
p6
aVuse
p7
aVseismic
p8
aVsensor
p9
aVseismic
p10
aVsource
p11
aVapplication
p12
aVcsamt
p13
aVmethod
p14
aVgroundwater
p15
aVexploration
p16
aVmetropolitan
p17
aVenvironment
p18
aVnonlinear
p19
aVdiffusion
p20
aVbased
p21
aVinterpretation
p22
aVinduced
p23
aVmicroseismicity
p24
aVbarnett
p25
aVshale
p26
aVhydraulic
p27
aVfracturing
p28
aVcase
p29
aVstudy
p30
aVconstraining
p31
aVdepth
p32
aVbasement
p33
aVmineral
p34
aVexploration
p35
aVusing
p36
aVmicrotremor
p37
aVdemonstration
p38
aVstudy
p39
aVremote
p40
aVinland
p41
aVaustralia
p42
aVmultifrequency
p43
aVwaveform
p44
aVsonic
p45
aVlogging
p46
aVscreened
p47
aVinterval
p48
aVlarge
p49
aVdiameter
p50
aVproduction
p51
aVthermoelectric
p52
aVself
p53
aVpotential
p54
aVresistivity
p55
aVdata
p56
aVlocalize
p57
aVburning
p58
aVunderground
p59
aVcoal
p60
aVfires
p61
aVintegrated
p62
aVgeophysical
p63
aVinvestigation
p64
aVst
p65
aVjames
p66
aVfault
p67
aVcomplex
p68
aVcase
p69
aVstudy
p70
aVchallenges
p71
aVgeophysical
p72
aVmapping
p73
aVglaciotectonic
p74
aVstructures
p75
aVuse
p76
aVgravimetry
p77
aVdetailed
p78
aVgeophysical
p79
aVprospection
p80
aVpotential
p81
aVgeothermal
p82
aVenergy
p83
aVexploitation
p84
aVsites
p85
aVcase
p86
aVstudies
p87
aVczech
p88
aVrepublic
p89
aVintegrated
p90
aVgeophysical
p91
aVimaging
p92
aVconcealed
p93
aVmineral
p94
aVdeposit
p95
aVcase
p96
aVstudy
p97
aVworld
p98
aVclass
p99
aVpebble
p100
aVporphyry
p101
aVdeposit
p102
aVsouthwestern
p103
aValaska
p104
aVtransient
p105
aVflow
p106
aVsyringe
p107
aVair
p108
aVpermeameter
p109
aVrelationship
p110
aVinduced
p111
aVpolarization
p112
aVsurface
p113
aVconductivity
p114
aVimplications
p115
aVpetrophysical
p116
aVinterpretation
p117
aVelectrical
p118
aVmeasurements
p119
aVmodeling
p120
aVpressure
p121
aVsensitivity
p122
aVuncemented
p123
aVsediments
p124
aVusing
p125
aVmodified
p126
aVgrain
p127
aVcontact
p128
aVtheory
p129
aVincorporating
p130
aVgrain
p131
aVrelaxation
p132
aVporosity
p133
aVeffects
p134
aVquantifying
p135
aVuncertainties
p136
aVattenuation
p137
aVestimation
p138
aVmethane
p139
aVhydrate
p140
aVbearing
p141
aVzones
p142
aVusing
p143
aVsonic
p144
aVwaveform
p145
aVlogs
p146
aVphysical
p147
aVbasis
p148
aVcole
p149
aVcole
p150
aVdescription
p151
aVelectrical
p152
aVconductivity
p153
aVmineralized
p154
aVporous
p155
aVmedia
p156
aVlaboratory
p157
aVmeasurements
p158
aVlow
p159
aVhigh
p160
aVfrequency
p161
aVelastic
p162
aVmoduli
p163
aVfontainebleau
p164
aVsandstone
p165
aVmechanical
p166
aVproperties
p167
aVshale
p168
aVgas
p169
aVreservoir
p170
aVrocks
p171
aV1
p172
aVstatic
p173
aVdynamic
p174
aVelastic
p175
aVproperties
p176
aVanisotropy
p177
aVmechanical
p178
aVproperties
p179
aVshale
p180
aVgas
p181
aVreservoir
p182
aVrocks
p183
aV2
p184
aVductile
p185
aVcreep
p186
aVbrittle
p187
aVstrength
p188
aVrelation
p189
aVelastic
p190
aVmodulus
p191
aVusing
p192
aVspatial
p193
aVderivatives
p194
aVelectromagnetic
p195
aVdata
p196
aVmap
p197
aVlateral
p198
aVconductance
p199
aVvariations
p200
aVsheet
p201
aVmodels
p202
aVapplications
p203
aVtailings
p204
aVponds
p205
aVrobust
p206
aVprocessing
p207
aVnoisy
p208
aVland
p209
aVbased
p210
aVcontrolled
p211
aVsource
p212
aVelectromagnetic
p213
aVdata
p214
aVdetection
p215
aVperfect
p216
aVconductor
p217
aVairborne
p218
aVelectromagnetic
p219
aVgemini
p220
aVfield
p221
aVtest
p222
aVsensitivity
p223
aVspectral
p224
aVinduced
p225
aVpolarization
p226
aVmethod
p227
aVmicrobial
p228
aVenhanced
p229
aVoil
p230
aVrecovery
p231
aVprocesses
p232
aVself
p233
aVpotential
p234
aVsignals
p235
aVgenerated
p236
aVcorrosion
p237
aVburied
p238
aVmetallic
p239
aVobjects
p240
aVapplication
p241
aVcontaminant
p242
aVplumes
p243
aVmoho
p244
aVdepth
p245
aVsediment
p246
aVthickness
p247
aVestimation
p248
aVbeneath
p249
aVred
p250
aVsea
p251
aVderived
p252
aVsatellite
p253
aVterrestrial
p254
aVgravity
p255
aVdata
p256
aVeffects
p257
aVmagnetite
p258
aVhigh
p259
aVfrequency
p260
aVground
p261
aVpenetrating
p262
aVradar
p263
aVcombination
p264
aVhorizontal
p265
aVgradient
p266
aVratio
p267
aVeuler
p268
aVmethods
p269
aVinterpretation
p270
aVpotential
p271
aVfield
p272
aVdata
p273
aVefficient
p274
aV3d
p275
aVinversion
p276
aVmagnetic
p277
aVdata
p278
aVoctree
p279
aVmesh
p280
aVdiscretization
p281
aVspace
p282
aVfilling
p283
aVcurves
p284
aVwavelets
p285
aVimproved
p286
aVstable
p287
aVdownward
p288
aVcontinuation
p289
aVpotential
p290
aVfield
p291
aVdata
p292
aVtruncated
p293
aVtaylor
p294
aVseries
p295
aViterative
p296
aVdownward
p297
aVcontinuation
p298
aVmethod
p299
aVseismic
p300
aVpassive
p301
aVimaging
p302
aVstep
p303
aVspac
p304
aVremi
p305
aVlocating
p306
aVmicroseismic
p307
aVsources
p308
aVusing
p309
aVmigration
p310
aVbased
p311
aVdeconvolution
p312
aVbiot
p313
aVconstitutive
p314
aVrelation
p315
aVporosity
p316
aVperturbation
p317
aVequation
p318
aVimplications
p319
aVpore
p320
aVmicrogeometry
p321
aVheterogeneity
p322
aVmovement
p323
aVchemical
p324
aVreactivity
p325
aVco2
p326
aVcarbonates
p327
aVembedded
p328
aVbound
p329
aVmethod
p330
aVestimating
p331
aVchange
p332
aVbulk
p333
aVmodulus
p334
aVfluid
p335
aVsolid
p336
aVsubstitution
p337
aVsurface
p338
aVconsistent
p339
aVmatching
p340
aVfilters
p341
aVtime
p342
aVlapse
p343
aVseismic
p344
aVprocessing
p345
aVwavelet
p346
aVspectral
p347
aVprobe
p348
aVseismic
p349
aVstructure
p350
aVinterpretation
p351
aVfracture
p352
aVcharacterization
p353
aVworkflow
p354
aVcase
p355
aVstudies
p356
aVvirtual
p357
aVreal
p358
aVsource
p359
aVsource
p360
aVsignature
p361
aVestimation
p362
aVusing
p363
aVseismic
p364
aVinterferometry
p365
aVsinkhole
p366
aVdetection
p367
aVusing
p368
aV2d
p369
aVseismic
p370
aVwaveform
p371
aVtomography
p372
aVhigh
p373
aVresolution
p374
aVprestack
p375
aVseismic
p376
aVinversion
p377
aVusing
p378
aVhybrid
p379
aVfista
p380
aVsquares
p381
aVstrategy
p382
aVmultisource
p383
aVwaveform
p384
aVinversion
p385
aVmarine
p386
aVstreamer
p387
aVdata
p388
aVusing
p389
aVnormalized
p390
aVwavefield
p391
aVtemporal
p392
aVwindowing
p393
aVinverse
p394
aVtransform
p395
aVwavefield
p396
aVlaplace
p397
aVfourier
p398
aVdomain
p399
aViterative
p400
aVsolution
p401
aV3d
p402
aVacoustic
p403
aVwave
p404
aVequation
p405
aVperfectly
p406
aVmatched
p407
aVlayer
p408
aVboundary
p409
aVcondition
p410
aVmultigrid
p411
aVpreconditioner
p412
aVprestack
p413
aVwavefield
p414
aVapproximations
p415
aVsensitivity
p416
aVcompaction
p417
aVinduced
p418
aVmulticomponent
p419
aVseismic
p420
aVtime
p421
aVshifts
p422
aVvariations
p423
aVreservoir
p424
aVproperties
p425
aVhigh
p426
aVresolution
p427
aVcoherency
p428
aVfunctionals
p429
aVvelocity
p430
aVanalysis
p431
aVapplication
p432
aVsubbasalt
p433
aVseismic
p434
aVexploration
p435
aVillumination
p436
aVcompensation
p437
aVimage
p438
aVdomain
p439
aVwavefield
p440
aVtomography
p441
aVomnidirectional
p442
aVplane
p443
aVwave
p444
aVdestruction
p445
aVdimensional
p446
aVirregular
p447
aVseismic
p448
aVdata
p449
aVreconstruction
p450
aVlow
p451
aVrank
p452
aVmatrix
p453
aVcompletion
p454
aVimproved
p455
aVwavefield
p456
aVreconstruction
p457
aVrandomized
p458
aVsampling
p459
aVweighted
p460
aVnorm
p461
aVminimization
p462
aVseismic
p463
aVdata
p464
aVanalysis
p465
aVadaptive
p466
aVsparse
p467
aVtime
p468
aVfrequency
p469
aVdecomposition
p470
aVlossless
p471
aVcompression
p472
aVmethod
p473
aVacoustic
p474
aVwaveform
p475
aVdata
p476
aVbased
p477
aVwavelet
p478
aVtransform
p479
aVbit
p480
aVrecombination
p481
aVmark
p482
aVcoding
p483
aVwiener
p484
aVestimation
p485
aVgreen
p486
aVfunction
p487
aVseismic
p488
aVanisotropy
p489
aVoil
p490
aVgas
p491
aVexploration
p492
aVdevelopment
p493
aVintroduction
p494
aVlow
p495
aVfrequency
p496
aVlayer
p497
aVinduced
p498
aVanisotropy
p499
aVdiffraction
p500
aVtraveltime
p501
aVapproximation
p502
aVgeneral
p503
aVanisotropic
p504
aVmedia
p505
aVseismic
p506
aVvelocity
p507
aVchanges
p508
aVcaused
p509
aVoverburden
p510
aVstress
p511
aVtrue
p512
aVamplitude
p513
aVkirchhoff
p514
aVdepth
p515
aVmigration
p516
aVanisotropic
p517
aVmedia
p518
aVtraveltime
p519
aVbased
p520
aVapproach
p521
aVacoustic
p522
aVanisotropic
p523
aVwavefields
p524
aVperturbation
p525
aVtheory
p526
aVmultiparameter
p527
aVtti
p528
aVtomography
p529
aVp
p530
aVwave
p531
aVreflection
p532
aVvsp
p533
aVdata
p534
aVpoint
p535
aVparaxial
p536
aVtraveltime
p537
aVformula
p538
aVinhomogeneous
p539
aVisotropic
p540
aVanisotropic
p541
aVmedia
p542
aVtests
p543
aVaccuracy
p544
aVmoveout
p545
aVapproximations
p546
aVp
p547
aVsv
p548
aVwaves
p549
aVvti
p550
aVmedia
p551
aVreliability
p552
aVslowness
p553
aVslowness
p554
aVpolarization
p555
aVmethods
p556
aVanisotropy
p557
aVestimation
p558
aVvti
p559
aVmedia
p560
aV3c
p561
aVwalkaway
p562
aVvsp
p563
aVdata
p564
aVdiffraction
p565
aVtraveltime
p566
aVapproximation
p567
aVti
p568
aVmedia
p569
aVinhomogeneous
p570
aVbackground
p571
aVwaveform
p572
aVinversion
p573
aVmulticomponent
p574
aVdata
p575
aVhorizontally
p576
aVlayered
p577
aVvti
p578
aVmedia
p579
aVjoint
p580
aVmigration
p581
aVvelocity
p582
aVanalysis
p583
aVpp
p584
aVps
p585
aVwaves
p586
aVvti
p587
aVmedia
p588
a.