(lp0
Vissue
p1
aVgeophysics
p2
aVcable
p3
aVarrangement
p4
aVreduce
p5
aVelectromagnetic
p6
aVcoupling
p7
aVeffects
p8
aVspectral
p9
aVinduced
p10
aVpolarization
p11
aVstudies
p12
aVultrasonic
p13
aVleaky
p14
aVflexural
p15
aVwaves
p16
aVmultilayered
p17
aVmedia
p18
aVcement
p19
aVbond
p20
aVdetection
p21
aVcased
p22
aVwellbores
p23
aVcombination
p24
aVseismic
p25
aVreflection
p26
aVconstrained
p27
aVresistivity
p28
aVinversion
p29
aVapplication
p30
aV4d
p31
aVimaging
p32
aVco2
p33
aVstorage
p34
aVsite
p35
aVketzin
p36
aVgermany
p37
aVtime
p38
aVlapse
p39
aVwalkaway
p40
aVvertical
p41
aVseismic
p42
aVprofile
p43
aVmonitoring
p44
aVco2
p45
aVinjection
p46
aVsacroc
p47
aVenhanced
p48
aVoil
p49
aVrecovery
p50
aVfield
p51
aVcase
p52
aVstudy
p53
aVdimensional
p54
aVdistribution
p55
aVigneous
p56
aVrocks
p57
aVnear
p58
aVpebble
p59
aVporphyry
p60
aVcu
p61
aVau
p62
aVmo
p63
aVdeposit
p64
aVsouthwestern
p65
aValaska
p66
aVconstraints
p67
aVregional
p68
aVscale
p69
aVaeromagnetic
p70
aVdata
p71
aVtime
p72
aVlapse
p73
aVseismic
p74
aVmodeling
p75
aVco2
p76
aVsequestration
p77
aVdickman
p78
aVoilfield
p79
aVkansas
p80
aVhigh
p81
aVresolution
p82
aV3d
p83
aVreflection
p84
aVseismic
p85
aVinvestigation
p86
aVquick
p87
aVclay
p88
aVlandslide
p89
aVscar
p90
aVsouthwest
p91
aVsweden
p92
aVcoal
p93
aVseismic
p94
aVsurveying
p95
aVnear
p96
aVsurface
p97
aVbasalts
p98
aVexperience
p99
aVcentral
p100
aVqueensland
p101
aVaustralia
p102
aVazimuthally
p103
aVdependent
p104
aVanisotropic
p105
aVvelocity
p106
aVmodel
p107
aVupdate
p108
aVmicroresistivity
p109
aVborehole
p110
aVimage
p111
aVinpainting
p112
aVpyrolysis
p113
aVinduced
p114
aVp
p115
aVwave
p116
aVvelocity
p117
aVanisotropy
p118
aVorganic
p119
aVrich
p120
aVshales
p121
aVtheory
p122
aVcbm
p123
aVavo
p124
aVcharacteristics
p125
aVanomaly
p126
aVpower
p127
aVspectral
p128
aVdensity
p129
aVheterogeneous
p130
aVfracture
p131
aVcompliance
p132
aVscattered
p133
aVelastic
p134
aVwavefields
p135
aVsimulated
p136
aVelectrical
p137
aVconductivity
p138
aVresponse
p139
aVclogging
p140
aVmechanisms
p141
aVmanaged
p142
aVaquifer
p143
aVrecharge
p144
aVquantitative
p145
aVanalysis
p146
aVneutron
p147
aVcapture
p148
aVgamma
p149
aVray
p150
aVenergy
p151
aVspectra
p152
aVusing
p153
aVdirect
p154
aVdemodulation
p155
aVfrequency
p156
aVdomain
p157
aVsimulation
p158
aVlogging
p159
aVdrilling
p160
aVborehole
p161
aVsonic
p162
aVwaveforms
p163
aVrock
p164
aVphysics
p165
aVmodeling
p166
aVguided
p167
aVdepositional
p168
aVburial
p169
aVhistory
p170
aVlow
p171
aVintermediate
p172
aVporosity
p173
aVsandstones
p174
aVprobabilistic
p175
aVapproach
p176
aVrock
p177
aVphysics
p178
aVmodeling
p179
aVanomalous
p180
aVphases
p181
aVte
p182
aVmode
p183
aVmagnetotellurics
p184
aVestimation
p185
aVseafloor
p186
aVelectromagnetic
p187
aVreceiver
p188
aVorientation
p189
aVmagnetotelluric
p190
aVtransverse
p191
aVelectric
p192
aVmode
p193
aVnatural
p194
aVfilter
p195
aVstatic
p196
aVeffects
p197
aVapplication
p198
aVcoprod2
p199
aVcoprod2s2
p200
aVdata
p201
aVsets
p202
aV3d
p203
aVinversion
p204
aVresolution
p205
aVanalysis
p206
aVland
p207
aVbased
p208
aVcsem
p209
aVdata
p210
aVketzin
p211
aVco2
p212
aVstorage
p213
aVformation
p214
aVadvancement
p215
aVvalidation
p216
aVsurface
p217
aVnuclear
p218
aVmagnetic
p219
aVresonance
p220
aVspin
p221
aVecho
p222
aVmeasurements
p223
aVt2
p224
aVmapping
p225
aVcrustal
p226
aVthickness
p227
aVusing
p228
aVmarine
p229
aVgravity
p230
aVdata
p231
aVmethods
p232
aVuncertainties
p233
aVinversion
p234
aVmagnetic
p235
aVanomaly
p236
aVrugged
p237
aVobservation
p238
aVsurface
p239
aVpresence
p240
aVstrong
p241
aVremanent
p242
aVmagnetization
p243
aVmethod
p244
aVdetermine
p245
aVoptimal
p246
aVgrid
p247
aVparameters
p248
aVbased
p249
aVcharacteristic
p250
aVanalysis
p251
aVdiscrete
p252
aVdata
p253
aVdistribution
p254
aVwaveform
p255
aVbased
p256
aVmicroseismic
p257
aVsource
p258
aVmechanism
p259
aVstudies
p260
aVbarnett
p261
aVshale
p262
aVlinking
p263
aVmicroseismicity
p264
aVreservoir
p265
aVgeomechanics
p266
aVnumerical
p267
aVmodeling
p268
aVlaboratory
p269
aVmeasurements
p270
aVseismic
p271
aVattenuation
p272
aVpartially
p273
aVsaturated
p274
aVrock
p275
aValternative
p276
aVmethod
p277
aVmodeling
p278
aVclose
p279
aVrange
p280
aVinteractions
p281
aVair
p282
aVguns
p283
aV2d
p284
aVfrequency
p285
aVdomain
p286
aVelastic
p287
aVwaveform
p288
aVinversion
p289
aVusing
p290
aVtime
p291
aVdomain
p292
aVmodeling
p293
aVmultistep
p294
aVlength
p295
aVgradient
p296
aVapproach
p297
aVtomography
p298
aVwaveform
p299
aVinversion
p300
aVsingle
p301
aVobjective
p302
aVfunction
p303
aVelastic
p304
aVwaveform
p305
aVinversion
p306
aVapplication
p307
aVusing
p308
aVmulticomponent
p309
aVmeasurements
p310
aVseismic
p311
aVdata
p312
aVcollection
p313
aVvelocity
p314
aVestimation
p315
aVregistration
p316
aVguided
p317
aVsquares
p318
aVinversion
p319
aVdiffraction
p320
aVimaging
p321
aVusing
p322
aVshot
p323
aVopening
p324
aVangle
p325
aVgathers
p326
aVprestack
p327
aVtime
p328
aVmigration
p329
aVapproach
p330
aVlinearized
p331
aVwave
p332
aVequation
p333
aVmigration
p334
aVvelocity
p335
aVanalysis
p336
aVimage
p337
aVwarping
p338
aVclosing
p339
aVperformance
p340
aVgap
p341
aViterative
p342
aVfrequency
p343
aVdomain
p344
aVsolver
p345
aVexplicit
p346
aVtime
p347
aVdomain
p348
aVscheme
p349
aV3d
p350
aVmigration
p351
aVparallel
p352
aVarchitectures
p353
aVseismic
p354
aVreflector
p355
aVimaging
p356
aVusing
p357
aVinternal
p358
aVmultiples
p359
aVmarchenko
p360
aVtype
p361
aVequations
p362
aVdispersion
p363
aVanalysis
p364
aVaverage
p365
aVderivative
p366
aVoptimal
p367
aVscheme
p368
aVlaplace
p369
aVdomain
p370
aVscalar
p371
aVwave
p372
aVequation
p373
aVshear
p374
aVwave
p375
aVradiation
p376
aVreception
p377
aVreciprocity
p378
aVborehole
p379
aVdipole
p380
aVsource
p381
aVapplication
p382
aVmodeling
p383
aVshear
p384
aVwave
p385
aVreflection
p386
aVsurvey
p387
aVoptimized
p388
aVexpansion
p389
aVbased
p390
aVlow
p391
aVrank
p392
aVmethod
p393
aVwavefield
p394
aVextrapolation
p395
aVmultiscale
p396
aVmodeling
p397
aVacoustic
p398
aVwave
p399
aVpropagation
p400
aV2d
p401
aVmedia
p402
aVnumerical
p403
aVmodeling
p404
aV3d
p405
aVzero
p406
aVoffset
p407
aVlaboratory
p408
aVdata
p409
aVdiscretized
p410
aVkirchhoff
p411
aVintegral
p412
aVmethod
p413
aVcomparative
p414
aVstudy
p415
aVfinite
p416
aVelement
p417
aVspectral
p418
aVelement
p419
aVmethods
p420
aVseismic
p421
aVwavefield
p422
aVmodeling
p423
aVhigh
p424
aVorder
p425
aVsparse
p426
aVradon
p427
aVtransform
p428
aVavo
p429
aVpreserving
p430
aVdata
p431
aVreconstruction
p432
aVautomatic
p433
aVsource
p434
aVlocalization
p435
aVdiffracted
p436
aVseismic
p437
aVnoise
p438
aVshallow
p439
aVwater
p440
aVblind
p441
aVdeconvolution
p442
aVmultichannel
p443
aVrecordings
p444
aVlinearized
p445
aVinversion
p446
aVspectral
p447
aVdomain
p448
a.