(lp0
VThe Netherlands
p1
aVCanada
p2
aVGreece
p3
aVCanada
p4
aVAustralia
p5
aVCanada
p6
aVChina
p7
aVUSA
p8
aVChina
p9
aVTurkey
p10
aVTurkey
p11
aVTurkey
p12
aVItaly
p13
aVGreece
p14
aVGreece
p15
aVGermany
p16
aVFrance
p17
aVUSA
p18
aVUSA
p19
aVUSA
p20
aVSaudi Arabia
p21
aVFrance
p22
aVSaudi Arabia
p23
aVIndia
p24
aVArgentina
p25
aVGermany
p26
aVThe Netherlands
p27
aVThe Netherlands
p28
aVThe Netherlands
p29
aVFrance
p30
aVFrance
p31
aVFrance
p32
aVDenmark
p33
aVItaly
p34
aVDenmark
p35
aVDenmark
p36
aVDenmark
p37
aVGermany
p38
aVGermany
p39
aVGermany
p40
aVGermany
p41
aVJapan
p42
aVJapan
p43
aVNorway
p44
aVNorway
p45
aVJapan
p46
aVUSA
p47
aVIstanbul
p48
aVUSA
p49
aVUSA
p50
aVNorway
p51
aVNorway
p52
aVNorway
p53
aVBelgium
p54
aVArgentina
p55
aVBrazil
p56
aVBrazil
p57
aVUSA
p58
aVUSA
p59
aVUSA
p60
aVUSA
p61
aVSwitzerland
p62
aVGermany
p63
aVSwitzerland
p64
aVUSA
p65
aVUSA
p66
aVUSA
p67
aVU. K.
p68
aVU. K
p69
aVU. K
p70
aVFrance
p71
aVNorway
p72
aVNorway
p73
aVNorway
p74
aVNorway
p75
aVSwitzerland
p76
aVSwitzerland.
p77
aVSwitzerland
p78
aVChina
p79
aVGermany
p80
aVNorway
p81
aVNorway
p82
aVUSA
p83
aVUSA
p84
aVUSA
p85
aVSaudi Arabia
p86
aVNorway
p87
aVNorway
p88
aVUSA
p89
aVJapan
p90
aVUSA
p91
aVSaudi Arabia
p92
aVSaudi Arabia
p93
aVCanada
p94
aVUSA
p95
aVUSA
p96
aVUSA
p97
aVUSA
p98
aVUSA
p99
aVUSA
p100
aVUSA
p101
aVUSA
p102
aVUSA
p103
aVFrance
p104
aVHungary
p105
aVHungary
p106
aVHungary
p107
aVHungary
p108
aVUSA
p109
aVItaly
p110
aVUSA
p111
aVUSA
p112
aVUSA
p113
aVUSA
p114
aVUSA.
p115
aVUSA.
p116
aVUSA.
p117
aVThe Netherlands
p118
aVUSA
p119
aVUSA
p120
aVUSA
p121
aVUSA
p122
aVAustralia
p123
aVAustralia
p124
aVUSA
p125
aVBrazil
p126
aVAustralia
p127
aVAustralia
p128
aVAustralia
p129
aVAustralia
p130
aVAustralia
p131
aVUSA
p132
aVUSA
p133
aVUSA
p134
aVMalaysia
p135
aVUSA
p136
aVU. K
p137
aVCanada
p138
a.