(lp0
Vissue
p1
aVgeophysics
p2
aVdeblending
p3
aVdirect
p4
aVinversion
p5
aVfast
p6
aVrandomized
p7
aVwaveform
p8
aVinversion
p9
aVcompressive
p10
aVsensing
p11
aVmarine
p12
aVresistivity
p13
aVtomography
p14
aVcoastal
p15
aVengineering
p16
aVapplications
p17
aVgreece
p18
aVseismic
p19
aVvelocity
p20
aVattenuation
p21
aVstructures
p22
aVqueen
p23
aVcharlotte
p24
aVbasin
p25
aVwaveform
p26
aVtomography
p27
aVseismic
p28
aVreflection
p29
aVdata
p30
aVidentification
p31
aVgas
p32
aVhydrate
p33
aVdissociation
p34
aVwireline
p35
aVlog
p36
aVdata
p37
aVshenhu
p38
aVarea
p39
aVsouth
p40
aVchina
p41
aVsea
p42
aVexploration
p43
aVcave
p44
aVmagnetic
p45
aVelectrical
p46
aVresistivity
p47
aVsurveys
p48
aVayvac
p49
aVk
p50
aVsinkhole
p51
aVexample
p52
aVbozda
p53
aVzmir
p54
aVwestern
p55
aVturkey
p56
aVexploring
p57
aVmodel
p58
aVspace
p59
aVranking
p60
aVbest
p61
aVclass
p62
aVmodels
p63
aVsurface
p64
aVwave
p65
aVdispersion
p66
aVinversion
p67
aVapplication
p68
aVeuropean
p69
aVstrong
p70
aVmotion
p71
aVsites
p72
aVetudes
p73
aVcomputational
p74
aVrock
p75
aVphysics
p76
aValterations
p77
aVbenchmarking
p78
aVcrosswell
p79
aVelectromagnetic
p80
aVresponse
p81
aVfractured
p82
aVmedium
p83
aVmeasurement
p84
aVthermal
p85
aVproperties
p86
aVselect
p87
aVintact
p88
aVweathered
p89
aVgranulites
p90
aVrelationship
p91
aVrock
p92
aVproperties
p93
aVreflection
p94
aVcharacteristics
p95
aVlinear
p96
aVcarbon
p97
aVdioxide
p98
aVtransition
p99
aVlayers
p100
aVmapping
p101
aVseafloor
p102
aVmineral
p103
aVdeposits
p104
aVcentral
p105
aVloop
p106
aVtransient
p107
aVelectromagnetics
p108
aVnew
p109
aVempirical
p110
aVcomplex
p111
aVelectrical
p112
aVresistivity
p113
aVmodel
p114
aVrapid
p115
aV1d
p116
aV3d
p117
aVinversion
p118
aVshallow
p119
aVresistivity
p120
aVmultipole
p121
aVdata
p122
aVexamples
p123
aVarchaeological
p124
aVprospection
p125
aVnoise
p126
aVreduction
p127
aVtem
p128
aVpresenting
p129
aVbandwidth
p130
aVsensitivity
p131
aVoptimized
p132
aVparallel
p133
aVrecording
p134
aVsetup
p135
aVmethods
p136
aVadaptive
p137
aVsynchronous
p138
aVdetection
p139
aVtime
p140
aVdomain
p141
aVinduced
p142
aVpolarization
p143
aVdecay
p144
aVforward
p145
aVmodeling
p146
aV1d
p147
aVlaterally
p148
aVconstrained
p149
aVinversion
p150
aVcole
p151
aVcole
p152
aVparameters
p153
aVdata
p154
aVerror
p155
aVquantification
p156
aVspectral
p157
aVinduced
p158
aVpolarization
p159
aVimaging
p160
aVsurface
p161
aVwave
p162
aVanalysis
p163
aVidentifying
p164
aVunfrozen
p165
aVzones
p166
aVsubglacial
p167
aVsediments
p168
aVfusion
p169
aVgravity
p170
aVgradient
p171
aVmagnetic
p172
aVfield
p173
aVdata
p174
aVdiscrimination
p175
aVanomalies
p176
aVusing
p177
aVdeformation
p178
aVanalysis
p179
aVfast
p180
aVhankel
p181
aVtransform
p182
aVfaster
p183
aVquadrature
p184
aV4d
p185
aVgravity
p186
aVresponse
p187
aVcompacting
p188
aVreservoirs
p189
aVanalytical
p190
aVapproach
p191
aVcoupling
p192
aVdielectric
p193
aVmixing
p194
aVmodels
p195
aVwave
p196
aVground
p197
aVpenetrating
p198
aVradar
p199
aVsignal
p200
aVinversion
p201
aVsandy
p202
aVsoil
p203
aVmoisture
p204
aVestimation
p205
aVgeneralized
p206
aVhilbert
p207
aVtransforms
p208
aVeffect
p209
aVsingle
p210
aVmagnetic
p211
aVsources
p212
aVdeep
p213
aVpass
p214
aVaeromagnetic
p215
aVdata
p216
aVfilter
p217
aVenhance
p218
aVdeep
p219
aVfeatures
p220
aVmarginal
p221
aVbasins
p222
aVintegration
p223
aVhydraulically
p224
aVinduced
p225
aVmicroseismic
p226
aVevent
p227
aVlocations
p228
aVactive
p229
aVseismic
p230
aVattributes
p231
aVnorth
p232
aVtexas
p233
aVbarnett
p234
aVshale
p235
aVcase
p236
aVstudy
p237
aVpore
p238
aVfluid
p239
aVeffects
p240
aVwave
p241
aVattenuation
p242
aVcaused
p243
aVwave
p244
aVinduced
p245
aVfluid
p246
aVflow
p247
aVpropagation
p248
aVdisturbance
p249
aVheterogeneous
p250
aVdeformable
p251
aVporous
p252
aVmedium
p253
aVsaturated
p254
aVfluid
p255
aVphases
p256
aVpredicting
p257
aVsubsurface
p258
aVco2
p259
aVmovement
p260
aVlaboratory
p261
aVfield
p262
aVscale
p263
aVfast
p264
aVprobabilistic
p265
aVpetrophysical
p266
aVmapping
p267
aVreservoirs
p268
aV3d
p269
aVseismic
p270
aVdata
p271
aVeffects
p272
aVtime
p273
aVvarying
p274
aVsea
p275
aVsurface
p276
aVmarine
p277
aVseismic
p278
aVdata
p279
aVvalidity
p280
aVacoustic
p281
aVapproximation
p282
aVwaveform
p283
aVseismic
p284
aVcrosshole
p285
aVtomography
p286
aVcompensation
p287
aVtransmission
p288
aVlosses
p289
aVbased
p290
aVway
p291
aVpropagators
p292
aVmixed
p293
aVdomain
p294
aVprestack
p295
aVtime
p296
aVmigration
p297
aVcommon
p298
aVmigrated
p299
aVreflector
p300
aVelement
p301
aVstacking
p302
aVflux
p303
aVnormalized
p304
aVwavefield
p305
aVdecomposition
p306
aVmigration
p307
aVseismic
p308
aVdata
p309
aVmassively
p310
aVparallel
p311
aVstructured
p312
aVdirect
p313
aVsolver
p314
aVequations
p315
aVdescribing
p316
aVtime
p317
aVharmonic
p318
aVqp
p319
aVpolarized
p320
aVwaves
p321
aVtti
p322
aVmedia
p323
aV3d
p324
aVscalar
p325
aVwave
p326
aVabsorbing
p327
aVboundary
p328
aVconditions
p329
aVoptimal
p330
aVcoefficients
p331
aVfrequency
p332
aVspace
p333
aVdomain
p334
aVprestack
p335
aVtraveltime
p336
aVapproximations
p337
aVhigh
p338
aVresolution
p339
aVbootstrapped
p340
aVdifferential
p341
aVsemblance
p342
aVmoveout
p343
aVanalysis
p344
aVwide
p345
aVazimuth
p346
aVdata
p347
aVpresence
p348
aVlateral
p349
aVvelocity
p350
aVvariation
p351
aVenhancement
p352
aVarrivals
p353
aVusing
p354
aVp
p355
aVtransform
p356
aVenergy
p357
aVratio
p358
aVseismic
p359
aVshot
p360
aVrecords
p361
aVtensor
p362
aVhigher
p363
aVorder
p364
aVsingular
p365
aVvalue
p366
aVdecomposition
p367
aVprestack
p368
aVseismic
p369
aVdata
p370
aVnoise
p371
aVreduction
p372
aVinterpolation
p373
aVdetermination
p374
aVfinite
p375
aVdifference
p376
aVweights
p377
aVusing
p378
aVscaled
p379
aVbinomial
p380
aVwindows
p381
aVmultiphysics
p382
aVborehole
p383
aVgeophysical
p384
aVmeasurements
p385
aVformation
p386
aVevaluation
p387
aVpetrophysics
p388
aVrock
p389
aVphysics
p390
aVintroduction
p391
aVjoint
p392
aVpetrophysical
p393
aVinversion
p394
aVelectromagnetic
p395
aVwaveform
p396
aVseismic
p397
aVdata
p398
aVinfluence
p399
aVtemperature
p400
aVseismic
p401
aVvelocities
p402
aVcomplex
p403
aVconductivity
p404
aVheavy
p405
aVoil
p406
aVbearing
p407
aVsands
p408
aVfactor
p409
aVanalysis
p410
aVengineering
p411
aVgeophysical
p412
aVsounding
p413
aVdata
p414
aVwater
p415
aVsaturation
p416
aVestimation
p417
aVshallow
p418
aVformations
p419
aVquantitative
p420
aVlog
p421
aVinterpretation
p422
aVuncertainty
p423
aVpropagation
p424
aVpetrophysical
p425
aVproperties
p426
aVfacies
p427
aVclassification
p428
aVrock
p429
aVphysics
p430
aVmodeling
p431
aVformation
p432
aVevaluation
p433
aVanalysis
p434
aVrock
p435
aVquality
p436
aVassessment
p437
aVusing
p438
aVeffect
p439
aVmud
p440
aVfiltrate
p441
aVinvasion
p442
aVconflicting
p443
aVborehole
p444
aVresistivity
p445
aVmeasurements
p446
aVimproved
p447
aVestimation
p448
aVmineral
p449
aVfluid
p450
aVvolumetric
p451
aVconcentrations
p452
aVlogs
p453
aVthinly
p454
aVbedded
p455
aVinvaded
p456
aVformations
p457
aVmicroelectromechanical
p458
aVdigital
p459
aV3c
p460
aVarray
p461
aVseismic
p462
aVcone
p463
aVpenetrometer
p464
aVconductivity
p465
aVmodels
p466
aVarchie
p467
aVrocks
p468
aVrules
p469
aVupscaling
p470
aVrock
p471
aVphysics
p472
aVtransforms
p473
aVcomposites
p474
aVrandomly
p475
aVindependently
p476
aVdrawn
p477
aVelements
p478
aVmodified
p479
aVcoherent
p480
aVpotential
p481
aVapproximation
p482
aVgrain
p483
aVcontact
p484
aVmoduli
p485
aVcoordination
p486
aVnumber
p487
aVeffect
p488
aVaccurate
p489
aVinterval
p490
aVq
p491
aVfactor
p492
aVestimation
p493
aVvsp
p494
aVdata
p495
aVmodeling
p496
aVsquirt
p497
aVdispersion
p498
aVattenuation
p499
aVfluid
p500
aVsaturated
p501
aVrocks
p502
aVusing
p503
aVpressure
p504
aVdependency
p505
aVdry
p506
aVultrasonic
p507
aVvelocities
p508
aVtime
p509
aVlapse
p510
aVacoustic
p511
aVtransport
p512
aVnmr
p513
aVmeasurements
p514
aVcharacterize
p515
aVmicrostructural
p516
aVchanges
p517
aVcarbonate
p518
aVrocks
p519
aVinjection
p520
aVco2
p521
aVrich
p522
aVwater
p523
aVestimation
p524
aVhorizontal
p525
aVstress
p526
aVmagnitudes
p527
aVstress
p528
aVcoefficients
p529
aVvelocities
p530
aVusing
p531
aVborehole
p532
aVsonic
p533
aVdata
p534
aVtheoretical
p535
aVstudy
p536
aVformation
p537
aVshear
p538
aVradial
p539
aVprofiling
p540
aVbonded
p541
aVcased
p542
aVboreholes
p543
aVusing
p544
aVsonic
p545
aVdispersion
p546
aVdata
p547
aVbased
p548
aVparameterized
p549
aVperturbation
p550
aVmodel
p551
aVtemperature
p552
aVdependence
p553
aVmagnetic
p554
aVproperties
p555
aVreservoir
p556
aVrocks
p557
aVminerals
p558
aVimplications
p559
aVsitu
p560
aVborehole
p561
aVpredictions
p562
aVpetrophysical
p563
aVparameters
p564
aVrole
p565
aVairborne
p566
aVgeophysics
p567
aVdetecting
p568
aVhydrocarbon
p569
aVmicroseepages
p570
aVrelated
p571
aVstructural
p572
aVfeatures
p573
aVcase
p574
aVremanso
p575
aVfogo
p576
aVbrazil
p577
aVjulia
p578
aVb
p579
aVcurto
p580
aVaugusto
p581
aVc
p582
aVb
p583
aVpires
p584
aVadalene
p585
aVsilva
p586
aVlvaro
p587
aVp
p588
aVcr
p589
aVsta
p590
aVgeophysics
p591
aV77
p592
aV2
p593
aVb35
p594
aVb41
p595
aVcombining
p596
aVwavefield
p597
aVmigration
p598
aVwaveform
p599
aVinversion
p600
aVglance
p601
aVfuture
p602
aVseismic
p603
aVimaging
p604
aVj
p605
aVberkhout
p606
aVgeophysics
p607
aV77
p608
ag593
aVs43
p609
aVs50
p610
a.