(lp0
VCzech Republic
p1
aVItaly
p2
aVCzech Republic
p3
aVUnited Arab Emirates
p4
aVUSA
p5
aVUSA
p6
aVUSA
p7
aVUSA
p8
aVUSA
p9
aVSweden
p10
aVSweden
p11
aVCanada
p12
aVCanada
p13
aVCanada
p14
aVCanada
p15
aVCanada
p16
aVFrance
p17
aVCzech Republic
p18
aVUSA
p19
aVFrance
p20
aVUSA
p21
aVUSA
p22
aVUSA
p23
aVUSA
p24
aVChina
p25
aVChina
p26
aVChina
p27
aVChina
p28
aVChina
p29
aVUSA
p30
aVUSA
p31
aVUSA
p32
aVChina
p33
aVDenmark
p34
aVUSA
p35
aVUSA
p36
aVChina
p37
aVCanada
p38
aVUSA
p39
aVUSA
p40
aVUSA
p41
aVUSA
p42
aVSaudi Arabia
p43
aVGermany
p44
aVGermany
p45
aVGermany
p46
aVNorway
p47
aVNorway
p48
aVNorway
p49
aVNorway
p50
aVGermany
p51
aVUSA
p52
aVJapan
p53
aVJapan
p54
aVNetherlands
p55
aVNetherlands
p56
aVKorea
p57
aVUSA
p58
aVUK
p59
aVUK
p60
aVGreece
p61
aVBrazil
p62
aVBrazil
p63
aVUSA
p64
aVUSA
p65
aVUSA
p66
aVUSA
p67
aVUSA
p68
aVUSA
p69
aVUSA
p70
aVUSA
p71
aVChina
p72
aVUSA
p73
aVNorway
p74
aVNorway
p75
aVNorway
p76
aVNorway
p77
aVUSA
p78
aVUSA
p79
aVUSA
p80
aVSwitzerland
p81
aVSwitzerland
p82
aVUSA
p83
aVUK
p84
aVUSA
p85
aVUSA
p86
aVBrazil
p87
aVBrazil
p88
aVNorway
p89
aVBrazil
p90
aVUK
p91
aVUSA
p92
aVUSA
p93
aVUSA
p94
aVUSA
p95
aVUSA
p96
aVChina
p97
aVChina
p98
aVAustralia
p99
aVChina
p100
aVNorway
p101
aVNorway
p102
aVUSA
p103
aVNorway
p104
aVUSA
p105
aVCanada
p106
aVUSA
p107
aVUSA
p108
aVUSA
p109
aVSouth Australia
p110
a.