(lp0
Vissue
p1
aVgeophysics
p2
aVpeak
p3
aVfrequency
p4
aVdirect
p5
aVwaves
p6
aVmicroseismic
p7
aVevents
p8
aVtime
p9
aVlapse
p10
aVseismic
p11
aVdata
p12
aVregistration
p13
aVinversion
p14
aVco2
p15
aVsequestration
p16
aVstudy
p17
aVcranfield
p18
aVhigh
p19
aVresolution
p20
aV2d
p21
aVseismic
p22
aVimaging
p23
aVforward
p24
aVmodeling
p25
aVpolymetallic
p26
aVsulfide
p27
aVdeposit
p28
aVgarpenberg
p29
aVcentral
p30
aVsweden
p31
aVnew
p32
aVregional
p33
aVresidual
p34
aVseparation
p35
aVmagnetic
p36
aVdata
p37
aVsets
p38
aVusing
p39
aVsusceptibility
p40
aVfrequency
p41
aVdomain
p42
aVelectromagnetic
p43
aVdata
p44
aVanisotropic
p45
aVfrequency
p46
aVdependent
p47
aVspreading
p48
aVseismic
p49
aVwaves
p50
aVarrival
p51
aVvertical
p52
aVseismic
p53
aVprofile
p54
aVdata
p55
aVanalysis
p56
aVmoveout
p57
aVapproximations
p58
aVp
p59
aVsv
p60
aVwaves
p61
aVdip
p62
aVconstrained
p63
aVtransversely
p64
aVisotropic
p65
aVmedia
p66
aVcomplex
p67
aVconductivity
p68
aVtensor
p69
aVanisotropic
p70
aVhydrocarbon
p71
aVbearing
p72
aVshales
p73
aVmudrocks
p74
aVviscoelasticity
p75
aVells
p76
aVriver
p77
aVbitumen
p78
aVsand
p79
aV4d
p80
aVmonitoring
p81
aVthermal
p82
aVenhanced
p83
aVoil
p84
aVrecovery
p85
aVprocesses
p86
aVmagnetization
p87
aVvector
p88
aVimaging
p89
aVborehole
p90
aVmagnetic
p91
aVdata
p92
aVbased
p93
aVmagnitude
p94
aVmagnetic
p95
aVanomaly
p96
aVdynamic
p97
aVadaptive
p98
aVradial
p99
aVbasis
p100
aVfunction
p101
aVapproach
p102
aVtotal
p103
aVorganic
p104
aVcarbon
p105
aVcontent
p106
aVprediction
p107
aVorganic
p108
aVshale
p109
aVrelating
p110
aVnuclear
p111
aVmagnetic
p112
aVresonance
p113
aVrelaxation
p114
aVtime
p115
aVdistributions
p116
aVvoid
p117
aVsize
p118
aVdistributions
p119
aVunconsolidated
p120
aVsand
p121
aVpacks
p122
aVinversion
p123
aVbased
p124
aVpetrophysical
p125
aVinterpretation
p126
aVlogging
p127
aVdrilling
p128
aVnuclear
p129
aVresistivity
p130
aVmeasurements
p131
aVmapping
p132
aVformation
p133
aVshear
p134
aVvelocity
p135
aVvariation
p136
aVinverting
p137
aVlogging
p138
aVdrilling
p139
aVquadrupole
p140
aVwave
p141
aVdispersion
p142
aVdata
p143
aVnovel
p144
aVfinite
p145
aVelement
p146
aVapproach
p147
aVapplied
p148
aVborehole
p149
aVquadrupole
p150
aVdispersion
p151
aVanalysis
p152
aVstress
p153
aVsensitive
p154
aVformations
p155
aVsensitivity
p156
aVstudy
p157
aVrock
p158
aVphysics
p159
aVparameters
p160
aVmodeling
p161
aVtime
p162
aVlapse
p163
aVseismic
p164
aVresponse
p165
aVnorne
p166
aVfield
p167
aVwavefield
p168
aVsimulation
p169
aVanalysis
p170
aVfinite
p171
aVelement
p172
aVmethod
p173
aVacoustic
p174
aVlogging
p175
aVdrilling
p176
aVhorizontal
p177
aVdeviated
p178
aVwells
p179
aVextended
p180
aVwalton
p181
aVorder
p182
aVelastic
p183
aVcoefficients
p184
aVmodified
p185
aVanisotropic
p186
aVstress
p187
aVdependent
p188
aVcoordination
p189
aVnumber
p190
aVrobust
p191
aVaccelerated
p192
aVbayesian
p193
aVinversion
p194
aVmarine
p195
aVcontrolled
p196
aVsource
p197
aVelectromagnetic
p198
aVdata
p199
aVusing
p200
aVparallel
p201
aVtempering
p202
aVquantifying
p203
aVsurface
p204
aVreservoir
p205
aVelectromagnetics
p206
aVwaterflood
p207
aVmonitoring
p208
aVsaudi
p209
aVarabian
p210
aVcarbonate
p211
aVreservoir
p212
aVlong
p213
aVshort
p214
aVnarrow
p215
aVpore
p216
aVmodels
p217
aVmembrane
p218
aVpolarization
p219
aVjoint
p220
aVcontrast
p221
aVsource
p222
aVinversion
p223
aVmarine
p224
aVmagnetotelluric
p225
aVcontrolled
p226
aVsource
p227
aVelectromagnetic
p228
aVdata
p229
aVinversion
p230
aVsurface
p231
aVnmr
p232
aVt1
p233
aVdata
p234
aVimproved
p235
aVaquifer
p236
aVcharacterization
p237
aVwindow
p238
aVcontrolled
p239
aVcmp
p240
aVcrosscorrelation
p241
aVanalysis
p242
aVsurface
p243
aVwaves
p244
aVlaterally
p245
aVheterogeneous
p246
aVmedia
p247
aVimaging
p248
aVscatterers
p249
aVlandfills
p250
aVusing
p251
aVseismic
p252
aVinterferometry
p253
aVhigh
p254
aVfrequency
p255
aVseismic
p256
aVresponse
p257
aVpermeability
p258
aVreduction
p259
aVbiopolymer
p260
aVclogging
p261
aVunconsolidated
p262
aVporous
p263
aVmedia
p264
aVsimple
p265
aVexact
p266
aVacoustic
p267
aVwavefield
p268
aVmodeling
p269
aVcode
p270
aVdata
p271
aVprocessing
p272
aVimaging
p273
aVinterferometry
p274
aVapplications
p275
aVmultiparameter
p276
aVanalysis
p277
aVgeophysical
p278
aVmethods
p279
aVtarget
p280
aVdetection
p281
aVunified
p282
aVgeophysical
p283
aVmodel
p284
aVapproach
p285
aVestimating
p286
aVnature
p287
aVhorizontal
p288
aVvertical
p289
aVpositions
p290
aV3d
p291
aVmagnetic
p292
aVsources
p293
aVusing
p294
aVeuler
p295
aVdeconvolution
p296
aVeffective
p297
aVnoise
p298
aVsuppression
p299
aVtechnique
p300
aVsurface
p301
aVmicroseismic
p302
aVdata
p303
aVlong
p304
aVperiod
p305
aVlong
p306
aVduration
p307
aVseismic
p308
aVevents
p309
aVhydraulic
p310
aVstimulation
p311
aVshale
p312
aVtight
p313
aVgas
p314
aVreservoirs
p315
aV1
p316
aVwaveform
p317
aVcharacteristics
p318
aVlong
p319
aVperiod
p320
aVlong
p321
aVduration
p322
aVseismic
p323
aVevents
p324
aVhydraulic
p325
aVstimulation
p326
aVshale
p327
aVtight
p328
aVgas
p329
aVreservoirs
p330
aV2
p331
aVlocation
p332
aVmechanisms
p333
aVelastic
p334
aVimpedance
p335
aVparameterization
p336
aVinversion
p337
aVyoung
p338
aVmodulus
p339
aVpoisson
p340
aVratio
p341
aVseismic
p342
aVdata
p343
aVdecomposition
p344
aVspectral
p345
aVcomponents
p346
aVusing
p347
aVregularized
p348
aVnonstationary
p349
aVautoregression
p350
aVrepeatability
p351
aVissues
p352
aVhigh
p353
aVfrequency
p354
aVsignals
p355
aVemitted
p356
aVair
p357
aVgun
p358
aVarrays
p359
aVwave
p360
aVequation
p361
aVreflection
p362
aVtraveltime
p363
aVinversion
p364
aVdynamic
p365
aVwarping
p366
aVwaveform
p367
aVinversion
p368
aVcritical
p369
aVappraisal
p370
aVasymptotic
p371
aV3d
p372
aV2d
p373
aVdata
p374
aVtransformation
p375
aVwaveform
p376
aVseismic
p377
aVcrosshole
p378
aVtomography
p379
aVapplication
p380
aVvariable
p381
aVprojection
p382
aVscheme
p383
aVfrequency
p384
aVdomain
p385
aVwaveform
p386
aVinversion
p387
aVdouble
p388
aVdifference
p389
aVelastic
p390
aVwaveform
p391
aVinversion
p392
aVprior
p393
aVinformation
p394
aVtime
p395
aVlapse
p396
aVmonitoring
p397
aVselecting
p398
aVoptimal
p399
aVaperture
p400
aVkirchhoff
p401
aVmigration
p402
aVusing
p403
aVdip
p404
aVangle
p405
aVimages
p406
aVhigh
p407
aVresolution
p408
aVimaging
p409
aVdiffractions
p410
aVwindow
p411
aVsteered
p412
aVmusic
p413
aVapproach
p414
aVelastic
p415
aVimaging
p416
aVexact
p417
aVwavefield
p418
aVextrapolation
p419
aVapplication
p420
aVocean
p421
aV4c
p422
aVseismic
p423
aVdata
p424
aVpolarization
p425
aVbased
p426
aVwave
p427
aVequation
p428
aVmigration
p429
aVvelocity
p430
aVanalysis
p431
aVacoustic
p432
aVmedia
p433
aVbreak
p434
aVtraveltime
p435
aVtomography
p436
aVdouble
p437
aVsquare
p438
aVroot
p439
aVeikonal
p440
aVequation
p441
aVrandom
p442
aVdenoising
p443
aVsignal
p444
aVnonlinearity
p445
aVapproach
p446
aVtime
p447
aVfrequency
p448
aVpeak
p449
aVfiltering
p450
aVusing
p451
aVweighted
p452
aVfrequency
p453
aVreassignment
p454
aVrobust
p455
aVestimation
p456
aVdiscrete
p457
aVhilbert
p458
aVtransform
p459
aVnoisy
p460
aVdata
p461
aVadaptive
p462
aVmultiple
p463
aVsubtraction
p464
aVbased
p465
aV3d
p466
aVblind
p467
aVseparation
p468
aVconvolved
p469
aVmixtures
p470
aVseismic
p471
aVdeghosting
p472
aVspatial
p473
aVdeconvolution
p474
aVtensor
p475
aVcompletion
p476
aVbased
p477
aVnuclear
p478
aVnorm
p479
aVminimization
p480
aV5d
p481
aVseismic
p482
aVdata
p483
aVreconstruction
p484
aVhelicopter
p485
aVtime
p486
aVdomain
p487
aVelectromagnetics
p488
aVnewmont
p489
aVnewtem
p490
aVexperience
p491
aVglobally
p492
aVoptimal
p493
aVfinite
p494
aVdifference
p495
aVschemes
p496
aVbased
p497
aVsquares
p498
aVyang
p499
aVliu
p500
aVgeophysics
p501
aV78
p502
aV4
p503
aVt113
p504
aVt132
p505
aVdoi
p506
aV10
p507
aV1190
p508
aVgeo2012
p509
aV0480
p510
ag316
aVgeophysics
p511
aVdissertation
p512
aVabstracts
p513
aVintellectual
p514
aVproperty
p515
a.