(lp0
Vissue
p1
aVgeophysics
p2
aVguidelines
p3
aVsubmitting
p4
aVsoftware
p5
aVsoftware
p6
aValgorithms
p7
aVself
p8
aVpotential
p9
aVinvestigation
p10
aVsubmarine
p11
aVmassive
p12
aVsulfides
p13
aVpalinuro
p14
aVseamount
p15
aVtyrrhenian
p16
aVsea
p17
aVcase
p18
aVhistory
p19
aV5
p20
aVkm
p21
aVlong
p22
aVwaterborne
p23
aVgeophysical
p24
aVsurvey
p25
aVpo
p26
aVriver
p27
aVcity
p28
aVturin
p29
aVnorthwest
p30
aVitaly
p31
aVcomparison
p32
aVloop
p33
aVtime
p34
aVdomain
p35
aVelectromagnetic
p36
aVshort
p37
aVoffset
p38
aVtransient
p39
aVelectromagnetic
p40
aVmethods
p41
aVmapping
p42
aVwater
p43
aVenriched
p44
aVzones
p45
aVcase
p46
aVhistory
p47
aVshaanxi
p48
aVchina
p49
aVvertical
p50
aVseismic
p51
aVprofiling
p52
aVusing
p53
aVdouble
p54
aVbeamforming
p55
aVprocessing
p56
aVnonuniform
p57
aVanthropogenic
p58
aVseismic
p59
aVnoise
p60
aVcase
p61
aVstudy
p62
aVrittershoffen
p63
aVupper
p64
aVrhine
p65
aVgraben
p66
aVfrance
p67
aVintegrated
p68
aVfacies
p69
aVmodeling
p70
aVunconventional
p71
aVreservoirs
p72
aVusing
p73
aVfrequentist
p74
aVapproach
p75
aVexample
p76
aVsouth
p77
aVtexas
p78
aVfield
p79
aVassessment
p80
aVsoil
p81
aVliquefaction
p82
aVpotential
p83
aVbased
p84
aVgeoelectrical
p85
aVimaging
p86
aVcase
p87
aVstudy
p88
aVdetermining
p89
aVgeophysical
p90
aVresponses
p91
aVburials
p92
aVgraveyards
p93
aVcemeteries
p94
aVtraveltime
p95
aVparameters
p96
aVtilted
p97
aVorthorhombic
p98
aVmedium
p99
aVelastic
p100
aVproperties
p101
aVvti
p102
aVshale
p103
aVsamples
p104
aVfunction
p105
aVuniaxial
p106
aVstress
p107
aVexperimental
p108
aVresults
p109
aVapplication
p110
aVporosity
p111
aVdeformation
p112
aVapproach
p113
aVazimuthally
p114
aVanisotropic
p115
aVelastic
p116
aVimpedance
p117
aVinversion
p118
aVfluid
p119
aVindicator
p120
aVdriven
p121
aVrock
p122
aVphysics
p123
aVnew
p124
aVparameterization
p125
aVacoustic
p126
aVorthorhombic
p127
aVmedia
p128
aVapplication
p129
aVnanoindentation
p130
aVuncertainty
p131
aVassessment
p132
aVelastic
p133
aVproperties
p134
aVmudrocks
p135
aVmicro
p136
aVlog
p137
aVscales
p138
aVweighted
p139
aVprocessing
p140
aVmicroresistivity
p141
aVimaging
p142
aVlogging
p143
aVoil
p144
aVbased
p145
aVmud
p146
aVusing
p147
aVsupport
p148
aVvector
p149
aVregression
p150
aVmodel
p151
aVcharacteristics
p152
aVwaveforms
p153
aVrecorded
p154
aVazimuthally
p155
aVspaced
p156
aVhydrophones
p157
aVsonic
p158
aVlogging
p159
aVtool
p160
aVincident
p161
aVplane
p162
aVwaves
p163
aVlocal
p164
aVglobal
p165
aVfluid
p166
aVeffects
p167
aVsonic
p168
aVwave
p169
aVmodes
p170
aVelectric
p171
aVfields
p172
aVproduced
p173
aVinductive
p174
aVsources
p175
aVseafloor
p176
aVsplitting
p177
aVmarine
p178
aVcontrolled
p179
aVsource
p180
aVelectromagnetic
p181
aVresponses
p182
aVsea
p183
aVsubseafloor
p184
aVcontributions
p185
aVgrounding
p186
aVair
p187
aVwave
p188
aVnew
p189
aVapproach
p190
aVtime
p191
aVlapse
p192
aVdata
p193
aVweighting
p194
aVelectrical
p195
aVresistivity
p196
aVtomography
p197
aV3d
p198
aVmarine
p199
aVmagnetotelluric
p200
aVinversion
p201
aVhybrid
p202
aVimpedance
p203
aVdirect
p204
aVfield
p205
aVapproach
p206
aVsuperparamagnetism
p207
aVground
p208
aVairborne
p209
aVelectromagnetics
p210
aVgeometrical
p211
aVphysical
p212
aVcontrols
p213
aVfast
p214
aV3d
p215
aVmultichannel
p216
aVdeconvolution
p217
aVelectromagnetic
p218
aVinduction
p219
aVloop
p220
aVloop
p221
aVapparent
p222
aVconductivity
p223
aVdata
p224
aVsets
p225
aVacquired
p226
aVlow
p227
aVinduction
p228
aVnumbers
p229
aVcomprehensive
p230
aVcomparison
p231
aVrefraction
p232
aVmicrotremor
p233
aVseismic
p234
aVinterferometry
p235
aVmethods
p236
aVphase
p237
aVvelocity
p238
aVestimation
p239
aVadaptive
p240
aVmultinary
p241
aVinversion
p242
aVgravity
p243
aVgravity
p244
aVgradiometry
p245
aVdata
p246
aVmathematical
p247
aVproperties
p248
aVphysical
p249
aVmeaning
p250
aVgravity
p251
aVgradient
p252
aVtensor
p253
aVeigenvalues
p254
aVjoint
p255
aVacoustic
p256
aVwaveform
p257
aVinversion
p258
aVcrosshole
p259
aVseismic
p260
aVground
p261
aVpenetrating
p262
aVradar
p263
aVdata
p264
aVfrequency
p265
aVdomain
p266
aVuncertainty
p267
aVreduction
p268
aVgeologically
p269
aVconditioned
p270
aVpetrophysical
p271
aVconstraints
p272
aVjoint
p273
aVinversion
p274
aVlithology
p275
aVcontrolled
p276
aVstress
p277
aVvariations
p278
aVpad
p279
aVscale
p280
aVfaults
p281
aVcase
p282
aVstudy
p283
aVhydraulic
p284
aVfracturing
p285
aVwoodford
p286
aVshale
p287
aVoklahoma
p288
aVinvestigation
p289
aVmagnetic
p290
aVinversion
p291
aVmethods
p292
aVhighly
p293
aVmagnetic
p294
aVenvironments
p295
aVstrong
p296
aVself
p297
aVdemagnetization
p298
aVeffect
p299
aVnuclear
p300
aVmagnetic
p301
aVresonance
p302
aVsurface
p303
aVrelaxation
p304
aVmechanisms
p305
aVkerogen
p306
aVaccounting
p307
aVrelaxation
p308
aVpulse
p309
aVeffects
p310
aVlong
p311
aVpulses
p312
aVfast
p313
aVrelaxation
p314
aVtimes
p315
aVsurface
p316
aVnuclear
p317
aVmagnetic
p318
aVresonance
p319
aVmicroseismic
p320
aVimage
p321
aVdomain
p322
aVvelocity
p323
aVinversion
p324
aVmarcellus
p325
aVshale
p326
aVcase
p327
aVstudy
p328
aVreliability
p329
aVmicroseismic
p330
aVmoment
p331
aVtensor
p332
aVsolutions
p333
aVsurface
p334
aVversus
p335
aVborehole
p336
aVmonitoring
p337
aVimaging
p338
aVaquistore
p339
aVreservoir
p340
aV36
p341
aVkilotonnes
p342
aVco2
p343
aVinjection
p344
aVusing
p345
aVdistributed
p346
aVacoustic
p347
aVsensing
p348
aVhomogenization
p349
aVapproach
p350
aVmodeling
p351
aVpropagating
p352
aVhydraulic
p353
aVfracture
p354
aVlayered
p355
aVmaterial
p356
aVmodeling
p357
aVeffective
p358
aVelastic
p359
aVproperties
p360
aVdigital
p361
aVrocks
p362
aVusing
p363
aVnew
p364
aVdynamic
p365
aVstress
p366
aVstrain
p367
aVsimulation
p368
aVmethod
p369
aVproperty
p370
aVchanges
p371
aVoil
p372
aVshale
p373
aVartificial
p374
aVmaturation
p375
aVirati
p376
aVformation
p377
aVparan
p378
aVbasin
p379
aVbrazil
p380
aVanisotropic
p381
aVsurface
p382
aVwave
p383
aVcharacterization
p384
aVgranular
p385
aVmedia
p386
aVuse
p387
aVwave
p388
aVanisotropy
p389
aVquantify
p390
aVonset
p391
aVstress
p392
aVinduced
p393
aVmicrofracturing
p394
aVfrequency
p395
aVdependent
p396
aVvelocity
p397
aVanalysis
p398
aVoffset
p399
aVdependent
p400
aVlow
p401
aVfrequency
p402
aVamplitude
p403
aVanomalies
p404
aVhydrocarbon
p405
aVbearing
p406
aVreservoirs
p407
aVsouthern
p408
aVnorth
p409
aVsea
p410
aVnorwegian
p411
aVsector
p412
aVmultiazimuth
p413
aVcoherence
p414
aVbayesian
p415
aVfeature
p416
aVlearning
p417
aVseismic
p418
aVcompressive
p419
aVsensing
p420
aVdenoising
p421
aVvertical
p422
aVresolution
p423
aVseismic
p424
aVacquisition
p425
aVgeometries
p426
aVcomplex
p427
aV3d
p428
aVmedia
p429
aVsource
p430
aVdeghosting
p431
aVdepth
p432
aVapparition
p433
aVrapid
p434
aVseismic
p435
aVdata
p436
aVcalibration
p437
aVtechnique
p438
aVusing
p439
aVintegrated
p440
aVmicro
p441
aVelectro
p442
aVmechanical
p443
aVinertial
p444
aVsensor
p445
aVgroups
p446
aV3c
p447
aVvertical
p448
aVseismic
p449
aVprofile
p450
aVlow
p451
aVfrequency
p452
aVacoustic
p453
aVsignal
p454
aVcreated
p455
aVrising
p456
aVair
p457
aVgun
p458
aVbubble
p459
aVtarget
p460
aVenclosed
p461
aVseismic
p462
aVimaging
p463
aVnew
p464
aVapproach
p465
aVseparate
p466
aVseismic
p467
aVtime
p468
aVlapse
p469
aVtime
p470
aVshifts
p471
aVreservoir
p472
aVoverburden
p473
aVparameterization
p474
aVstudy
p475
aVelastic
p476
aVvti
p477
aVwaveform
p478
aVinversion
p479
aVhydrophone
p480
aVcomponents
p481
aVsynthetic
p482
aVnorth
p483
aVsea
p484
aVfield
p485
aVdata
p486
aVexamples
p487
aVelastic
p488
aVreflection
p489
aVbased
p490
aVwaveform
p491
aVinversion
p492
aVnonlinear
p493
aVapproach
p494
aVimprovement
p495
aVwavefield
p496
aVextrapolation
p497
aVimaging
p498
aVcondition
p499
aVsuppress
p500
aVreverse
p501
aVtime
p502
aVmigration
p503
aVartifacts
p504
aVattenuation
p505
aVcompensation
p506
aVanisotropic
p507
aVsquares
p508
aVreverse
p509
aVtime
p510
aVmigration
p511
aVq
p512
aVsquares
p513
aVreverse
p514
aVtime
p515
aVmigration
p516
aVviscoacoustic
p517
aVdeblurring
p518
aVfilters
p519
aVrayleigh
p520
aVmarchenko
p521
aVredatuming
p522
aVtarget
p523
aVoriented
p524
aVtrue
p525
aVamplitude
p526
aVimaging
p527
aVreciprocity
p528
aVdouble
p529
aVplane
p530
aVwave
p531
aVmigration
p532
aVhybrid
p533
aVelastic
p534
aVway
p535
aVpropagator
p536
aVstrong
p537
aVcontrast
p538
aVmedia
p539
aVapplication
p540
aVsubsalt
p541
aVimaging
p542
aVway
p543
aVwave
p544
aVequation
p545
aVmigration
p546
aVmultiples
p547
aVbased
p548
aVstereographic
p549
aVimaging
p550
aVcondition
p551
aVtime
p552
aVstep
p553
aVn
p554
aVtupling
p555
aVwave
p556
aVequations
p557
aVtime
p558
aVdepth
p559
aVconversion
p560
aVvelocity
p561
aVestimation
p562
aVimage
p563
aVwavefront
p564
aVpropagation
p565
aVoriented
p566
aVtime
p567
aVdomain
p568
aVdip
p569
aVmoveout
p570
aVcorrection
p571
aVplanar
p572
aVreflectors
p573
aVcommon
p574
aVsource
p575
aVdomain
p576
aVmathematical
p577
aVmorphological
p578
aVfiltering
p579
aVlinear
p580
aVnoise
p581
aVattenuation
p582
aVseismic
p583
aVdata
p584
aVdata
p585
aVdriven
p586
aVmultitask
p587
aVsparse
p588
aVdictionary
p589
aVlearning
p590
aVnoise
p591
aVattenuation
p592
aV3d
p593
aVseismic
p594
aVdata
p595
aVcoherent
p596
aVnoise
p597
aVsuppression
p598
aVlearning
p599
aVanalyzing
p600
aVmorphology
p601
aVdata
p602
aVreproducible
p603
aVresearch
p604
aVgeophysics
p605
aVpapers
p606
aVfuture
p607
aVintroduction
p608
aVfast
p609
aVsweeping
p610
aValgorithm
p611
aVaccurate
p612
aVsolution
p613
aVtilted
p614
aVtransversely
p615
aVisotropic
p616
aVeikonal
p617
aVequation
p618
aVusing
p619
aVfactorization
p620
aVopen
p621
aVsource
p622
aV3d
p623
aVelectromagnetic
p624
aVmodeler
p625
aV1d
p626
aVvti
p627
aVmedia
p628
aVpython
p629
aVempymod
p630
aVclosed
p631
aVform
p632
aVformula
p633
aVmagnetic
p634
aVgradient
p635
aVtensor
p636
aVhomogeneous
p637
aVpolyhedral
p638
aVmagnetic
p639
aVtarget
p640
aVtetrahedral
p641
aVgrid
p642
aVexample
p643
aVimplementation
p644
aVmarchenko
p645
aVmethod
p646
aVswip
p647
aVintegrated
p648
aVworkflow
p649
aVsurface
p650
aVwave
p651
aVdispersion
p652
aVinversion
p653
aVprofiling
p654
a.