(lp0
VCanada
p1
aVAustralia
p2
aVMexico
p3
aVChina
p4
aVUSA
p5
aVBrazil
p6
aVIndia
p7
aVSouth Africa
p8
aVChina
p9
aVChina
p10
aVChina
p11
aVChina
p12
aVUSA
p13
aVUSA
p14
aVUSA
p15
aVAustralia
p16
aVUSA
p17
aVUSA
p18
aVUSA
p19
aVChina
p20
aVUSA
p21
aVBrazil
p22
aVUSA
p23
aVUSA
p24
aVUSA
p25
aVFrance
p26
aVUSA
p27
aVUSA
p28
aVUSA
p29
aVUSA
p30
aVRepublic of Korea
p31
aVUSA
p32
aVSpain
p33
aVSpain
p34
aVUSA
p35
aVUSA
p36
aVSwitzerland
p37
aVSwitzerland
p38
aVNorway
p39
aVCanada
p40
aVGermany
p41
aVCanada
p42
aVCanada
p43
aVCanada
p44
aVCanada
p45
aVCanada
p46
aVCanada
p47
aVCanada
p48
aVJapan
p49
aVUS
p50
aVBrazil
p51
aVGreece
p52
aVGreece
p53
aVJapan
p54
aVJapan
p55
aVSwitzerland
p56
aVSwitzerland
p57
aVChina
p58
aVUSA
p59
aVSwitzerland
p60
aVFrance
p61
aVSwitzerland
p62
aVNorway
p63
aVSwitzerland
p64
aVUSA
p65
aVUSA
p66
aVUSA
p67
aVIndia
p68
aVUSA
p69
aVUSA
p70
aVUSA
p71
aVIndia
p72
aVChina
p73
aVChina
p74
aVChina
p75
aVChina
p76
aVUSA
p77
aVUSA
p78
aVUSA
p79
aVUSA
p80
aVUSA
p81
aVSaudi Arabia
p82
aVEgypt
p83
aVEgypt
p84
aVChina
p85
aVUSA
p86
aVSwitzerland
p87
aVSwitzerland
p88
aVSwitzerland
p89
aVSwitzerland
p90
aVFrance
p91
aVFrance
p92
aVFrance
p93
aVUSA
p94
aVUSA
p95
aVUSA
p96
aVUSA
p97
aVChina
p98
aVUSA
p99
aVIran
p100
aVChina
p101
aVCanada
p102
aVCanada
p103
aVChina
p104
aVChina
p105
aVChina
p106
a.