(lp0
Vinstructions
p1
aVauthors
p2
aVissue
p3
aVgeophysics
p4
aVmultidimensional
p5
aValiased
p6
aVcadzow
p7
aVreconstruction
p8
aVseismic
p9
aVrecords
p10
aVporosity
p11
aVperturbations
p12
aVporoelastic
p13
aVcompressibilities
p14
aVoptimized
p15
aVfinite
p16
aVdifference
p17
aVoperator
p18
aVbroadband
p19
aVseismic
p20
aVwave
p21
aVmodeling
p22
aV3d
p23
aVinversion
p24
aVairborne
p25
aVgravity
p26
aVgradiometry
p27
aVdata
p28
aVmineral
p29
aVexploration
p30
aVcase
p31
aVstudy
p32
aVquadril
p33
aVtero
p34
aVferr
p35
aVfero
p36
aVbrazil
p37
aVintegrated
p38
aVapplication
p39
aVheliborne
p40
aVground
p41
aVelectromagnetic
p42
aVsurveys
p43
aVmapping
p44
aVem
p45
aVconductor
p46
aVuranium
p47
aVexploration
p48
aVsubsurface
p49
aVvalidation
p50
aVnorth
p51
aVdelhi
p52
aVfold
p53
aVbelt
p54
aVrajasthan
p55
aVindia
p56
aVcase
p57
aVstudy
p58
aV3d
p59
aVgeologic
p60
aVmodel
p61
aVshizishan
p62
aVore
p63
aVfield
p64
aVconstrained
p65
aVgravity
p66
aVmagnetic
p67
aVinteractive
p68
aVmodeling
p69
aVcase
p70
aVhistory
p71
aVmicroseismicity
p72
aVconstrained
p73
aVdiscrete
p74
aVfracture
p75
aVnetwork
p76
aVmodels
p77
aVstimulated
p78
aVreservoir
p79
aVsimulation
p80
aVelliptical
p81
aVmoveout
p82
aVoperator
p83
aVdata
p84
aVregularization
p85
aVazimuthally
p86
aVanisotropic
p87
aVmedia
p88
aVray
p89
aVbased
p90
aVgridded
p91
aVtomography
p92
aVtilted
p93
aVtransversely
p94
aVisotropic
p95
aVmedia
p96
aVexperimental
p97
aVstudy
p98
aVradiation
p99
aVcharacteristics
p100
aVdownhole
p101
aVacoustic
p102
aVphased
p103
aVcombined
p104
aVarc
p105
aVarray
p106
aVtransmitter
p107
aVphysical
p108
aVmodeling
p109
aVanisotropic
p110
aVdomains
p111
aVultrasonic
p112
aVimaging
p113
aVlaser
p114
aVetched
p115
aVfractures
p116
aVglass
p117
aVpetrophysical
p118
aVproperties
p119
aVsaprolites
p120
aVoak
p121
aVridge
p122
aVintegrated
p123
aVfield
p124
aVresearch
p125
aVchallenge
p126
aVsite
p127
aVtennessee
p128
aVsimulation
p129
aVborehole
p130
aVeccentered
p131
aVtriaxial
p132
aVinduction
p133
aVmeasurements
p134
aVusing
p135
aVfourier
p136
aVhp
p137
aVfinite
p138
aVelement
p139
aVmethod
p140
aVsynchrotron
p141
aVbased
p142
aVx
p143
aVray
p144
aVtomographic
p145
aVmicroscopy
p146
aVrock
p147
aVphysics
p148
aVinvestigations
p149
aVdecomposition
p150
aVupgoing
p151
aVdowngoing
p152
aVfields
p153
aVinversion
p154
aVmarine
p155
aVcsem
p156
aVdata
p157
aVusing
p158
aVcombinations
p159
aVspatial
p160
aVgradients
p161
aVimprove
p162
aVdetectability
p163
aVburied
p164
aVconductors
p165
aVconductive
p166
aVmaterial
p167
aVtransient
p168
aVmarine
p169
aVelectromagnetic
p170
aVresponses
p171
aV3d
p172
aVresistive
p173
aVstructures
p174
aVimplications
p175
aVnavigation
p176
aVpractical
p177
aVstrategies
p178
aVclassification
p179
aVunexploded
p180
aVordnance
p181
aVdimensional
p182
aVinversion
p183
aVmultisource
p184
aVtime
p185
aVdomain
p186
aVelectromagnetic
p187
aVdata
p188
aV3d
p189
aVinversion
p190
aVmarine
p191
aVcsem
p192
aVmt
p193
aVdata
p194
aVapproach
p195
aVshallow
p196
aVwater
p197
aVproblem
p198
aVray
p199
aVdirection
p200
aVvelocities
p201
aVvti
p202
aVmedia
p203
aVpolynomial
p204
aVequivalent
p205
aVlayer
p206
aVnew
p207
aVautomatic
p208
aVonset
p209
aVdetection
p210
aVtechnique
p211
aVapplication
p212
aVlocal
p213
aVearthquake
p214
aVdata
p215
aVminiature
p216
aVarray
p217
aVanalysis
p218
aVmicrotremors
p219
aVgeomechanical
p220
aVmodeling
p221
aVinduced
p222
aVseismicity
p223
aVsource
p224
aVparameters
p225
aVimplications
p226
aVseismic
p227
aVhazard
p228
aVassessment
p229
aVrobust
p230
aVestimation
p231
aVinstantaneous
p232
aVphase
p233
aVusing
p234
aVtime
p235
aVfrequency
p236
aVadaptive
p237
aVfilter
p238
aVseismic
p239
aVattenuation
p240
aVrecordings
p241
aVambient
p242
aVnoise
p243
aVprestack
p244
aVbasis
p245
aVpursuit
p246
aVseismic
p247
aVinversion
p248
aVfrequency
p249
aVdomain
p250
aVwaveform
p251
aVinversion
p252
aVplane
p253
aVwave
p254
aVdata
p255
aVcompensation
p256
aVabsorption
p257
aVdispersion
p258
aVprestack
p259
aVmigration
p260
aVeffective
p261
aVq
p262
aVapproach
p263
aVefficient
p264
aVreverse
p265
aVtime
p266
aVmigration
p267
aVmethod
p268
aVusing
p269
aVlocal
p270
aVnearly
p271
aVanalytic
p272
aVdiscrete
p273
aVoperator
p274
aVanisotropic
p275
aVparsimonious
p276
aVprestack
p277
aVdepth
p278
aVmigration
p279
aVexcitation
p280
aVamplitude
p281
aVimaging
p282
aVcondition
p283
aVprestack
p284
aVreverse
p285
aVtime
p286
aVmigration
p287
aVsensitivity
p288
aVanalysis
p289
aVfracture
p290
aVscattering
p291
aVdesign
p292
aVstable
p293
aVsparse
p294
aVwavefield
p295
aVextrapolators
p296
aVusing
p297
aVprojections
p298
aVconvex
p299
aVsets
p300
aVdomain
p301
aVlimited
p302
aVsolution
p303
aVwave
p304
aVequation
p305
aVriemannian
p306
aVcoordinates
p307
aVapplication
p308
aVperfectly
p309
aVmatched
p310
aVlayer
p311
aVscalar
p312
aVarbitrarily
p313
aVwide
p314
aVangle
p315
aVwave
p316
aVequations
p317
aVnumerical
p318
aVsimulation
p319
aVambient
p320
aVseismic
p321
aVwavefield
p322
aVmodification
p323
aVcaused
p324
aVpore
p325
aVfluid
p326
aVeffects
p327
aVoil
p328
aVreservoir
p329
aVtracking
p330
aVvelocity
p331
aVvariations
p332
aVdepth
p333
aVpresence
p334
aVsurface
p335
aVvelocity
p336
aVfluctuations
p337
aVnonstretching
p338
aVnmo
p339
aVcorrection
p340
aVprestack
p341
aVtime
p342
aVmigrated
p343
aVgathers
p344
aVusing
p345
aVmatching
p346
aVpursuit
p347
aValgorithm
p348
aVsubsalt
p349
aVvelocity
p350
aVestimation
p351
aVtarget
p352
aVoriented
p353
aVwave
p354
aVequation
p355
aVmigration
p356
aVvelocity
p357
aVanalysis
p358
aV3d
p359
aVfield
p360
aVdata
p361
aVexample
p362
aVaccelerated
p363
aVplane
p364
aVwave
p365
aVdestruction
p366
aVresidual
p367
aVstatics
p368
aVestimation
p369
aVsparsity
p370
aVmaximization
p371
aVfast
p372
aVreduced
p373
aVrank
p374
aVinterpolation
p375
aVmethod
p376
aVprestack
p377
aVseismic
p378
aVvolumes
p379
aVdepend
p380
aVspatial
p381
aVdimensions
p382
aVenhancing
p383
aVresolution
p384
aVnonstationary
p385
aVseismic
p386
aVdata
p387
aVmolecular
p388
aVgabor
p389
aVtransform
p390
a.