(lp0
VThe Netherlands
p1
aVUSA
p2
aVUSA
p3
aVCanada
p4
aVAustralia
p5
aVNorway
p6
aVSaudi Arabia
p7
aVChina
p8
aVChina
p9
aVUSA
p10
aVUSA
p11
aVChina
p12
aVCanada
p13
aVChina
p14
aVCanada
p15
aVChina
p16
aVUSA
p17
aVChina
p18
aVChina
p19
aVChina
p20
aVChina
p21
aVChina
p22
aVUSA
p23
aVUnited Arab Emirates
p24
aVUSA
p25
aVUSA
p26
aVUSA
p27
aVChina
p28
aVChina
p29
aVUSA
p30
aVUSA
p31
aVFrance
p32
aVUSA
p33
aVChina
p34
aVUSA
p35
aVChina
p36
aVUSA.
p37
aVItaly
p38
aVItaly
p39
aVCanada
p40
aVCanada
p41
aVCanada
p42
aVUSA
p43
aVChina
p44
aVCanada
p45
aVDenmark
p46
aVUSA
p47
aVBrazil
p48
aVBrazil
p49
aVBrazil
p50
aVBrazil
p51
aVBrazil
p52
aVBrazil
p53
aVUSA
p54
aVChina
p55
aVUSA
p56
aVUSA
p57
aVChina
p58
aVChina
p59
aVChina
p60
aVUK
p61
aVUK
p62
aVUSA
p63
aVUSA
p64
aVUSA
p65
aVUSA
p66
aVThe Netherlands
p67
aVUSA
p68
aVIsrael
p69
aVChina
p70
aVChina
p71
aVChina
p72
aVChina
p73
aVUSA
p74
aVUSA
p75
aVChina
p76
aVChina
p77
aVUSA
p78
aVChina
p79
aVChina
p80
aVChina
p81
aVChina
p82
aVBrazil
p83
aVBrazil
p84
aVBrazil
p85
aVCanada
p86
aVColombia
p87
aVCanada
p88
aVUSA
p89
aVUSA
p90
aVUSA
p91
aVUSA
p92
aVUSA
p93
aVUSA
p94
a.