(lp0
Vissue
p1
aVgeophysics
p2
aVrole
p3
aVmultiples
p4
aVmarchenko
p5
aVimaging
p6
aVprestack
p7
aVwaveform
p8
aVinversion
p9
aVdimensional
p10
aVseismic
p11
aVdata
p12
aVexample
p13
aVrock
p14
aVsprings
p15
aVuplift
p16
aVwyoming
p17
aVusa
p18
aVseismic
p19
aVcharacterization
p20
aVheavy
p21
aVoil
p22
aVreservoir
p23
aVthermal
p24
aVproduction
p25
aVcase
p26
aVstudy
p27
aVinversion
p28
aVultrasonic
p29
aVdata
p30
aVtransversely
p31
aVisotropic
p32
aVmedia
p33
aVacoustic
p34
aVeikonal
p35
aVequation
p36
aVattenuating
p37
aVtransversely
p38
aVisotropic
p39
aVmedia
p40
aVvertical
p41
aVsymmetry
p42
aVaxis
p43
aVazimuthal
p44
aVavo
p45
aVtilted
p46
aVti
p47
aVmedium
p48
aVtheoretical
p49
aVinvestigation
p50
aVacoustic
p51
aVmonopole
p52
aVlogging
p53
aVdrilling
p54
aVindividual
p55
aVwaves
p56
aVemphasis
p57
aVcollar
p58
aVwave
p59
aVdependence
p60
aVformation
p61
aVjoint
p62
aVpetrophysical
p63
aVinterpretation
p64
aVmultidetector
p65
aVnuclear
p66
aVmeasurements
p67
aVpresence
p68
aVinvasion
p69
aVshoulder
p70
aVbed
p71
aVdeviation
p72
aVeffects
p73
aV3d
p74
aVvector
p75
aVfinite
p76
aVelement
p77
aVelectromagnetic
p78
aVforward
p79
aVmodeling
p80
aVlarge
p81
aVloop
p82
aVsources
p83
aVusing
p84
aVtotal
p85
aVfield
p86
aValgorithm
p87
aVunstructured
p88
aVtetrahedral
p89
aVgrids
p90
aVhybridizing
p91
aVsemianalytical
p92
aVconventional
p93
aVfinite
p94
aVelement
p95
aVschemes
p96
aVsimulations
p97
aVelectromagnetic
p98
aVborehole
p99
aVresistivity
p100
aVmeasurement
p101
aVmapping
p102
aVdeeply
p103
aVburied
p104
aVkarst
p105
aVcavities
p106
aVusing
p107
aVcontrolled
p108
aVsource
p109
aVaudio
p110
aVmagnetotellurics
p111
aVcase
p112
aVhistory
p113
aVtunnel
p114
aVinvestigation
p115
aVsouthwest
p116
aVchina
p117
aVgadolinium
p118
aVtracers
p119
aVenhancement
p120
aVsigma
p121
aVlog
p122
aVcontrast
p123
aVmeasurements
p124
aVinstantaneous
p125
aVfrequency
p126
aVphase
p127
aVunwrapping
p128
aVbayesian
p129
aVapproach
p130
aVmodeling
p131
aV2d
p132
aVgravity
p133
aVdata
p134
aVusing
p135
aVpolygons
p136
aVprediction
p137
aVresidual
p138
aVoil
p139
aVsaturation
p140
aVusing
p141
aVratio
p142
aVamplitude
p143
aVattributes
p144
aVtime
p145
aVlapse
p146
aVseismic
p147
aVdata
p148
aVsimultaneous
p149
aVmultiple
p150
aVseismic
p151
aVties
p152
aVusing
p153
aVflattened
p154
aVsynthetic
p155
aVreal
p156
aVseismograms
p157
aVestimating
p158
aVgeomechanical
p159
aVparameters
p160
aVmicroseismic
p161
aVplane
p162
aVfocal
p163
aVmechanisms
p164
aVrecorded
p165
aVmultistage
p166
aVhydraulic
p167
aVfracturing
p168
aVrock
p169
aVphysics
p170
aVdiagnostics
p171
aVturbidite
p172
aVoil
p173
aVreservoir
p174
aVoffshore
p175
aVnorthwest
p176
aVaustralia
p177
aVassessment
p178
aVdifferent
p179
aVapproaches
p180
aVrock
p181
aVphysics
p182
aVmodeling
p183
aVcase
p184
aVstudy
p185
aVoffshore
p186
aVnile
p187
aVdelta
p188
aVmodeling
p189
aVanisotropic
p190
aVstatic
p191
aVelastic
p192
aVproperties
p193
aVsoft
p194
aVmudrocks
p195
aVdifferent
p196
aVclay
p197
aVfractions
p198
aVcomparison
p199
aVbitumen
p200
aVsands
p201
aVbitumen
p202
aVcarbonates
p203
aVmeasured
p204
aVdata
p205
aVclay
p206
aVsquirt
p207
aVlocal
p208
aVflow
p209
aVdispersion
p210
aVshale
p211
aVbearing
p212
aVsandstones
p213
aVporosity
p214
aVpermeability
p215
aVrelationship
p216
aVdual
p217
aVporosity
p218
aVcarbonate
p219
aVanalogs
p220
aVestimation
p221
aVquality
p222
aVfactor
p223
aVbased
p224
aVpeak
p225
aVfrequency
p226
aVshift
p227
aVmethod
p228
aVredatuming
p229
aVoperator
p230
aVapplication
p231
aVreal
p232
aVdata
p233
aVset
p234
aVfracture
p235
aVclustering
p236
aVeffect
p237
aVamplitude
p238
aVvariation
p239
aVoffset
p240
aVazimuth
p241
aVanalyses
p242
aVimproved
p243
aVcylindrical
p244
aVsurface
p245
aVfitting
p246
aVrelated
p247
aVmethod
p248
aVfault
p249
aVcharacterization
p250
aVestimating
p251
aVfrequency
p252
aVdependent
p253
aVattenuation
p254
aVquality
p255
aVfactor
p256
aVvalues
p257
aVprestack
p258
aVsurface
p259
aVseismic
p260
aVdata
p261
aVdetecting
p262
aVknown
p263
aVnear
p264
aVsurface
p265
aVtarget
p266
aVapplication
p267
aVfrequency
p268
aVdependent
p269
aVtraveltime
p270
aVtomography
p271
aVwaveform
p272
aVinversion
p273
aVp
p274
aVsh
p275
aVwave
p276
aVseismic
p277
aVrefraction
p278
aVdata
p279
aVaccounting
p280
aVfree
p281
aVsurface
p282
aVmultiples
p283
aVmarchenko
p284
aVimaging
p285
aValternative
p286
aVformula
p287
aVapproximate
p288
aVextended
p289
aVborn
p290
aVinversion
p291
aVshallow
p292
aVdiffraction
p293
aVimaging
p294
aVsh
p295
aVwave
p296
aVcrosshole
p297
aVconfiguration
p298
aVreverse
p299
aVtime
p300
aVmigration
p301
aVmultiples
p302
aVbased
p303
aVdifferent
p304
aVorder
p305
aVmultiple
p306
aVseparation
p307
aVclassical
p308
aVreflectivity
p309
aVvelocity
p310
aVinversion
p311
aVwaveform
p312
aVinversion
p313
aVusing
p314
aVphase
p315
aVmodified
p316
aVdeconvolved
p317
aVreverse
p318
aVtime
p319
aVmigration
p320
aVimages
p321
aVanalytical
p322
aVpath
p323
aVsummation
p324
aVimaging
p325
aVseismic
p326
aVdiffractions
p327
aVdispersion
p328
aVrelation
p329
aVpreserving
p330
aVstereo
p331
aVmodeling
p332
aVmethod
p333
aVnyquist
p334
aVfrequency
p335
aVacoustic
p336
aVwave
p337
aVequation
p338
aVgeneralized
p339
aVstaining
p340
aValgorithm
p341
aVseismic
p342
aVmodeling
p343
aVmigration
p344
aVoptimal
p345
aVstaggered
p346
aVgrid
p347
aVfinite
p348
aVdifference
p349
aVschemes
p350
aVbased
p351
aVminimax
p352
aVapproximation
p353
aVmethod
p354
aVremez
p355
aValgorithm
p356
aVnearly
p357
aVanalytic
p358
aVdiscrete
p359
aVmethod
p360
aVsolving
p361
aVacoustic
p362
aVwave
p363
aVequations
p364
aVfrequency
p365
aVdomain
p366
aVcombined
p367
aVtime
p368
aVfrequency
p369
aVfiltering
p370
aVstrategy
p371
aVq
p372
aVfactor
p373
aVcompensation
p374
aVpoststack
p375
aVseismic
p376
aVdata
p377
aVapplications
p378
aVhigh
p379
aVresolution
p380
aVtime
p381
aVfrequency
p382
aVtransforms
p383
aVattenuation
p384
aVestimation
p385
aVexploiting
p386
aVsurface
p387
aVconsistency
p388
aVsurface
p389
aVwave
p390
aVcharacterization
p391
aVmitigation
p392
aV1
p393
aVtheory
p394
aV2d
p395
aVexamples
p396
aVexploiting
p397
aVsurface
p398
aVconsistency
p399
aVsurface
p400
aVwave
p401
aVcharacterization
p402
aVmitigation
p403
aV2
p404
aVapplication
p405
aV3d
p406
aVdata
p407
a.