(lp0
VCanada
p1
aVBrazil
p2
aVBrazil
p3
aVUSA
p4
aVChina
p5
aVBelgium
p6
aVBelgium
p7
aVBelgium
p8
aVBelgium
p9
aVNorway
p10
aVNorway
p11
aVNorway
p12
aVUSA
p13
aVUSA
p14
aVUSA
p15
aVUSA
p16
aVItaly
p17
aVArgentina
p18
aVArgentina
p19
aVUSA.
p20
aVNorway
p21
aVNorway
p22
aVCanada
p23
aVU. K.
p24
aVCanada
p25
aVU. K.
p26
aVU. K.
p27
aVU. K.
p28
aVKorea
p29
aVChina
p30
aVChina
p31
aVUSA
p32
aVUSA
p33
aVUSA
p34
aVThe Netherlands
p35
aVUSA
p36
aVThe Netherlands
p37
aVUSA
p38
aVFrance
p39
aVUSA
p40
aVUSA
p41
aVUSA
p42
aVUSA
p43
aVU.K
p44
aVUSA
p45
aVGreece
p46
aVCanada
p47
aVUSA
p48
aVDenmark
p49
aVUSA
p50
aVUSA
p51
aVUSA
p52
aVDenmark
p53
aVDenmark
p54
aVUSA
p55
aVUSA
p56
aVUSA
p57
aVChina
p58
aVThe Netherlands
p59
aVThe Netherlands
p60
aVThe Netherlands
p61
aVUSA
p62
aVUSA
p63
aVUSA
p64
aVU. K
p65
aVUSA
p66
aVUSA
p67
aVUSA
p68
aVUSA
p69
aVFrance
p70
aVUSA
p71
aVUSA
p72
aVUSA
p73
aVUSA
p74
aVSwitzerland
p75
aVNetherlands
p76
aVSwitzerland
p77
aVGermany
p78
aVSwitzerland
p79
aVSwitzerland
p80
aVSwitzerland
p81
aVSwitzerland
p82
aVAustralia
p83
aVUSA
p84
aVUSA
p85
aVUSA
p86
aVChina
p87
aVChina
p88
aVThe Netherlands
p89
aVChina
p90
aVChina
p91
aVUSA
p92
aVSaudi Arabia
p93
aVBrazil
p94
aVUSA
p95
aVUSA
p96
aVUSA
p97
aVUSA
p98
aVUSA
p99
aVUSA
p100
aVNorway
p101
aVUSA
p102
aVCanada
p103
aVFrance
p104
aVSpain
p105
aVSpain
p106
aVNorway
p107
aVUkraine
p108
aVCanada
p109
aVChina
p110
aVChina
p111
aVCanada
p112
aVUSA
p113
aVUSA
p114
aVCanada
p115
aVSwitzerland
p116
a.