(lp0
Vr
p1
aVc
p2
aVl
p3
aVe
p4
aVh
p5
ag4
aVe
p6
ag1
aVf
p7
aVg
p8
ag4
aVp
p9
ag5
ag2
ag9
ag1
aVv
p10
ag4
aVn
p11
ag10
ag4
ag1
ag10
ag4
aVw
p12
ag7
ag3
ag3
ag4
ag2
ag5
ag11
ag2
ag3
ag1
ag2
ag3
ag4
ag11
ag5
aVu
p13
ag4
ag7
ag5
ag4
aVj
p14
ag13
ag1
ag11
ag3
ag4
ag1
aVb
p15
ag1
ag11
ag4
ag4
ag11
ag4
ag3
ag4
ag2
ag1
aVg
p16
ag11
ag4
ag2
aVe
p17
ag10
ag4
ag1
ag9
ag1
ag9
ag5
ag1
ag4
ag9
ag11
ag2
ag4
ag11
ag1
ag3
aVb
p18
ag1
ag5
aVc
p19
ag3
ag13
ag15
aVc
p20
ag11
ag11
ag1
ag4
ag2
ag10
ag4
ag1
ag4
ag5
ag4
aV3
p21
ag4
ag3
ag4
ag2
ag1
ag2
ag3
ag2
ag11
ag13
ag2
ag10
ag1
ag13
ag2
ag13
ag1
ag4
aVf
p22
ag13
ag3
ag3
ag21
ag11
ag10
ag4
ag1
ag11
ag12
ag1
ag4
aVq
p23
ag13
ag1
ag4
ag15
ag4
ag2
ag13
ag4
ag7
ag5
ag4
ag2
ag1
ag2
ag13
ag3
ag1
ag16
ag4
ag4
ag1
ag7
ag5
ag4
ag4
ag9
ag9
ag2
ag3
ag11
ag3
ag12
ag5
ag2
ag5
ag13
ag4
ag5
ag16
ag4
ag11
ag4
ag13
ag1
ag3
ag4
ag1
ag4
ag4
ag1
ag5
ag9
ag1
ag13
ag2
ag4
ag2
ag11
ag13
ag2
ag10
ag4
ag1
ag7
ag2
ag5
ag1
ag4
ag2
ag11
ag1
ag1
ag16
ag4
ag3
ag16
ag2
ag4
aVx
p24
ag9
ag4
ag2
ag11
ag11
ag5
ag4
ag2
ag4
ag24
ag9
ag3
ag4
ag5
ag12
ag4
ag5
ag5
ag4
ag3
ag4
ag11
ag16
ag1
ag7
ag2
ag1
ag4
ag15
ag13
ag11
ag16
aV1
p25
ag3
ag4
ag1
ag4
ag4
ag1
ag5
ag11
ag5
ag21
ag11
ag10
ag4
ag1
ag11
ag2
ag11
ag13
ag2
ag2
ag4
ag7
ag13
ag3
ag3
ag3
ag10
ag4
ag5
ag4
ag9
ag1
ag15
ag3
ag4
aVb
p26
ag4
ag2
ag13
ag4
ag7
ag5
ag4
ag2
ag9
ag13
ag11
ag3
ag2
ag5
ag3
ag3
ag4
ag11
ag16
ag4
ag7
ag3
ag10
ag11
ag16
ag5
ag4
ag21
ag11
ag10
ag4
ag1
ag11
ag12
ag5
ag11
ag1
ag11
ag4
ag1
ag7
ag1
ag15
ag1
ag11
ag4
ag13
ag1
ag10
ag4
ag12
ag4
ag11
ag1
ag13
ag2
ag4
ag12
ag1
aVk
p27
ag7
ag3
ag12
ag5
ag13
ag4
ag13
ag3
ag4
ag5
ag1
ag4
ag16
ag5
ag11
ag3
ag4
ag5
ag4
ag7
ag4
ag3
ag11
ag13
ag1
ag11
ag10
ag4
ag1
ag11
ag2
ag1
ag4
ag4
ag5
ag11
ag3
ag3
ag11
ag13
ag15
ag4
ag1
ag7
ag13
ag11
ag11
ag16
ag1
ag4
ag7
ag1
ag13
ag4
ag1
ag9
ag3
ag1
ag4
ag2
ag11
ag1
ag13
ag2
ag3
ag1
ag16
ag4
ag2
ag3
ag4
ag1
ag15
ag13
ag11
ag7
ag2
ag11
ag13
ag2
ag10
ag5
ag4
ag4
ag5
ag5
ag4
ag11
ag1
ag4
ag7
ag11
ag4
ag11
ag1
ag4
ag13
ag11
ag11
ag16
ag1
ag4
ag11
ag2
ag1
ag9
ag1
ag4
ag15
ag4
ag4
ag1
ag1
ag4
ag3
ag10
ag4
ag3
ag3
ag2
ag3
ag4
ag7
ag4
ag13
ag1
ag4
ag5
ag1
ag4
ag16
ag16
ag11
ag7
ag2
ag11
ag3
ag1
ag4
ag2
ag11
ag2
ag11
ag7
ag5
ag1
ag2
ag1
ag15
ag11
ag2
ag2
ag13
ag1
ag1
ag4
ag11
ag2
ag4
ag11
aVr
p28
ag4
ag11
aVf
p29
ag16
ag1
ag4
ag11
aVg
p30
ag4
ag1
ag4
aVb
p31
ag1
aVz
p32
ag3
ag12
ag5
ag4
ag4
ag24
ag4
ag11
ag2
ag4
ag7
ag2
ag1
ag4
ag4
ag9
ag16
ag4
aVh
p33
ag12
ag4
ag10
ag4
ag1
aVq
p34
ag13
ag4
ag1
ag11
ag1
ag4
ag4
ag11
ag1
ag2
ag10
ag4
ag1
ag11
ag5
ag4
ag1
ag4
ag4
ag5
ag4
ag4
ag11
ag7
ag2
ag11
ag7
ag11
ag4
ag12
ag2
ag2
ag13
ag1
ag1
ag4
ag11
ag2
ag4
ag11
ag2
ag4
ag2
ag11
ag1
ag3
ag3
ag11
ag16
ag1
ag13
ag2
ag13
ag1
ag4
ag23
ag13
ag4
ag7
ag7
ag2
ag13
ag3
ag5
ag13
ag11
ag10
ag4
ag16
ag4
ag5
ag4
ag9
ag3
ag1
ag15
ag13
ag11
ag7
ag5
ag1
ag2
ag1
ag15
ag11
ag1
ag4
ag3
ag4
ag16
ag4
ag11
ag5
ag3
ag3
ag12
ag4
ag1
ag11
ag1
ag4
ag4
ag11
ag1
ag4
ag9
ag5
ag11
aVr
p35
ag4
ag11
aVf
p36
ag16
ag1
ag4
ag13
ag11
ag16
ag1
ag15
ag1
ag11
ag4
ag16
ag1
ag9
ag4
ag2
ag1
ag4
ag1
ag11
ag16
ag11
ag4
ag2
ag5
ag4
ag16
ag4
ag9
ag5
ag2
ag3
ag12
ag4
ag1
ag4
ag9
ag1
ag2
ag4
ag4
ag13
ag11
ag16
ag4
ag2
ag5
ag11
ag23
ag13
ag4
ag4
ag16
ag11
ag4
ag13
ag9
ag9
ag1
ag4
ag5
ag4
ag11
ag7
ag3
ag13
ag4
ag11
ag2
ag4
ag7
ag1
ag4
ag16
ag11
ag3
ag16
ag4
ag3
ag16
ag2
ag3
ag16
ag11
ag13
ag1
ag4
aVk
p37
ag11
ag12
ag11
ag11
ag9
ag15
ag3
ag4
ag11
ag4
ag12
ag2
ag2
ag13
ag1
ag1
ag4
ag11
ag2
ag4
ag7
ag2
ag1
ag4
ag4
ag9
ag16
ag4
ag12
ag4
ag1
ag4
ag4
ag4
ag2
ag4
ag15
ag9
ag9
ag11
ag16
ag3
ag12
ag1
ag4
ag13
ag3
ag9
ag13
ag10
ag3
ag13
ag4
ag11
ag5
ag16
ag5
ag13
ag1
ag11
ag13
ag1
ag4
ag13
ag3
ag10
ag3
ag13
ag4
ag11
ag1
ag4
ag3
ag11
ag9
ag13
ag4
ag1
ag4
aVr
p38
ag10
ag3
ag13
ag4
ag12
ag5
ag2
ag5
ag1
ag4
ag13
ag3
ag4
ag7
ag1
ag5
ag4
ag13
ag15
ag1
ag2
ag11
ag7
ag9
ag13
ag7
ag1
ag13
ag1
ag11
ag13
ag1
ag4
ag13
ag3
ag10
ag3
ag13
ag4
ag13
ag11
ag16
ag5
ag1
ag13
ag5
ag11
ag1
ag3
ag32
ag11
ag16
ag9
ag9
ag1
ag2
ag5
ag5
ag4
ag10
ag3
ag11
ag7
ag5
ag4
ag4
ag2
ag2
ag13
ag1
ag1
ag4
ag11
ag2
ag4
ag12
ag11
ag4
ag15
ag4
ag11
ag4
ag24
ag11
ag16
ag16
ag16
ag4
ag2
ag5
ag4
ag1
ag11
ag5
ag4
ag16
ag11
ag16
ag2
ag5
ag3
ag3
ag4
ag11
ag16
ag11
ag16
ag11
ag5
ag4
aVb
p39
ag5
aVb
p40
aVp
p41
aVl
p42
ag25
aV9
p43
ag21
ag1
ag4
ag7
ag7
ag5
ag1
ag4
aVc
p44
ag5
ag11
aVb
p45
ag5
aVb
p46
aVf
p47
ag4
ag3
ag4
ag2
ag3
ag3
ag15
ag2
ag13
ag1
ag4
ag27
ag11
ag16
ag12
ag4
ag3
ag3
ag9
ag4
ag11
ag4
ag1
ag11
ag5
ag4
ag11
ag3
ag1
ag4
ag3
ag15
ag3
ag4
ag13
ag1
ag2
ag4
ag7
ag7
ag1
ag13
ag15
ag13
ag1
ag7
ag2
ag4
ag11
ag4
ag1
ag9
ag1
ag4
ag11
aVw
p48
ag5
ag5
ag4
ag5
ag4
ag3
ag9
ag7
ag13
ag1
ag11
ag11
ag16
ag1
ag16
ag1
ag9
ag5
ag12
ag4
ag1
ag4
ag15
ag3
ag4
ag15
ag11
ag1
ag4
ag3
ag15
ag3
ag4
ag11
ag4
ag1
ag13
ag1
ag7
ag2
ag4
ag10
ag4
ag3
ag2
ag4
ag3
ag9
ag9
ag1
ag24
ag4
ag3
ag12
ag11
aV7
p49
aV0
p50
ag50
ag15
ag4
ag3
ag12
ag4
ag3
ag4
ag10
ag4
ag3
ag13
ag11
ag16
ag5
ag4
ag7
ag1
ag1
ag1
ag10
ag3
ag9
ag2
ag27
ag4
ag7
ag1
ag1
ag4
ag4
ag1
ag4
ag9
ag5
ag16
ag1
ag11
ag13
ag11
ag16
ag10
ag4
ag3
ag2
ag4
ag4
ag4
ag7
ag1
ag13
ag1
ag11
ag11
ag16
ag1
ag16
ag1
ag9
ag5
ag5
ag9
ag1
ag10
ag4
ag5
ag3
ag3
ag12
ag1
ag13
ag2
ag13
ag1
ag4
ag11
ag7
ag13
ag3
ag4
ag7
ag11
ag11
aVh
p51
ag12
ag4
ag10
ag4
ag1
ag1
ag4
ag4
ag1
ag10
ag1
ag3
ag4
ag10
ag4
ag3
ag1
ag13
ag2
ag13
ag1
ag4
ag7
ag1
aV8
p52
ag50
ag50
ag25
aV5
p53
ag50
ag50
ag1
ag4
ag3
ag3
ag9
ag1
ag3
ag16
ag4
ag10
ag2
ag4
ag3
ag2
ag4
ag3
ag11
ag16
ag13
ag12
ag5
ag16
ag11
ag4
ag10
ag1
ag15
ag3
ag4
aVq
p54
ag11
ag5
ag3
ag3
ag12
ag10
ag4
ag3
ag2
ag9
ag1
ag7
ag3
ag4
ag12
ag5
ag11
ag12
ag5
ag13
ag5
ag3
ag3
ag12
ag16
ag11
ag13
ag2
ag4
ag2
ag4
ag1
ag4
ag1
ag4
ag11
ag1
ag4
ag5
ag2
ag4
ag1
ag11
ag16
ag5
ag4
ag9
ag1
ag1
ag2
ag11
ag1
ag3
ag3
ag11
ag16
ag9
ag5
ag4
ag11
ag4
ag11
ag11
ag2
ag13
ag11
ag16
ag16
ag11
ag16
ag7
ag7
ag2
ag13
ag3
ag12
ag5
ag11
ag5
ag4
ag15
ag2
ag13
ag1
ag4
ag32
ag11
ag4
ag13
ag4
ag2
ag4
ag1
ag11
ag16
ag16
ag11
ag16
ag4
ag5
ag4
ag1
ag16
ag4
ag3
ag4
ag10
ag4
ag3
ag12
ag4
ag1
ag4
ag13
ag11
ag13
ag2
ag2
ag4
ag7
ag13
ag3
ag4
ag10
ag4
ag11
ag12
ag5
ag9
ag1
ag4
ag2
ag4
ag27
ag11
ag12
ag3
ag4
ag16
ag4
ag7
ag10
ag4
ag3
ag2
ag1
ag2
ag27
ag23
ag13
ag7
ag4
ag1
ag7
ag1
ag2
ag13
ag1
ag4
ag32
ag11
ag4
ag2
ag11
ag13
ag4
ag4
ag23
ag13
ag4
ag1
ag11
ag27
ag11
ag16
ag12
ag4
ag1
ag4
ag24
ag9
ag3
ag11
ag1
ag4
ag15
ag13
ag3
ag9
ag4
ag11
ag3
ag2
ag11
ag11
ag11
ag9
ag5
ag11
ag4
ag2
ag1
ag2
ag3
ag13
ag4
ag11
ag5
ag1
ag16
ag4
ag3
ag16
ag2
ag3
ag1
ag4
ag4
ag1
ag2
ag5
ag4
ag11
ag7
ag2
ag5
ag1
ag2
ag4
ag1
ag32
ag4
ag11
ag11
ag1
ag13
ag2
ag5
ag7
ag1
ag2
ag13
ag1
ag4
ag32
ag11
ag4
ag1
ag4
ag9
ag1
ag4
ag4
ag11
ag10
ag4
ag2
ag3
ag4
ag1
ag2
ag4
ag1
ag4
ag11
ag1
ag4
ag12
ag5
ag13
ag1
ag7
ag2
ag4
ag4
ag3
ag4
ag2
ag1
ag2
ag3
ag1
ag4
ag10
ag16
ag1
ag9
ag5
aVe
p55
aVr
p56
ag2
ag13
ag3
ag5
ag4
ag3
ag9
ag15
ag4
ag3
ag11
ag4
ag11
ag16
ag13
ag2
ag5
ag9
ag1
ag4
ag7
ag4
ag1
ag4
ag11
ag3
ag7
ag3
ag12
ag9
ag5
ag11
ag4
ag11
ag16
ag11
ag2
ag9
ag1
ag9
ag4
ag1
ag4
ag7
ag5
ag4
ag23
ag13
ag7
ag4
ag1
aVh
p57
ag12
ag4
ag10
ag4
ag1
ag13
ag3
ag9
ag3
ag4
ag2
ag5
ag3
ag3
ag4
ag11
ag16
ag4
ag4
ag24
ag11
ag2
ag3
ag13
ag11
ag16
ag5
ag4
ag3
ag12
ag4
ag1
ag1
ag4
ag3
ag13
ag11
ag7
ag13
ag1
ag7
ag2
ag4
aVe
p58
aVr
p59
ag2
ag9
ag1
ag4
ag12
ag5
ag2
ag1
ag5
ag3
ag4
aVe
p60
aVr
p61
ag5
ag4
ag7
ag11
ag4
ag4
ag5
ag11
ag4
ag4
ag4
ag2
ag9
ag3
ag4
ag4
ag11
ag4
ag11
ag1
ag4
ag2
ag23
ag13
ag11
ag11
ag5
ag4
ag1
ag11
ag16
ag3
ag13
ag11
ag4
ag7
ag7
ag4
ag2
aVw
p62
ag4
ag2
ag11
ag13
ag2
ag4
ag11
ag13
ag1
ag3
ag16
ag1
ag4
ag11
ag3
ag1
ag2
ag4
ag1
ag4
ag11
ag7
ag1
ag2
ag13
ag1
ag4
ag3
ag4
ag11
ag4
ag2
ag2
ag13
ag11
ag7
ag1
ag5
ag4
ag5
ag16
ag5
ag1
ag11
ag9
ag1
ag10
ag4
ag3
ag2
ag12
ag4
ag11
ag14
ag4
ag2
ag4
ag5
ag4
ag3
ag1
ag2
ag4
ag1
ag2
ag11
ag11
ag13
ag13
ag3
ag7
ag1
ag7
ag13
ag1
ag5
ag13
ag1
ag4
ag9
ag5
ag7
ag25
ag52
aVw
p63
ag4
ag11
ag1
ag4
ag9
ag1
ag9
ag16
ag11
ag12
ag5
ag12
ag9
ag1
ag3
ag3
ag4
ag3
aVe
p64
aVr
p65
ag9
ag1
ag7
ag3
ag4
ag9
ag4
ag1
ag9
ag4
ag11
ag2
ag13
ag3
ag1
ag5
ag4
ag16
ag1
ag13
ag11
ag12
ag4
ag1
ag7
ag3
ag12
ag1
ag4
ag2
ag11
aVc
p66
ag11
ag2
ag4
ag1
ag11
ag11
ag16
ag5
ag4
ag2
ag23
ag13
ag11
ag12
ag4
ag3
ag12
ag7
ag2
ag13
ag4
ag21
ag9
ag3
ag13
ag4
ag10
ag1
ag11
ag12
ag5
ag7
ag7
ag4
aVv
p67
ag7
ag1
ag5
ag4
ag3
ag10
ag5
ag4
ag7
ag4
ag3
ag11
ag5
ag4
aVn
p68
ag1
ag5
ag4
ag1
ag4
ag11
ag10
ag4
ag1
ag4
ag11
ag3
ag5
ag3
ag16
ag7
ag3
ag13
ag2
ag3
ag4
ag4
ag3
ag2
ag9
ag1
ag9
ag4
ag1
ag4
ag11
ag9
ag1
aVl
p69
ag5
ag3
ag16
ag7
ag3
ag13
ag9
ag10
ag4
ag1
ag5
ag1
ag2
ag1
ag15
ag11
ag9
ag1
ag9
ag4
ag2
ag9
ag1
ag10
ag4
ag1
ag4
ag1
ag4
ag3
ag15
ag3
ag4
ag4
ag4
ag7
ag16
ag3
ag10
ag3
ag13
ag4
ag11
ag9
ag1
ag10
ag4
ag5
ag4
ag4
ag2
ag11
ag2
ag11
ag2
ag4
ag1
ag11
ag11
ag16
ag7
ag13
ag1
ag5
ag4
ag1
ag1
ag4
ag4
ag1
ag10
ag1
ag4
ag4
ag11
ag5
ag4
ag3
ag10
ag5
ag4
ag7
ag4
ag3
ag7
ag13
ag1
ag15
ag4
ag1
ag16
ag11
ag12
ag5
ag2
ag9
ag3
ag4
ag24
ag11
ag3
ag15
ag4
ag16
ag4
ag4
ag1
ag11
ag9
ag9
ag4
ag1
ag12
ag5
ag13
ag2
ag3
ag4
ag1
ag7
ag3
ag13
ag2
ag11
ag2
ag2
ag1
ag5
ag4
ag7
ag4
ag3
ag5
ag4
ag11
ag10
ag4
ag1
ag11
ag9
ag5
ag1
ag4
ag11
aVb
p70
ag4
ag11
ag4
ag11
ag16
ag5
ag4
ag3
ag27
ag4
ag3
ag5
ag4
ag3
ag2
ag11
ag11
ag2
ag11
ag10
ag3
ag13
ag11
ag3
ag3
ag11
ag4
ag1
ag32
ag4
ag4
ag2
ag4
ag3
ag11
ag1
ag2
ag27
ag9
ag5
ag2
ag4
ag3
ag5
ag2
ag9
ag13
ag1
ag4
ag10
ag4
ag1
ag2
ag3
ag1
ag4
ag11
ag13
ag4
ag11
ag2
ag1
ag4
ag4
ag11
ag2
ag9
ag2
ag11
ag11
ag9
ag15
ag3
ag4
ag2
ag4
ag4
ag11
ag11
ag5
ag4
ag3
ag27
ag4
ag3
ag5
ag4
ag3
ag2
ag11
ag11
ag4
ag10
ag4
ag1
ag3
ag16
ag3
ag15
ag3
ag4
ag3
ag9
ag1
ag4
ag4
ag1
ag5
ag1
ag4
ag2
ag11
ag4
ag1
ag4
ag15
ag4
ag2
ag5
ag2
ag9
ag5
ag4
ag4
ag3
ag5
ag4
ag7
ag4
ag3
ag13
ag11
ag4
ag1
ag13
ag11
ag11
ag2
ag3
ag13
ag4
ag4
ag3
ag13
ag11
ag2
ag4
ag1
ag11
ag11
ag5
ag4
ag13
ag11
ag2
ag4
ag1
ag11
ag4
ag4
ag11
ag5
ag4
ag9
ag1
ag1
ag4
ag3
ag11
ag5
ag4
ag3
ag5
ag3
ag16
ag7
ag3
ag13
ag2
ag3
ag4
ag1
ag27
ag10
ag1
ag11
ag7
ag4
ag3
ag5
ag2
ag9
ag13
ag1
ag4
ag3
ag2
ag3
ag10
ag4
ag1
ag2
ag3
ag5
ag1
ag32
ag11
ag16
ag11
ag16
ag11
ag13
ag3
ag1
ag5
ag3
ag3
ag12
ag3
ag53
ag50
ag4
ag11
ag10
ag1
ag11
ag4
ag11
ag9
ag1
ag4
ag4
ag11
ag12
ag7
ag3
ag2
ag5
ag3
ag3
ag4
ag11
ag16
ag4
ag25
ag2
ag10
ag3
ag15
ag3
ag4
ag7
ag1
ag4
ag9
ag5
ag16
ag1
ag11
ag10
ag4
ag1
ag3
ag4
ag11
aV2
p71
ag2
ag11
ag10
ag4
ag11
ag11
ag3
ag4
ag9
ag1
ag2
ag4
ag11
ag16
ag12
ag5
ag3
ag4
ag2
ag16
ag4
ag11
ag4
ag1
ag3
ag3
ag7
ag3
ag4
ag4
ag1
ag4
ag3
ag15
ag3
ag4
ag10
ag4
ag3
ag2
ag4
ag3
ag7
ag1
ag4
ag9
ag5
ag16
ag1
ag11
aVw
p72
ag4
ag13
ag4
ag5
ag4
ag2
ag15
ag11
ag11
ag16
ag7
ag7
ag1
ag1
ag1
ag10
ag3
ag1
ag10
ag4
ag3
ag4
ag11
ag10
ag4
ag1
ag11
ag11
ag9
ag1
ag4
ag2
ag27
ag4
ag9
ag5
ag16
ag1
ag11
aVp
p73
ag7
ag1
ag4
ag9
ag5
ag16
ag11
ag16
ag7
ag13
ag3
ag1
ag5
ag3
ag3
ag12
ag9
ag3
ag4
ag2
ag5
ag11
ag11
ag4
ag3
ag1
ag16
ag1
ag9
ag5
ag2
ag4
ag12
ag5
ag5
ag4
aVb
p74
ag13
ag3
ag3
aVc
p75
ag1
ag4
ag4
ag27
ag1
ag11
ag16
ag4
ag4
ag27
ag3
ag5
aVr
p76
ag4
ag1
ag2
ag4
ag15
ag3
ag4
ag11
ag13
ag15
ag4
ag1
ag7
ag16
ag4
ag9
ag5
ag11
ag4
ag71
aV4
p77
ag12
ag4
ag2
ag23
ag13
ag1
ag4
ag7
ag1
ag11
ag10
ag4
ag1
ag11
ag11
ag16
ag1
ag11
ag5
ag1
ag13
ag16
ag5
ag12
ag2
ag11
ag2
ag4
ag11
ag9
ag1
ag7
ag3
ag4
ag5
ag4
ag7
ag1
ag9
ag1
ag7
ag3
ag4
ag7
ag1
ag11
ag10
ag4
ag1
ag11
ag5
ag12
ag4
ag1
ag13
ag1
ag10
ag4
ag9
ag4
ag1
ag13
ag1
ag4
ag25
ag25
ag53
ag24
ag13
ag5
ag1
ag4
ag2
ag4
ag10
ag4
ag1
ag9
ag2
ag11
ag16
ag11
ag2
ag11
ag4
ag23
ag13
ag4
ag11
ag3
ag9
ag1
ag4
aVc
p78
aVp
p79
ag9
ag2
ag11
ag16
ag71
ag53
ag12
ag5
ag4
ag1
ag4
ag5
ag4
ag4
ag2
ag11
ag9
ag1
ag7
ag3
ag4
ag7
ag1
aVp
p80
ag5
ag4
ag11
ag4
ag1
aVc
p81
aVp
p82
ag9
ag2
ag11
ag16
ag25
ag11
ag2
ag11
ag4
ag23
ag13
ag4
ag11
ag3
ag11
ag1
ag1
ag12
ag4
ag1
ag13
ag1
ag10
ag4
ag9
ag4
ag1
ag13
ag1
ag4
ag77
aV6
p83
ag24
ag13
ag5
ag1
ag4
ag2
ag4
ag10
ag4
ag1
ag9
ag2
ag11
ag16
aVw
p84
ag4
ag3
ag7
ag13
ag11
ag5
ag5
ag4
ag10
ag4
ag3
ag2
ag4
ag3
ag7
ag1
ag1
ag10
ag4
ag3
ag4
ag11
ag10
ag4
ag1
ag11
ag7
ag5
ag4
ag12
ag4
ag1
ag9
ag4
ag1
ag13
ag1
ag4
ag4
ag1
ag4
ag9
ag1
ag4
ag7
ag4
ag1
ag15
ag3
ag4
ag7
ag1
ag4
ag9
ag4
ag11
ag15
ag4
ag1
ag16
ag13
ag1
ag5
ag4
ag1
ag4
ag5
ag11
ag4
ag23
ag13
ag10
ag3
ag4
ag11
ag5
ag16
ag4
ag11
ag4
ag13
ag11
ag11
ag1
ag9
ag2
ag4
ag13
ag2
ag11
ag15
ag4
ag2
ag11
ag1
ag13
ag2
ag4
ag7
ag1
ag3
ag4
ag1
ag4
ag4
ag13
ag2
ag9
ag4
ag7
ag4
ag10
ag4
ag1
ag3
ag5
ag11
ag3
ag4
ag1
ag4
ag2
ag5
ag11
ag1
ag9
ag2
ag13
ag11
ag4
ag1
ag5
ag4
ag13
ag9
ag11
ag7
ag11
ag1
ag4
ag5
ag4
ag5
ag4
ag1
ag12
ag4
ag2
ag11
ag4
ag1
ag4
ag11
ag16
ag3
ag4
ag1
ag11
ag10
ag4
ag1
ag4
ag3
ag1
ag9
ag2
ag3
ag4
ag1
ag12
ag5
ag7
ag7
ag4
ag1
ag4
ag11
ag1
ag4
ag11
ag11
ag7
ag5
ag4
ag4
ag1
ag24
ag11
ag9
ag4
ag1
ag7
ag1
ag4
ag11
ag13
ag4
ag1
ag2
ag3
ag13
ag3
ag11
ag7
ag12
ag10
ag4
ag9
ag1
ag9
ag16
ag11
ag12
ag5
ag7
ag13
ag3
ag3
ag12
ag10
ag4
ag3
ag10
ag4
ag1
ag5
ag4
ag4
ag23
ag13
ag10
ag3
ag4
ag11
ag4
ag5
ag10
ag4
ag1
ag5
ag1
ag5
ag15
ag2
ag11
ag11
ag2
ag3
ag11
ag2
ag4
ag1
ag4
ag1
ag4
ag9
ag4
ag2
ag10
ag4
ag3
ag5
ag4
ag5
ag4
ag1
ag9
ag4
ag1
ag7
ag1
ag4
ag10
ag4
ag1
ag12
ag4
ag3
ag3
ag7
ag1
ag5
ag4
ag27
ag11
ag4
ag2
ag3
ag11
ag11
ag2
ag3
ag9
ag11
ag7
ag10
ag4
ag12
ag4
ag10
ag4
ag11
ag7
ag1
ag1
ag11
ag16
ag11
ag1
ag9
ag11
ag3
ag4
ag1
ag4
ag2
ag1
ag15
ag4
ag15
ag4
ag12
ag5
ag4
ag4
ag1
ag24
ag4
ag5
ag10
ag4
ag7
ag7
ag4
ag1
ag4
ag11
ag1
ag4
ag11
ag11
ag2
ag4
ag3
ag11
ag16
ag7
ag5
ag4
ag10
ag3
ag13
ag1
ag4
ag11
ag1
ag4
ag23
ag13
ag1
ag4
ag14
ag13
ag4
ag11
ag11
ag11
ag4
ag12
ag9
ag9
ag1
ag2
ag5
ag4
ag5
ag4
ag10
ag3
ag15
ag3
ag4
ag7
ag3
ag13
ag13
ag15
ag13
ag11
ag2
ag5
ag4
ag4
ag13
ag4
ag11
ag2
ag11
ag10
ag4
ag11
ag11
ag3
ag1
ag4
ag4
ag1
ag10
ag1
ag5
ag9
ag9
ag4
ag1
ag11
ag1
ag13
ag2
ag4
ag12
ag4
ag3
ag5
ag4
ag7
ag1
ag2
ag11
ag3
ag16
ag1
ag4
ag11
ag4
ag3
aVf
p85
aVg
p86
ag7
ag1
ag13
ag3
ag11
ag16
ag5
ag4
ag7
ag1
ag4
ag23
ag13
ag4
ag11
ag2
ag9
ag4
ag1
ag11
ag7
ag5
ag4
ag5
ag4
ag1
ag13
ag3
ag13
ag7
ag9
ag13
ag1
ag4
ag15
ag13
ag4
ag11
ag11
ag5
ag4
aVh
p87
ag5
ag11
ag5
ag1
ag27
ag11
ag4
ag1
ag10
ag4
ag4
ag3
aVh
p88
ag7
ag1
ag4
ag3
ag11
ag16
ag5
ag4
ag13
ag3
ag7
ag15
ag13
ag4
ag11
ag13
ag1
ag4
ag11
ag7
ag13
ag11
ag2
ag11
ag7
ag7
ag1
ag4
ag23
ag13
ag4
ag11
ag2
ag11
ag4
ag9
ag4
ag1
ag13
ag1
ag4
ag3
ag1
ag4
ag24
ag9
ag11
ag11
ag5
ag12
ag5
ag5
ag4
ag7
ag1
ag1
ag4
ag1
aVf
p89
aVg
p90
ag5
ag5
ag16
ag5
ag4
ag1
ag1
ag4
ag3
ag13
ag11
ag5
ag11
ag5
ag4
ag24
ag12
ag4
ag3
ag3
ag4
ag3
ag11
ag3
ag12
ag4
ag1
ag2
ag9
ag3
ag4
ag24
ag5
ag11
ag5
ag4
aVc
p91
ag3
ag4
aVc
p92
ag3
ag4
ag4
ag3
ag11
ag11
aVf
p93
aVg
p94
ag13
ag9
ag4
ag1
ag1
ag24
ag12
ag4
ag3
ag3
ag11
aVc
p95
ag3
ag4
aVc
p96
ag3
ag4
ag4
ag3
ag11
ag5
ag10
ag2
ag4
ag3
ag11
ag16
ag4
ag11
ag11
ag4
ag4
ag15
ag4
ag11
ag4
ag9
ag1
ag1
ag5
ag4
ag1
ag13
ag3
ag13
ag4
ag3
ag11
ag16
ag5
ag4
ag15
ag13
ag3
ag11
ag16
ag7
aVh
p97
ag15
ag4
ag11
ag15
ag4
ag1
ag10
ag11
ag7
ag5
ag4
ag2
ag1
ag1
ag13
ag2
ag13
ag1
ag4
ag7
ag5
ag4
ag15
ag13
ag4
ag11
ag13
ag1
ag4
ag11
ag5
ag1
ag4
ag4
ag11
ag2
ag5
ag1
ag2
ag4
ag1
ag2
ag11
ag5
ag4
ag11
ag1
ag4
ag15
ag4
ag1
ag10
ag4
ag11
ag5
ag4
ag9
ag3
ag7
ag4
ag4
ag3
ag9
ag1
ag13
ag2
ag11
ag16
ag1
ag11
ag16
ag4
ag7
ag7
ag7
ag4
ag13
ag11
ag7
ag4
ag7
ag7
ag4
ag2
ag10
ag4
ag1
ag2
ag4
aVb
p98
ag13
ag4
ag11
ag2
ag11
ag11
ag4
ag5
ag4
ag1
ag24
ag11
ag16
ag9
ag4
ag11
ag3
ag5
ag4
ag3
ag4
ag2
ag1
ag2
ag3
ag9
ag4
ag11
ag3
ag12
ag5
ag2
ag5
ag4
ag10
ag4
ag3
ag9
ag12
ag5
ag4
ag11
ag11
ag11
ag2
ag7
ag3
ag13
ag7
ag3
ag12
ag5
ag1
ag13
ag16
ag5
ag5
ag4
ag9
ag1
ag4
ag7
ag1
ag2
ag27
ag11
ag3
ag2
ag11
ag2
ag4
ag9
ag5
ag1
ag4
ag2
ag4
ag11
ag3
ag15
ag4
ag11
ag16
ag9
ag9
ag3
ag4
ag11
ag11
ag7
ag4
ag3
ag7
ag1
ag11
ag1
ag11
ag16
ag12
ag4
ag1
ag7
ag1
ag11
ag11
ag3
ag1
ag4
ag4
ag1
ag10
ag1
ag13
ag11
ag4
ag1
ag11
ag11
ag16
ag5
ag4
ag4
ag2
ag5
ag11
ag15
ag4
ag5
ag11
ag11
ag5
ag4
ag2
ag4
ag1
ag5
ag23
ag13
ag27
ag4
aVw
p99
ag4
ag5
ag10
ag4
ag2
ag1
ag1
ag4
ag13
ag7
ag13
ag11
ag4
ag11
ag3
ag5
ag4
ag1
ag4
ag2
ag3
ag4
ag3
ag11
ag16
ag7
ag5
ag4
ag1
ag4
ag11
ag16
ag9
ag4
ag11
ag3
ag2
ag4
ag7
ag7
ag2
ag4
ag11
ag7
ag13
ag11
ag2
ag11
ag7
ag9
ag1
ag4
ag7
ag3
ag13
ag3
ag11
ag9
aVh
p100
ag11
ag4
ag9
ag4
ag1
ag13
ag1
ag4
ag15
ag7
ag11
ag16
ag5
ag4
aVh
p101
ag4
ag23
ag13
ag11
ag7
ag1
ag13
ag4
ag12
ag5
ag9
ag1
ag13
ag1
ag2
ag27
ag11
ag13
ag11
ag16
ag11
ag9
ag13
ag9
ag1
ag4
ag4
ag1
ag7
ag1
ag4
ag15
ag3
ag5
ag4
ag7
ag13
ag11
ag4
ag11
ag3
ag5
ag4
ag1
ag5
ag4
ag4
ag15
ag4
ag2
ag1
ag4
ag4
ag11
ag11
ag16
ag3
ag4
ag11
ag16
ag5
ag5
ag4
ag4
ag1
ag11
ag9
ag3
ag11
ag4
ag9
ag4
ag11
ag3
ag5
ag4
ag32
ag4
ag9
ag4
ag11
ag3
ag11
ag5
ag4
ag13
ag1
ag7
ag2
ag4
ag2
ag11
ag13
ag2
ag11
ag2
ag4
ag5
ag4
ag4
ag3
ag3
ag1
ag4
ag23
ag13
ag1
ag4
ag5
ag4
ag4
ag11
ag4
ag3
ag4
ag2
ag1
ag2
ag3
ag2
ag11
ag13
ag2
ag10
ag1
ag4
ag3
ag10
ag4
ag4
ag3
ag4
ag2
ag1
ag2
ag9
ag4
ag1
ag10
ag11
ag11
ag2
ag10
ag2
ag7
ag5
ag4
ag15
ag13
ag3
ag27
ag7
ag3
ag13
ag7
ag1
ag12
ag5
ag2
ag5
ag4
ag9
ag1
ag2
ag3
ag4
ag3
ag1
ag4
ag13
ag4
ag5
ag5
ag4
ag4
ag9
ag4
ag1
ag13
ag1
ag4
ag7
ag5
ag4
ag4
ag3
ag15
ag4
ag10
ag1
ag4
ag5
ag4
ag4
ag9
ag1
ag4
ag4
ag1
ag1
ag4
ag5
ag4
ag11
ag2
ag15
ag11
ag4
ag12
ag5
ag9
ag1
ag4
ag4
ag1
ag5
ag4
ag2
ag1
ag15
ag4
ag5
ag4
ag1
ag2
ag27
ag2
ag1
ag1
ag13
ag2
ag13
ag1
ag4
ag5
ag4
ag1
ag4
ag13
ag3
ag11
ag16
ag5
ag4
ag1
ag4
ag2
ag3
ag10
ag3
ag13
ag4
ag5
ag15
ag4
ag4
ag11
ag1
ag4
ag2
ag4
ag11
ag11
ag2
ag1
ag4
ag4
ag11
ag5
ag4
ag13
ag4
ag7
ag2
ag11
ag1
ag3
ag3
ag4
ag13
ag1
ag2
ag4
ag4
ag3
ag4
ag2
ag1
ag16
ag11
ag4
ag2
aVc
p102
aVe
p103
ag13
ag1
ag10
ag4
ag11
ag5
ag4
ag4
ag24
ag9
ag3
ag1
ag11
ag7
ag1
ag3
ag11
ag16
aVw
p104
ag4
ag4
ag10
ag4
ag3
ag9
ag4
ag4
ag3
ag11
ag16
ag2
ag5
ag4
ag4
ag7
ag1
ag21
aVc
p105
aVe
p106
ag4
ag3
ag11
ag16
ag11
ag5
ag4
ag7
ag1
ag4
ag23
ag13
ag4
ag11
ag2
ag11
ag5
ag4
ag4
ag3
ag4
ag2
ag1
ag2
ag7
ag4
ag3
ag12
ag4
ag2
ag9
ag4
ag11
ag9
ag1
ag1
ag11
ag4
ag2
ag11
ag1
ag2
ag9
ag11
ag4
ag11
ag4
ag3
ag11
ag4
ag5
ag4
ag11
ag16
ag13
ag3
ag1
ag1
ag16
ag11
ag4
ag15
ag5
ag4
ag13
ag1
ag2
ag4
ag4
ag1
ag5
ag4
ag9
ag1
ag1
ag7
ag4
ag3
ag12
ag2
ag3
ag2
ag13
ag3
ag4
ag13
ag11
ag16
ag2
ag3
ag4
ag7
ag1
ag3
ag13
ag11
ag11
ag5
ag4
ag4
ag2
ag11
ag1
ag7
ag4
ag3
ag12
ag2
ag9
ag13
ag4
ag2
ag1
ag4
ag32
ag11
ag16
ag4
ag2
ag11
ag1
ag4
ag1
ag9
ag1
ag3
ag7
ag7
ag4
ag1
ag4
ag11
ag3
ag4
ag23
ag13
ag11
ag7
ag1
ag5
ag4
ag4
ag3
ag4
ag2
ag1
ag2
ag7
ag4
ag3
ag12
ag5
ag5
ag4
ag4
ag16
ag4
ag7
ag11
ag4
ag4
ag3
ag4
ag4
ag11
ag5
ag4
ag3
ag13
ag11
ag5
ag4
ag3
ag11
ag4
ag1
ag4
ag7
ag4
ag23
ag13
ag11
ag12
ag15
ag11
ag4
ag13
ag11
ag16
ag10
ag4
ag9
ag1
ag3
ag3
ag4
ag3
ag13
ag3
ag7
ag1
ag11
ag3
ag3
ag10
ag4
ag1
ag15
ag4
ag2
ag13
ag4
ag13
ag2
ag5
ag3
ag10
ag4
ag1
ag1
ag4
ag1
ag15
ag13
ag7
ag1
ag11
ag4
ag7
ag11
ag4
ag11
ag3
ag3
ag2
ag11
ag11
ag4
ag3
ag11
ag4
ag1
ag4
aVr
p107
ag4
ag2
ag4
ag11
ag1
ag4
ag11
ag11
ag9
ag1
ag3
ag3
ag4
ag3
ag2
ag9
ag13
ag11
ag16
ag12
ag4
ag1
ag4
ag11
ag10
ag4
ag16
ag4
ag7
ag1
ag5
ag4
ag1
ag13
ag4
ag11
ag16
ag11
ag16
ag5
ag4
ag2
ag9
ag13
ag11
ag3
ag10
ag4
ag1
ag15
ag13
ag1
ag4
ag11
ag2
ag4
ag12
ag5
ag5
ag4
ag13
ag4
ag7
ag1
ag4
ag2
ag3
ag10
ag4
ag1
ag11
ag7
ag7
ag4
ag15
ag3
ag7
ag1
ag21
aVc
p108
aVe
p109
ag7
ag1
ag12
ag1
ag4
ag3
ag11
ag16
ag12
ag5
ag5
ag4
ag4
ag16
ag4
ag7
ag11
ag4
ag4
ag3
ag4
ag4
ag11
ag5
ag4
ag2
ag9
ag13
ag11
ag7
ag5
ag4
ag9
ag1
ag1
ag7
ag4
ag3
ag12
ag9
ag1
ag1
ag9
ag1
ag13
ag2
ag11
ag11
ag1
ag11
ag16
ag13
ag11
ag16
ag1
ag11
ag4
ag2
ag11
ag1
ag3
ag3
ag4
ag13
ag1
ag2
ag4
ag4
ag3
ag4
ag2
ag1
ag16
ag11
ag4
ag2
aVc
p110
aVe
p111
ag5
ag15
ag4
ag4
ag11
ag13
ag4
ag1
ag4
ag2
ag4
ag11
ag3
ag15
ag4
ag2
ag13
ag4
ag4
ag11
ag10
ag4
ag1
ag4
ag10
ag2
ag5
ag11
ag16
ag4
ag1
ag4
ag13
ag3
ag11
ag16
ag7
ag1
ag10
ag1
ag11
ag11
ag5
ag1
ag2
ag1
ag15
ag11
ag13
ag1
ag11
aVh
p112
ag12
ag4
ag10
ag4
ag1
aVc
p113
aVe
p114
ag7
ag1
aVc
p115
ag71
ag4
ag23
ag13
ag4
ag1
ag11
ag11
ag1
ag11
ag16
ag5
ag2
ag1
ag2
ag4
ag3
ag15
ag4
ag4
ag11
ag11
ag10
ag4
ag16
ag4
ag3
ag5
ag13
ag16
ag5
ag5
ag4
aVc
p116
aVe
p117
ag4
ag5
ag10
ag11
ag16
ag4
ag13
ag7
ag1
ag11
ag1
ag11
ag16
aVc
p118
ag71
ag11
ag14
ag4
ag2
ag11
ag11
ag16
ag1
ag11
ag11
ag10
ag4
ag16
ag4
ag5
ag4
ag7
ag4
ag15
ag3
ag7
aVc
p119
aVe
p120
ag11
ag1
ag11
ag16
ag7
ag1
aVc
p121
ag71
ag4
ag23
ag13
ag4
ag1
ag11
ag12
ag4
ag2
ag11
ag13
ag2
ag4
ag11
ag13
ag4
ag1
ag2
ag3
ag4
ag24
ag9
ag4
ag1
ag4
ag11
ag7
ag1
ag4
ag9
ag1
ag4
ag4
ag11
ag10
ag4
aVc
p122
ag71
ag11
ag14
ag4
ag2
ag11
ag4
ag3
ag4
ag4
ag9
ag15
ag1
ag11
ag4
ag23
ag13
ag7
ag4
ag1
ag11
ag5
ag3
ag3
ag12
ag4
aVb
p123
ag13
ag11
ag16
ag7
ag4
ag4
ag2
ag11
ag1
ag7
ag4
ag3
ag4
ag5
ag12
ag4
ag4
ag7
ag7
ag4
ag2
ag10
ag4
ag3
ag1
ag4
ag5
ag4
ag1
ag12
ag10
ag4
ag9
ag1
ag15
ag3
ag4
ag2
ag2
ag13
ag1
ag1
ag11
ag16
ag12
ag5
ag4
ag11
aVc
p124
aVe
p125
ag9
ag9
ag3
ag4
ag1
ag16
ag4
ag15
ag4
ag11
ag4
ag5
ag5
ag3
ag3
ag12
ag4
aVw
p126
ag4
ag4
ag11
ag1
ag4
ag5
ag4
ag7
ag4
ag4
ag2
ag11
ag1
ag7
ag4
ag3
ag4
ag5
ag2
ag11
ag1
ag4
ag1
ag4
ag5
ag16
ag5
ag7
ag1
ag4
ag23
ag13
ag4
ag11
ag2
ag15
ag11
ag12
ag5
ag2
ag5
ag15
ag4
ag11
ag4
ag7
ag2
ag3
ag7
ag1
ag5
ag4
ag4
ag4
ag2
ag11
ag7
ag5
ag4
ag10
ag4
ag4
ag11
ag7
ag11
ag14
ag4
ag2
ag4
aVc
p127
ag71
aVf
p128
ag13
ag1
ag5
ag4
ag1
ag1
ag4
ag13
ag11
ag16
ag7
ag4
ag2
ag4
ag1
ag4
ag7
ag4
ag3
ag9
ag9
ag1
ag2
ag5
ag7
ag1
ag71
ag53
ag7
ag1
ag12
ag1
ag4
ag3
ag11
ag16
ag12
ag4
ag2
ag5
ag4
ag10
ag4
ag10
ag4
ag1
ag5
ag16
ag5
ag2
ag2
ag13
ag1
ag2
ag12
ag5
ag2
ag5
ag4
ag4
ag11
ag3
ag7
ag1
ag11
ag11
ag4
ag3
ag11
ag16
ag13
ag4
ag11
ag10
ag4
ag1
ag25
ag2
ag11
ag1
ag3
ag3
ag4
ag13
ag1
ag2
ag4
ag13
ag7
ag1
ag4
ag23
ag13
ag4
ag11
ag2
ag16
ag11
ag4
ag4
ag3
ag3
ag13
ag1
ag2
aVc
p129
ag11
ag5
ag4
ag11
ag11
ag4
ag3
ag11
ag16
ag9
ag1
ag2
ag4
ag5
ag4
ag4
ag4
ag11
ag4
ag1
ag16
ag27
ag4
ag11
ag5
ag4
ag1
ag4
ag11
ag23
ag13
ag1
ag4
ag7
ag11
ag16
ag4
ag1
ag1
ag1
ag15
ag4
ag12
ag4
ag4
ag11
ag4
ag3
ag1
ag4
ag9
ag11
ag4
ag11
ag1
ag4
ag3
ag5
ag4
ag4
ag3
ag9
ag1
ag4
ag4
ag1
ag1
ag4
ag5
ag4
ag11
ag13
ag1
ag3
ag3
ag16
ag1
ag5
ag7
ag5
ag4
ag1
ag4
ag10
ag11
ag5
ag4
ag5
ag2
ag27
ag11
ag4
ag11
ag4
ag2
ag5
ag3
ag4
ag1
ag7
ag5
ag4
ag4
ag1
ag5
ag5
ag4
ag11
ag11
ag4
ag3
ag11
ag16
ag4
ag9
ag4
ag1
ag13
ag1
ag4
ag4
ag2
ag1
ag4
ag4
ag4
ag24
ag9
ag11
ag4
ag11
ag3
ag3
ag12
ag5
ag3
ag4
ag5
ag4
ag4
ag3
ag1
ag4
ag7
ag1
ag4
ag5
ag4
ag1
ag11
ag3
ag2
ag2
ag1
ag11
ag16
ag5
ag4
ag4
ag9
ag4
ag1
ag13
ag1
ag4
ag11
ag2
ag2
ag4
ag9
ag4
ag2
ag2
ag1
ag11
ag16
aVb
p130
ag3
ag32
ag11
ag11
ag9
ag1
ag15
ag15
ag3
aVw
p131
ag4
ag7
ag1
ag4
ag4
ag5
ag4
ag11
ag11
ag5
ag4
ag2
ag11
ag4
ag10
ag4
ag3
ag9
ag4
ag2
ag3
ag11
ag16
ag2
ag5
ag4
ag13
ag3
ag4
ag7
ag4
ag3
ag13
ag9
ag4
ag9
ag4
ag2
ag7
ag2
ag3
ag3
ag7
ag1
aVc
p132
ag11
ag10
ag4
ag1
ag11
ag5
ag4
ag1
ag4
ag4
ag16
ag11
ag4
ag2
ag3
ag11
ag16
ag2
ag5
ag4
ag13
ag3
ag4
ag1
ag4
ag13
ag2
ag4
ag5
ag4
ag16
ag11
ag13
ag4
ag7
ag5
ag4
ag4
ag3
ag13
ag9
ag11
ag16
ag11
ag27
ag4
ag5
ag4
ag3
ag13
ag11
ag2
ag11
ag10
ag4
ag1
ag16
ag4
ag1
ag9
ag3
ag11
ag15
ag3
aVf
p133
ag1
ag5
ag1
ag4
ag4
ag3
ag4
ag1
ag4
ag3
ag12
ag5
ag4
ag1
ag4
ag10
ag11
ag2
ag1
ag4
ag4
ag12
ag5
ag4
ag9
ag5
ag5
ag7
ag7
ag2
ag13
ag3
ag11
ag15
ag11
ag11
ag16
ag5
ag4
ag16
ag3
ag15
ag3
ag3
ag13
ag11
ag7
ag1
ag5
ag4
ag3
ag4
ag3
ag4
ag1
aVh
p134
ag12
ag4
ag10
ag4
ag1
ag5
ag4
ag3
ag13
ag11
ag7
ag1
ag13
ag2
ag5
ag3
ag4
ag1
ag2
ag11
ag15
ag4
ag16
ag11
ag7
ag2
ag11
ag3
ag9
ag1
ag10
ag4
ag15
ag13
ag11
ag16
ag5
ag4
ag4
ag11
ag10
ag3
ag13
ag4
ag7
ag5
ag4
ag4
ag13
ag1
ag2
ag4
ag4
ag3
ag4
ag2
ag1
ag16
ag11
ag4
ag2
aVc
p135
aVe
p136
ag5
ag15
ag4
ag4
ag11
ag13
ag4
ag4
ag1
ag27
ag11
ag16
ag3
ag11
ag5
ag4
ag5
ag1
ag2
ag1
ag15
ag11
ag4
ag24
ag9
ag3
ag1
ag11
ag11
ag13
ag1
aVw
p137
ag4
ag9
ag9
ag3
ag5
ag4
ag2
ag11
ag2
ag4
ag9
ag7
ag11
ag5
ag4
ag2
ag9
ag4
ag1
ag13
ag1
ag4
ag5
ag4
ag3
ag12
ag7
ag1
ag4
ag23
ag13
ag4
ag11
ag2
ag4
ag3
ag4
ag2
ag1
ag16
ag11
ag4
ag2
ag7
ag4
ag3
ag11
aVc
p138
aVe
p139
ag11
ag5
ag4
ag2
ag9
ag4
ag1
ag13
ag1
ag4
ag13
ag1
ag2
ag4
ag5
ag10
ag4
ag15
ag4
ag4
ag11
ag13
ag4
ag11
ag1
ag1
ag16
ag11
ag16
ag7
ag1
ag11
ag4
ag1
aVu
p140
ag11
ag16
ag5
ag4
ag11
ag5
ag4
ag2
ag9
ag4
ag1
ag13
ag1
ag4
ag2
ag11
ag2
ag4
ag9
ag15
ag16
ag11
ag5
ag4
ag2
ag13
ag1
ag2
ag4
ag2
ag11
ag15
ag4
ag2
ag11
ag1
ag13
ag2
ag4
ag15
ag11
ag16
ag5
ag4
ag1
ag4
ag9
ag11
ag4
ag3
ag3
ag13
ag1
ag2
ag4
ag15
ag13
ag3
ag11
ag16
ag15
ag3
ag2
ag27
ag11
ag7
ag7
ag4
ag1
ag4
ag11
ag12
ag11
ag2
ag11
ag4
ag23
ag13
ag4
ag11
ag3
ag15
ag16
ag13
ag1
ag2
ag4
ag12
ag5
ag7
ag7
ag4
ag1
ag4
ag11
ag1
ag11
ag9
ag4
ag1
ag11
ag2
ag11
ag15
ag4
ag2
ag1
ag4
ag4
aVw
p141
ag4
ag5
ag12
ag5
ag5
ag4
ag4
ag4
ag2
ag15
ag3
ag7
ag5
ag1
ag2
ag1
ag15
ag11
ag16
ag11
ag7
ag2
ag11
ag3
ag4
ag11
ag5
ag11
ag2
ag4
ag15
ag9
ag9
ag3
ag11
ag16
ag11
ag5
ag4
ag2
ag9
ag4
ag1
ag13
ag1
ag4
aVc
p142
aVe
p143
ag1
ag4
ag2
ag5
ag3
ag3
ag4
ag11
ag16
ag11
ag16
ag1
ag16
ag4
ag13
ag2
ag5
ag4
ag4
ag9
ag1
ag4
ag4
ag1
ag10
ag1
ag77
ag27
ag15
ag4
ag3
ag12
ag4
ag7
ag3
ag1
ag2
ag11
ag15
ag4
ag4
ag4
ag2
ag4
ag5
ag4
ag11
ag5
ag4
ag2
ag9
ag4
ag1
ag13
ag1
ag4
ag4
ag2
ag5
ag11
ag23
ag13
ag4
ag3
ag11
ag2
ag1
ag4
ag4
ag5
ag4
ag4
ag11
ag10
ag7
ag5
ag4
ag7
ag4
ag3
ag13
ag15
ag13
ag1
ag7
ag2
ag4
ag1
ag16
ag4
ag11
ag5
ag4
ag12
ag11
ag16
ag1
ag4
ag4
ag1
ag2
ag23
ag13
ag11
aVw
p144
ag4
ag3
ag5
ag12
ag5
ag9
ag4
ag13
ag10
ag4
ag1
ag2
ag3
ag13
ag1
ag2
ag4
ag1
ag5
ag16
ag11
ag3
ag3
ag1
ag15
ag13
ag4
ag9
ag3
ag4
ag9
ag1
ag2
ag11
ag15
ag4
ag2
ag11
ag1
ag13
ag2
ag4
ag11
ag5
ag4
ag2
ag3
ag3
ag11
ag5
ag5
ag4
ag4
ag4
ag2
ag11
ag2
ag9
ag15
ag3
ag7
ag5
ag11
ag7
ag25
ag11
ag21
ag7
ag1
ag12
ag1
ag11
ag11
ag10
ag4
ag1
ag4
ag3
ag13
ag11
ag13
ag4
ag23
ag13
ag11
ag7
ag5
ag4
ag4
ag11
ag10
ag11
ag1
ag4
ag3
ag13
ag11
ag7
ag2
ag11
ag10
ag4
ag11
ag11
ag3
ag2
ag11
ag1
ag3
ag3
ag4
ag13
ag1
ag2
ag4
ag4
ag3
ag4
ag2
ag1
ag16
ag11
ag4
ag2
aVc
p145
aVe
p146
ag2
ag3
ag3
ag4
ag2
ag4
ag13
ag11
ag16
ag5
ag1
ag32
ag11
ag3
ag4
ag3
ag4
ag2
ag1
ag2
ag9
ag3
ag4
ag13
ag1
ag2
ag4
ag1
ag11
ag10
ag4
ag1
ag4
ag4
ag3
ag4
ag2
ag1
ag2
ag11
ag1
ag9
ag3
ag2
ag4
ag11
ag4
ag4
ag9
ag12
ag4
ag1
ag4
ag24
ag9
ag3
ag1
ag11
ag1
ag4
ag4
ag1
ag10
ag1
ag1
ag16
ag4
aVb
p147
ag4
ag2
ag13
ag4
ag1
ag11
ag16
ag3
ag11
ag1
ag9
ag2
ag5
ag3
ag4
ag3
ag4
ag1
ag5
ag10
ag4
ag10
ag4
ag1
ag2
ag3
ag1
ag4
ag10
ag5
ag2
ag11
ag15
ag4
ag2
ag9
ag1
ag15
ag3
ag4
ag11
ag1
ag4
ag4
ag1
ag10
ag1
ag12
ag4
ag4
ag24
ag11
ag4
ag5
ag12
aVc
p148
aVe
p149
ag2
ag11
ag2
ag1
ag11
ag4
ag2
ag11
ag7
ag13
ag11
ag11
ag16
ag5
ag3
ag4
ag3
ag4
ag1
ag5
ag1
ag13
ag16
ag5
ag5
ag4
ag1
ag2
ag5
ag1
ag2
ag4
ag1
ag2
ag3
ag3
ag3
ag12
ag4
ag1
ag5
ag1
ag32
ag11
ag3
ag1
ag4
ag10
aVf
p150
ag1
ag12
ag1
ag4
ag3
ag11
ag16
ag11
ag2
ag4
ag5
ag5
ag4
ag4
ag11
ag10
ag1
ag4
ag4
ag1
ag10
ag1
ag3
ag4
ag10
ag4
ag3
ag11
ag1
ag9
ag10
ag4
ag1
ag3
ag12
ag2
ag9
ag1
ag4
ag12
ag5
ag5
ag4
ag4
ag11
ag10
ag1
ag9
ag2
ag1
ag4
ag4
ag1
ag10
ag1
ag4
ag9
ag4
ag2
ag3
ag3
ag12
ag5
ag4
ag11
ag5
ag4
ag1
ag4
ag4
ag1
ag10
ag1
ag4
ag4
ag9
ag4
ag1
ag5
ag11
ag15
ag13
ag71
ag27
ag15
ag4
ag3
ag12
ag5
ag4
ag4
ag15
ag4
aVh
p151
ag12
ag4
ag10
ag4
ag1
ag7
ag1
ag25
ag4
ag3
ag12
ag5
ag4
ag1
ag4
ag5
ag4
ag11
ag13
ag15
ag4
ag1
ag7
ag11
ag10
ag4
ag1
ag11
ag9
ag1
ag4
ag4
ag1
ag2
ag11
ag15
ag4
ag7
ag24
ag4
ag15
ag4
ag11
ag3
ag7
ag4
ag12
ag3
ag4
ag1
ag15
ag5
ag10
ag4
ag1
ag2
ag3
ag11
ag5
ag1
ag32
ag11
ag3
ag1
ag4
ag10
ag7
ag5
ag4
ag1
ag4
ag4
ag1
ag10
ag1
ag2
ag11
ag15
ag4
ag12
ag4
ag3
ag3
ag1
ag4
ag3
ag10
ag4
ag13
ag11
ag16
ag2
ag5
ag2
ag11
ag10
ag4
ag1
ag11
aVw
p152
ag4
ag7
ag13
ag11
ag5
ag5
ag4
ag1
ag4
ag3
ag13
ag11
ag7
ag5
ag1
ag32
ag11
ag16
ag1
ag12
ag11
ag16
ag11
ag4
ag1
ag4
ag11
ag5
ag4
ag3
ag11
ag27
ag15
ag4
ag12
ag4
ag4
ag11
ag4
ag3
ag4
ag2
ag1
ag2
ag3
ag9
ag3
ag1
ag32
ag11
ag11
ag9
ag5
ag2
ag3
ag9
ag1
ag9
ag4
ag1
ag4
ag7
ag16
ag4
ag3
ag16
ag2
ag9
ag1
ag13
ag4
ag11
ag9
ag1
ag2
ag13
ag3
ag1
ag9
ag4
ag2
ag1
ag3
ag2
ag5
ag1
ag2
ag4
ag1
ag2
ag15
ag4
ag2
ag11
ag1
ag3
ag3
ag4
ag15
ag5
ag4
ag4
ag9
ag1
ag4
ag16
ag4
ag4
ag1
ag2
ag9
ag1
ag9
ag4
ag1
ag4
ag5
ag11
ag7
ag3
ag13
ag4
ag11
ag2
ag4
ag7
ag3
ag13
ag9
ag4
ag1
ag4
ag15
ag3
ag7
ag13
ag2
ag5
ag4
aVv
p153
ag1
ag13
ag4
ag3
ag5
ag10
ag4
ag15
ag4
ag4
ag11
ag9
ag1
ag9
ag4
ag4
ag2
ag1
ag15
ag4
ag5
ag4
ag9
ag4
ag2
ag1
ag3
ag11
ag13
ag2
ag4
ag9
ag3
ag1
ag32
ag11
aVp
p154
ag1
ag4
ag9
ag11
ag4
ag7
ag9
ag4
ag1
ag4
ag15
ag3
ag4
ag1
ag2
ag27
ag11
ag5
ag4
ag3
ag11
ag27
ag15
ag4
ag12
ag4
ag4
ag11
ag5
ag4
ag4
ag4
ag3
ag11
ag5
ag1
ag13
ag3
ag2
ag9
ag1
ag9
ag4
ag1
ag4
ag5
ag10
ag4
ag15
ag4
ag4
ag11
ag4
ag24
ag9
ag3
ag1
ag4
ag3
ag15
ag4
ag4
ag9
ag1
ag2
ag3
ag3
aVc
p155
ag9
ag13
ag11
ag7
ag5
ag4
ag13
ag11
ag2
ag4
ag1
ag11
ag4
ag11
ag5
ag4
ag9
ag1
ag4
ag4
ag1
ag7
ag13
ag2
ag5
ag4
ag3
ag4
ag2
ag1
ag2
ag3
ag4
ag3
ag4
ag4
ag11
ag3
ag7
ag1
ag4
ag7
ag7
ag4
ag2
ag10
ag4
ag13
ag4
ag7
ag5
ag4
ag4
ag1
ag4
ag3
ag11
ag5
ag9
ag5
ag4
ag7
ag1
ag13
ag3
ag11
ag7
ag11
ag4
ag3
ag4
ag2
ag1
ag2
ag3
ag9
ag4
ag1
ag11
ag4
ag3
ag11
ag4
ag1
ag7
ag1
ag15
ag13
ag11
ag7
ag1
ag4
ag3
ag24
ag11
ag4
ag11
ag2
ag4
ag2
ag5
ag1
ag16
ag4
ag15
ag3
ag4
ag5
ag15
ag4
ag4
ag11
ag4
ag11
ag1
ag4
ag15
ag4
ag11
ag4
ag7
ag7
ag4
ag2
ag10
ag4
ag16
ag4
ag11
ag4
ag1
ag3
ag32
ag4
ag9
ag9
ag1
ag2
ag5
ag5
ag12
ag4
ag10
ag4
ag1
ag5
ag13
ag7
ag1
ag13
ag2
ag5
ag11
ag9
ag9
ag1
ag2
ag5
ag5
ag11
ag3
ag15
ag4
ag4
ag11
ag2
ag11
ag4
ag1
ag4
ag11
ag4
ag4
ag1
ag11
ag2
ag7
ag1
ag4
ag12
ag1
ag27
aVh
p156
ag4
ag1
ag4
ag12
ag4
ag7
ag1
ag13
ag3
ag4
ag9
ag4
ag2
ag1
ag3
ag4
ag3
ag15
ag4
ag11
ag1
ag15
ag13
ag11
ag7
ag9
ag3
ag1
ag32
ag11
aVb
p157
ag13
ag11
ag16
ag9
ag3
ag4
ag9
ag3
ag11
ag3
ag4
ag2
ag1
ag9
ag1
ag7
ag13
ag2
ag5
ag4
ag1
ag16
ag4
ag5
ag1
ag2
ag1
ag15
ag11
ag3
ag4
ag1
ag4
ag9
ag5
ag7
ag9
ag9
ag1
ag24
ag4
ag3
ag25
ag25
ag50
ag50
ag25
ag71
ag50
ag50
ag11
ag5
ag4
ag12
ag4
ag1
ag2
ag3
ag13
ag11
ag11
ag4
ag1
ag5
ag4
ag4
ag4
ag9
ag12
ag4
ag1
aVh
p158
ag1
ag32
ag11
ag12
ag4
ag3
ag3
ag4
ag12
ag2
ag4
ag12
ag5
ag4
ag9
ag4
ag1
ag13
ag1
ag4
ag11
ag3
ag5
ag12
ag16
ag4
ag15
ag4
ag2
ag1
ag4
ag7
ag3
ag4
ag2
ag11
ag2
ag3
ag3
ag4
ag2
ag4
ag12
ag15
ag4
ag7
ag1
ag4
ag11
ag11
ag4
ag7
ag4
ag1
ag5
ag4
ag12
ag4
ag3
ag3
ag5
ag13
ag11
aVc
p159
ag11
ag10
ag4
ag11
ag11
ag3
ag13
ag3
ag2
ag5
ag11
ag11
ag4
ag3
ag4
ag2
ag1
ag4
ag7
ag3
ag4
ag2
ag11
ag9
ag1
ag7
ag3
ag11
ag16
ag12
ag4
ag1
ag4
ag9
ag1
ag2
ag4
ag4
ag4
ag11
ag5
ag11
ag2
ag4
ag12
ag4
ag1
ag2
ag3
ag13
ag11
ag1
ag4
ag7
ag3
ag4
ag2
ag11
ag15
ag7
ag3
ag4
ag1
ag11
ag16
ag13
ag3
ag12
ag7
ag1
ag4
ag23
ag13
ag4
ag11
ag2
ag4
ag11
ag4
ag1
ag16
ag11
ag9
ag9
ag3
ag11
ag16
ag5
ag16
ag5
ag4
ag1
ag16
ag11
ag5
ag11
ag9
ag2
ag3
ag3
ag13
ag4
ag7
ag1
ag16
ag11
ag16
ag13
ag15
ag13
ag1
ag7
ag2
ag4
ag16
ag4
ag3
ag16
ag5
ag4
ag4
ag4
ag9
ag3
ag4
ag1
ag1
ag4
ag7
ag3
ag4
ag2
ag10
ag12
ag5
ag11
ag7
ag4
ag12
ag27
ag7
ag5
ag4
ag12
ag4
ag3
ag3
ag4
ag5
ag11
ag9
ag4
ag11
ag2
ag4
ag3
ag4
ag5
ag11
ag4
ag12
ag4
ag1
ag15
ag15
ag13
ag7
ag2
ag1
ag7
ag9
ag9
ag1
ag24
ag4
ag3
ag21
ag83
ag25
ag50
ag77
ag1
ag4
ag23
ag13
ag10
ag3
ag4
ag11
ag3
ag11
ag4
ag16
ag10
ag4
ag13
ag11
ag10
ag4
ag3
ag2
ag4
ag9
ag7
ag15
ag13
ag50
ag53
aVw
p160
ag4
ag1
ag2
ag3
ag13
ag11
ag9
ag1
ag7
ag3
ag4
ag2
ag3
ag3
ag4
ag2
ag4
ag5
ag4
ag4
ag4
ag5
ag4
ag4
ag2
ag5
ag12
ag2
ag9
ag1
ag15
ag3
ag4
ag13
ag11
ag10
ag4
ag3
ag2
ag11
ag4
ag9
ag4
ag1
ag13
ag1
ag4
ag4
ag2
ag1
ag4
ag4
ag2
ag4
ag12
ag5
ag5
ag4
ag4
ag4
ag9
ag3
ag4
ag1
ag24
ag11
ag16
ag7
ag3
ag4
ag4
ag11
ag4
ag5
ag1
ag2
ag1
ag15
ag11
ag4
ag11
ag1
ag11
ag2
ag3
ag4
ag12
ag4
ag1
ag1
ag4
ag13
ag3
ag11
ag16
ag11
ag4
ag9
ag4
ag1
ag13
ag1
ag4
ag11
ag3
ag12
ag5
ag11
ag5
ag4
ag4
ag4
ag9
ag3
ag4
ag1
ag5
ag4
ag3
ag4
ag10
ag4
ag3
ag7
ag11
ag4
ag13
ag1
ag3
ag15
ag13
ag2
ag3
ag2
ag9
ag13
ag11
ag7
ag5
ag4
ag7
ag13
ag3
ag3
ag16
ag1
ag10
ag4
ag11
ag1
ag7
ag1
ag9
ag3
ag5
ag4
ag1
ag3
ag13
ag1
ag2
ag4
ag7
ag5
ag16
ag4
ag11
ag4
ag13
ag4
ag11
ag9
ag1
ag4
ag4
ag11
ag4
ag12
ag5
ag4
ag9
ag5
ag11
ag3
ag16
ag1
ag5
ag2
ag9
ag3
ag4
ag4
ag11
ag11
ag5
ag4
ag5
ag4
ag1
ag4
ag2
ag3
ag4
ag10
ag4
ag3
ag9
ag4
ag11
ag15
ag4
ag11
ag5
ag4
ag13
ag15
ag4
ag23
ag13
ag4
ag11
ag1
ag11
ag11
ag7
ag5
ag4
ag16
ag4
ag11
ag4
ag1
ag3
ag4
ag24
ag9
ag1
ag4
ag11
ag7
ag1
ag10
ag3
ag13
ag4
ag13
ag1
ag7
ag2
ag4
ag11
ag7
ag1
ag13
ag1
ag7
ag2
ag4
ag3
ag11
ag4
ag11
ag4
ag16
ag1
ag3
ag4
ag7
ag11
ag4
ag3
ag11
ag16
ag5
ag4
ag2
ag3
ag4
ag9
ag3
ag16
ag11
ag15
ag13
ag3
ag11
ag16
ag4
ag2
ag5
ag9
ag3
ag5
ag4
ag1
ag3
ag7
ag2
ag4
aVh
p161
ag12
ag4
ag10
ag4
ag1
ag5
ag4
ag2
ag2
ag13
ag1
ag4
ag11
ag13
ag4
ag1
ag2
ag3
ag2
ag9
ag13
ag11
ag7
ag5
ag4
ag15
ag11
ag4
ag1
ag11
ag2
ag4
ag11
ag4
ag11
ag3
ag4
ag24
ag9
ag1
ag4
ag11
ag3
ag11
ag27
ag4
ag12
ag5
ag5
ag4
ag1
ag4
ag3
ag10
ag4
ag9
ag11
ag7
ag5
ag4
ag2
ag9
ag13
ag11
ag9
ag11
ag11
ag2
ag1
ag1
ag4
ag9
ag11
ag11
ag16
ag9
ag1
ag14
ag4
ag2
ag11
ag11
ag5
ag4
ag9
ag3
ag11
ag4
ag7
ag4
ag2
ag5
ag7
ag2
ag4
ag11
ag11
ag5
ag4
ag3
ag11
ag4
ag7
ag4
ag2
ag5
ag4
ag16
ag4
ag11
ag12
ag5
ag1
ag4
ag9
ag4
ag2
ag5
ag4
ag9
ag3
ag16
ag11
ag4
ag7
ag11
ag11
ag16
ag4
ag2
ag5
ag7
ag2
ag4
ag4
ag9
ag4
ag11
ag11
ag16
ag11
ag5
ag16
ag4
ag4
ag1
ag2
ag4
ag13
ag9
ag5
ag4
ag9
ag9
ag3
ag2
ag11
ag7
ag5
ag4
ag10
ag4
ag1
ag16
ag4
ag11
ag2
ag4
ag5
ag4
ag1
ag4
ag7
aVg
p162
ag13
ag3
ag4
ag5
ag4
ag9
ag9
ag4
ag1
ag11
ag2
ag4
ag7
ag11
ag3
ag2
ag1
ag1
ag4
ag2
ag11
ag4
ag1
ag10
ag3
ag11
ag3
ag7
ag1
ag5
ag4
ag4
ag15
ag13
ag11
ag1
ag2
ag11
ag11
ag11
ag2
ag1
ag13
ag2
ag3
ag7
ag1
ag5
ag4
ag2
ag1
ag1
ag4
ag2
ag11
ag13
ag4
ag1
ag2
ag3
ag4
ag10
ag3
ag13
ag11
ag7
ag5
ag4
ag9
ag3
ag5
ag4
ag1
ag3
ag1
ag4
ag3
ag4
ag16
ag1
ag10
ag23
ag13
ag11
ag4
ag5
ag4
ag3
ag2
ag11
ag7
ag5
ag4
ag2
ag9
ag13
ag11
ag9
ag11
ag9
ag1
ag16
ag1
ag11
aVf
p163
ag1
ag1
ag11
ag13
ag9
ag11
ag4
ag11
ag9
ag1
ag10
ag4
ag1
ag4
ag3
ag4
ag15
ag13
ag11
ag4
ag9
ag4
ag11
ag4
ag11
ag4
ag13
ag1
ag4
ag7
ag5
ag4
ag16
ag1
ag10
ag7
ag4
ag3
ag11
ag2
ag4
ag1
ag2
ag3
ag4
ag4
ag7
ag5
ag4
ag2
ag9
ag11
ag4
ag11
ag1
ag4
ag4
ag13
ag1
ag4
ag1
ag4
ag2
ag3
ag12
ag5
ag3
ag4
ag5
ag4
ag1
ag1
ag4
ag2
ag3
ag2
ag13
ag3
ag4
aVw
p164
ag5
ag7
ag10
ag4
ag11
ag4
ag9
ag4
ag11
ag4
ag11
ag4
ag11
ag1
ag2
ag9
ag11
ag4
ag11
ag10
ag3
ag15
ag3
ag4
ag7
ag1
ag11
ag4
ag1
ag9
ag1
ag4
ag11
ag5
ag4
ag23
ag13
ag4
ag11
ag7
ag12
ag5
ag2
ag5
ag2
ag9
ag11
ag4
ag11
ag13
ag4
ag1
ag4
aVu
p165
ag11
ag16
ag4
ag7
ag1
ag9
ag3
ag13
ag1
ag10
ag4
ag4
ag16
ag11
ag12
ag4
ag11
ag10
ag4
ag16
ag4
ag5
ag4
ag11
ag7
ag1
ag11
ag2
ag11
ag4
ag11
ag9
ag1
ag10
ag4
ag15
ag4
ag2
ag5
ag7
ag5
ag4
ag4
ag11
ag1
ag2
ag9
ag11
ag4
ag11
ag11
ag2
ag15
ag11
ag11
ag5
ag4
ag1
ag4
ag7
ag5
ag4
ag11
ag3
ag13
ag4
ag5
ag4
ag11
ag16
ag13
ag3
ag1
ag10
ag3
ag13
ag4
ag4
ag2
ag9
ag11
ag7
ag5
ag4
ag4
ag16
ag11
ag1
ag24
ag1
ag4
ag13
ag3
ag11
ag16
ag7
ag1
ag9
ag11
ag16
ag5
ag4
ag21
ag11
ag10
ag4
ag1
ag11
ag9
ag1
ag15
ag3
ag4
ag7
ag4
ag4
ag1
ag11
ag11
ag16
ag4
ag11
ag4
ag7
ag1
ag16
ag1
ag10
ag16
ag1
ag4
ag4
ag1
ag9
ag3
ag4
ag16
ag11
ag4
ag13
ag1
ag4
ag13
ag16
ag16
ag4
ag5
ag3
ag1
ag16
ag4
ag1
ag4
ag13
ag1
ag4
ag4
ag11
ag13
ag1
ag2
ag4
ag11
ag2
ag4
ag3
ag3
ag2
ag9
ag11
ag4
ag11
ag11
ag2
ag15
ag11
ag11
ag9
ag1
ag10
ag4
ag3
ag1
ag3
ag4
ag10
ag4
ag3
ag7
ag11
ag7
ag1
ag11
ag2
ag11
ag2
ag4
ag1
ag11
ag11
ag16
ag5
ag4
ag13
ag1
ag2
ag4
ag4
ag11
ag1
ag15
ag13
ag11
ag9
ag3
ag11
ag16
ag1
ag4
ag2
ag9
ag11
ag4
ag11
ag5
ag4
ag11
ag10
ag4
ag1
ag4
ag4
ag4
ag11
ag9
ag1
ag10
ag4
ag11
ag10
ag11
ag16
ag4
ag5
ag2
ag5
ag11
ag16
ag4
ag3
ag3
ag4
ag1
ag4
ag13
ag1
ag4
ag4
ag11
ag13
ag1
ag2
ag4
ag11
ag2
ag4
ag12
ag5
ag4
ag1
ag4
ag13
ag3
ag2
ag9
ag11
ag4
ag11
ag2
ag15
ag11
ag11
ag9
ag1
ag10
ag4
ag1
ag11
ag16
ag4
ag1
ag11
ag7
ag1
ag11
ag2
ag11
ag4
ag11
ag13
ag15
ag4
ag1
ag7
ag11
ag16
ag11
ag16
ag4
ag10
ag4
ag3
ag9
ag4
ag11
ag11
ag5
ag4
ag77
ag16
ag1
ag10
ag4
ag5
ag7
ag1
ag4
ag3
ag9
ag4
ag9
ag1
ag13
ag2
ag11
ag11
ag4
ag23
ag13
ag4
ag1
ag11
ag9
ag1
ag15
ag3
ag4
aVc
p166
ag9
ag3
ag4
ag24
ag4
ag3
ag2
ag11
ag1
ag13
ag2
ag11
ag11
ag4
ag4
ag11
ag3
ag2
ag9
ag11
ag4
ag11
ag7
ag1
ag4
ag11
ag11
ag16
ag7
ag13
ag3
ag7
ag4
ag15
ag3
ag13
ag4
ag11
ag11
ag4
ag1
ag9
ag1
ag4
ag11
ag11
ag77
ag11
ag5
ag4
ag2
ag4
ag7
ag3
ag1
ag4
ag4
ag1
ag10
ag1
ag7
ag1
ag4
ag24
ag9
ag3
ag4
ag5
ag4
ag77
ag16
ag1
ag10
ag4
ag5
ag13
ag4
ag3
ag12
ag5
ag10
ag4
ag1
ag3
ag3
ag4
ag11
ag2
ag11
ag1
ag4
ag9
ag5
ag11
ag10
ag4
ag1
ag3
ag9
ag3
ag2
ag4
ag3
ag1
ag4
ag9
ag1
ag4
ag4
ag11
ag11
ag7
ag7
ag4
ag3
ag4
ag11
ag9
ag1
ag9
ag4
ag1
ag3
ag16
ag13
ag4
ag11
ag1
ag11
ag16
ag4
ag7
ag7
ag1
ag7
ag1
ag4
ag7
ag7
ag4
ag2
ag10
ag4
ag1
ag4
ag4
ag1
ag10
ag1
ag11
ag16
ag4
ag4
ag11
ag4
ag2
ag11
ag5
ag4
ag1
ag2
ag27
ag11
ag16
ag7
ag11
ag14
ag4
ag2
ag4
ag7
ag3
ag13
ag5
ag1
ag13
ag16
ag5
ag11
ag10
ag4
ag1
ag11
ag2
ag11
ag15
ag4
ag16
ag11
ag7
ag2
ag11
ag3
ag9
ag1
ag10
ag4
ag12
ag5
ag5
ag4
ag14
ag11
ag11
ag4
ag1
ag9
ag1
ag4
ag11
ag7
ag13
ag1
ag7
ag2
ag4
ag11
ag15
ag1
ag4
ag5
ag3
ag4
ag16
ag1
ag10
ag5
ag9
ag1
ag2
ag13
ag3
ag1
ag3
ag1
ag4
ag3
ag4
ag10
ag11
ag7
ag1
ag4
ag3
ag9
ag4
ag16
ag1
ag10
ag9
ag1
ag15
ag3
ag4
ag12
ag5
ag4
ag1
ag4
ag13
ag15
ag3
ag4
ag2
ag5
ag11
ag16
ag4
ag11
ag4
ag11
ag2
ag11
ag1
ag4
ag9
ag5
ag11
ag9
ag1
ag13
ag2
ag4
ag13
ag1
ag7
ag2
ag4
ag5
ag3
ag11
ag4
ag2
ag11
ag11
ag5
ag4
ag11
ag4
ag2
ag4
ag1
ag11
ag7
ag1
ag11
ag1
ag4
ag2
ag10
ag4
ag1
ag5
ag4
ag15
ag13
ag11
ag1
ag4
ag7
ag7
ag3
ag13
ag10
ag4
ag4
ag11
aVc
p167
ag9
ag3
ag4
ag24
ag4
ag3
ag2
ag11
ag1
ag13
ag2
ag11
ag11
ag1
ag15
ag13
ag11
ag10
ag4
ag1
ag11
ag5
ag12
ag5
ag4
ag3
ag9
ag4
ag16
ag1
ag10
ag13
ag1
ag10
ag4
ag2
ag11
ag1
ag15
ag13
ag4
ag9
ag1
ag10
ag4
ag9
ag1
ag13
ag2
ag11
ag4
ag7
ag7
ag2
ag4
ag11
ag2
ag11
ag16
ag4
ag11
ag4
ag1
ag3
ag11
ag4
aVc
p168
ag1
ag3
ag7
ag13
ag3
ag3
ag12
ag10
ag4
ag7
ag1
ag11
ag10
ag4
ag1
ag11
ag1
ag4
ag16
ag5
ag11
ag4
ag16
ag1
ag4
ag9
ag1
ag1
ag11
ag7
ag1
ag11
ag4
ag2
ag1
ag15
ag4
ag15
ag16
ag4
ag2
ag3
ag3
ag16
ag1
ag5
ag12
ag5
aVb
p169
ag4
ag11
ag11
ag10
ag4
ag1
ag4
ag9
ag1
ag15
ag3
ag4
ag5
ag4
ag1
ag5
ag4
ag4
ag24
ag4
ag11
ag4
ag4
ag1
ag9
ag3
ag3
ag16
ag1
ag5
ag2
ag11
ag15
ag4
ag13
ag4
ag9
ag3
ag4
ag5
ag4
ag9
ag4
ag1
ag1
ag9
ag1
ag15
ag15
ag3
ag4
ag11
ag7
ag5
ag16
ag5
ag3
ag11
ag11
ag3
ag11
ag4
ag1
ag11
ag10
ag4
ag1
ag4
ag9
ag1
ag15
ag3
ag4
ag13
ag2
ag5
ag7
ag13
ag3
ag3
ag12
ag10
ag4
ag7
ag1
ag11
ag10
ag4
ag1
ag11
ag4
ag23
ag13
ag4
ag11
ag3
aVg
p170
ag15
ag15
ag9
ag3
ag11
ag16
ag4
ag5
ag5
ag3
ag3
ag12
ag4
ag7
ag7
ag2
ag4
ag11
ag9
ag3
ag11
ag16
ag7
ag9
ag1
ag1
ag9
ag1
ag15
ag15
ag3
ag4
ag11
ag4
ag4
ag2
ag1
ag15
ag4
ag15
ag16
ag4
ag2
ag3
ag3
ag16
ag1
ag5
ag15
ag4
ag11
ag4
ag5
ag4
ag1
ag12
ag9
ag11
ag4
ag16
aVg
p171
ag13
ag11
ag1
ag13
ag3
ag9
ag3
ag4
ag9
ag11
ag2
aVw
p172
ag4
ag13
ag3
ag11
ag4
ag5
ag4
ag5
ag4
ag1
ag4
ag2
ag3
ag7
ag1
ag4
ag12
ag1
ag27
ag7
ag1
ag7
ag13
ag3
ag3
ag12
ag10
ag4
ag7
ag1
ag11
ag10
ag4
ag1
ag11
ag1
ag4
ag16
ag5
ag11
ag4
ag16
ag1
ag4
ag5
ag4
ag4
ag24
ag4
ag11
ag4
ag4
ag1
ag9
ag3
ag3
ag16
ag1
ag5
ag12
ag5
ag4
ag23
ag13
ag4
ag11
ag3
aVg
p173
ag15
ag15
ag9
ag3
ag11
ag16
ag13
ag2
ag5
ag5
ag1
ag15
ag1
ag1
ag2
ag9
ag3
ag4
ag24
ag16
ag4
ag2
ag3
ag3
ag4
ag7
ag11
ag4
ag9
ag1
ag1
ag11
ag7
ag1
ag11
ag2
ag11
ag15
ag4
ag11
ag2
ag3
ag13
ag4
ag5
ag4
ag4
ag4
ag12
ag4
ag5
ag12
ag5
ag12
ag4
ag9
ag1
ag3
ag3
ag11
ag1
ag9
ag3
ag3
ag2
ag1
ag1
ag4
ag3
ag4
ag13
ag11
ag2
ag4
ag1
ag11
ag4
ag2
ag11
ag15
ag4
ag27
ag4
ag11
ag11
ag2
ag2
ag13
ag11
ag13
ag1
ag11
ag16
ag5
ag4
ag11
ag10
ag4
ag1
ag11
ag5
ag4
ag13
ag16
ag16
ag4
ag4
ag11
ag10
ag4
ag1
ag11
ag1
ag4
ag16
ag4
ag4
ag11
ag11
ag5
ag4
ag2
ag16
ag1
ag9
ag5
ag2
ag2
ag1
ag5
ag3
ag4
ag16
ag4
ag11
ag11
ag3
ag9
ag4
ag11
ag3
ag7
ag4
ag3
ag16
ag1
ag11
ag7
ag1
ag1
ag9
ag16
ag11
ag16
ag7
ag4
ag11
ag1
ag4
ag3
ag16
ag11
ag4
ag2
ag11
ag4
ag11
ag13
ag1
ag10
ag4
ag11
ag1
ag13
ag2
ag4
ag11
ag1
ag4
ag3
ag4
ag9
ag9
ag3
ag2
ag11
ag1
ag4
ag2
ag13
ag4
aVp
p174
ag4
ag11
ag3
ag7
ag4
ag3
ag16
ag1
ag11
ag15
ag4
ag11
ag1
ag4
ag2
ag11
ag4
ag16
ag1
ag3
ag1
ag11
ag7
ag1
ag11
ag7
ag5
ag4
ag4
ag13
ag1
ag4
ag11
ag21
ag13
ag2
ag4
ag9
ag15
ag3
ag4
ag3
ag12
ag5
ag2
ag5
ag2
ag13
ag3
ag15
ag4
ag1
ag4
ag2
ag3
ag13
ag4
ag7
ag1
ag11
ag4
ag1
ag9
ag1
ag4
ag11
ag1
ag11
ag9
ag1
ag1
ag4
ag3
ag7
ag1
ag13
ag15
ag4
ag23
ag13
ag4
ag11
ag1
ag4
ag16
ag13
ag3
ag1
ag32
ag4
ag11
ag10
ag4
ag1
ag11
ag5
ag4
ag10
ag11
ag16
ag4
ag7
ag16
ag1
ag11
ag5
ag4
ag11
ag1
ag4
ag23
ag13
ag1
ag4
ag11
ag9
ag1
ag1
ag11
ag7
ag1
ag11
ag15
ag13
ag5
ag4
ag9
ag4
ag7
ag5
ag4
ag13
ag1
ag2
ag4
ag9
ag1
ag4
ag4
ag11
ag11
ag1
ag4
ag1
ag4
ag3
ag11
ag1
ag4
ag16
ag13
ag3
ag1
ag32
ag11
ag9
ag4
ag1
ag11
ag10
ag4
ag1
ag11
ag16
ag1
ag11
ag10
ag4
ag1
ag15
ag3
ag4
ag12
ag5
ag1
ag4
ag9
ag4
ag2
ag11
ag4
ag11
ag4
ag13
ag1
ag4
ag15
ag4
ag2
ag13
ag4
ag5
ag4
ag1
ag11
ag7
ag1
ag1
ag4
ag13
ag2
ag4
ag5
ag4
ag12
ag11
ag12
ag1
ag2
ag11
ag11
ag13
ag11
ag7
ag7
ag13
ag11
ag2
ag11
ag5
ag11
ag3
ag2
ag3
ag4
ag10
ag4
ag1
ag12
ag5
ag4
ag1
ag4
ag11
ag5
ag4
ag13
ag15
ag13
ag1
ag7
ag2
ag4
ag5
ag4
ag21
ag16
ag1
ag11
ag7
ag2
ag23
ag13
ag1
ag4
ag10
ag4
ag1
ag5
ag4
aVr
p175
ag4
ag5
ag7
ag7
ag4
ag4
ag11
ag11
ag1
aVc
p176
ag11
ag13
ag4
ag4
ag13
ag13
ag1
ag1
ag4
ag13
ag3
ag1
ag4
ag5
ag12
ag11
ag15
ag4
ag2
ag11
ag4
ag11
ag12
ag5
ag5
ag4
ag1
ag4
ag13
ag3
ag15
ag11
ag4
ag7
ag1
ag21
ag1
ag4
ag16
ag13
ag3
ag1
ag32
ag4
ag11
ag10
ag4
ag1
ag11
ag12
ag4
ag3
ag3
ag5
ag4
ag27
ag11
ag12
ag11
ag16
ag4
ag3
ag16
ag7
ag5
ag4
ag1
ag4
ag11
ag7
ag5
ag1
ag2
ag1
ag15
ag11
ag1
ag4
ag4
ag1
ag10
ag1
ag2
ag11
ag4
ag3
ag3
ag15
ag4
ag13
ag4
ag4
ag4
ag5
ag4
ag4
ag7
ag7
ag4
ag2
ag10
ag4
ag1
ag4
ag2
ag11
ag16
ag11
ag5
ag4
ag4
ag7
ag7
ag4
ag2
ag10
ag4
ag1
ag4
ag11
ag5
ag4
ag13
ag15
ag13
ag1
ag7
ag2
ag4
ag5
ag4
ag7
ag7
ag4
ag1
ag4
ag11
ag2
ag4
ag15
ag4
ag12
ag4
ag4
ag11
ag5
ag4
ag1
ag4
ag13
ag4
ag5
ag4
ag12
ag4
ag16
ag5
ag7
ag5
ag4
ag4
ag4
ag11
ag11
ag7
ag1
ag2
ag11
ag4
ag7
ag7
ag4
ag2
ag10
ag4
ag1
ag4
ag2
ag4
ag7
ag7
ag2
ag4
ag11
ag7
ag5
ag4
ag9
ag1
ag4
ag9
ag1
ag4
ag13
ag1
ag4
ag5
ag4
ag4
ag7
ag7
ag4
ag2
ag10
ag4
ag1
ag4
ag2
ag4
ag7
ag7
ag2
ag4
ag11
ag5
ag13
ag1
ag4
ag3
ag4
ag10
ag11
ag7
ag1
ag13
ag11
ag16
ag1
ag4
ag4
ag1
ag10
ag1
ag4
ag7
ag1
ag11
ag11
ag7
ag1
ag4
ag10
ag3
ag13
ag11
ag16
ag77
ag4
ag2
ag7
ag1
ag5
ag4
ag2
ag1
ag1
ag4
ag2
ag9
ag1
ag4
ag9
ag1
ag4
ag13
ag1
ag4
ag9
ag1
ag4
ag2
ag11
ag5
ag4
ag2
ag4
ag7
ag7
ag4
ag2
ag10
ag4
ag1
ag4
ag2
ag4
ag7
ag7
ag2
ag4
ag11
ag11
ag4
ag4
ag7
ag1
ag4
ag2
ag5
ag11
ag2
ag3
ag4
ag11
ag5
ag16
ag5
ag3
ag1
ag4
ag3
ag4
ag10
ag11
ag7
ag1
ag4
ag7
ag7
ag4
ag2
ag10
ag4
ag1
ag4
ag9
ag1
ag4
ag2
ag11
ag15
ag4
ag2
ag13
ag4
ag1
ag4
ag2
ag3
ag1
ag4
ag3
ag4
ag4
ag2
ag5
ag11
ag2
ag3
ag1
ag11
ag11
ag5
ag4
ag4
ag3
ag2
ag1
ag4
ag1
ag4
ag16
ag4
ag5
ag4
ag2
ag1
ag1
ag4
ag9
ag11
ag11
ag16
ag11
ag2
ag4
ag7
ag7
ag4
ag2
ag10
ag4
ag1
ag4
ag2
ag4
ag7
ag7
ag2
ag4
ag11
ag4
ag4
ag4
ag7
ag1
ag4
ag11
ag11
ag10
ag4
ag3
ag2
ag7
ag2
ag13
ag2
ag4
ag3
ag2
ag12
ag10
ag4
aVw
p177
ag4
ag13
ag4
ag11
ag11
ag7
ag2
ag5
ag3
ag27
ag7
ag1
ag5
ag4
ag1
ag4
ag4
ag1
ag10
ag1
ag32
ag11
ag4
ag7
ag5
ag4
aVv
p178
ag3
ag5
ag3
ag3
ag7
ag4
ag3
aVn
p179
ag1
ag5
ag4
ag11
ag7
ag13
ag11
ag5
ag11
ag11
ag10
ag1
ag12
ag5
ag7
ag7
ag4
ag1
ag4
ag11
ag3
ag1
ag4
ag10
ag4
ag1
ag15
ag13
ag1
ag4
ag11
ag1
ag4
ag9
ag1
ag4
ag9
ag1
ag4
ag13
ag1
ag4
aVf
p180
ag1
aVv
p181
ag3
ag5
ag3
ag3
ag1
ag4
ag4
ag1
ag10
ag1
ag2
ag5
ag3
ag27
ag12
ag5
ag77
ag50
ag9
ag1
ag1
ag11
ag16
ag4
ag15
ag4
ag12
ag11
ag11
ag4
ag1
ag10
ag4
ag9
ag9
ag1
ag2
ag5
ag7
ag1
ag23
ag13
ag2
ag11
ag11
ag13
ag13
ag4
ag3
ag9
ag4
ag4
ag2
ag1
ag4
ag4
ag1
ag10
ag1
ag11
ag1
ag11
ag16
ag5
ag9
ag9
ag1
ag2
ag5
ag11
ag10
ag3
ag10
ag4
ag1
ag4
ag2
ag1
ag11
ag16
ag9
ag1
ag4
ag4
ag7
ag1
ag4
ag23
ag13
ag4
ag11
ag3
ag1
ag5
ag4
ag1
ag5
ag11
ag2
ag9
ag3
ag4
ag4
ag4
ag11
ag7
ag1
ag4
ag23
ag13
ag4
ag11
ag3
ag11
ag5
ag4
ag1
ag12
ag1
ag11
ag10
ag3
ag10
ag4
ag2
ag23
ag13
ag1
ag11
ag16
ag2
ag9
ag3
ag4
ag4
ag3
ag9
ag3
ag4
ag15
ag4
ag3
ag11
ag4
ag4
ag7
ag3
ag3
ag12
ag4
ag15
ag9
ag1
ag4
ag11
ag1
ag4
ag5
ag1
ag2
ag3
ag4
ag11
ag1
ag4
ag11
ag4
ag1
ag10
ag3
aVw
p182
ag4
ag13
ag4
ag5
ag4
ag4
ag1
ag9
ag1
ag4
ag4
ag2
ag1
ag15
ag4
ag4
ag5
ag3
ag3
ag7
ag1
ag2
ag11
ag7
ag12
ag5
ag12
ag13
ag3
ag11
ag1
ag3
ag3
ag15
ag4
ag1
ag4
ag2
ag1
ag4
ag11
ag5
ag4
ag7
ag4
ag3
ag1
ag4
ag2
ag11
ag1
ag13
ag2
ag5
ag16
ag5
ag9
ag3
ag1
ag4
ag3
ag13
ag11
ag16
ag4
ag7
ag5
ag4
ag13
ag15
ag13
ag1
ag7
ag2
ag4
aVe
p183
ag2
ag5
ag11
ag1
ag4
ag2
ag13
ag3
ag15
ag4
ag3
ag3
ag4
ag71
ag7
ag11
ag16
ag3
ag4
ag2
ag9
ag3
ag4
ag4
ag2
ag11
ag10
ag4
ag11
ag11
ag3
ag4
ag5
ag4
ag4
ag1
ag4
ag7
ag1
ag4
ag2
ag1
ag4
ag4
ag3
ag9
ag4
ag4
ag5
ag4
ag11
ag13
ag4
ag4
ag4
ag11
ag16
ag13
ag11
ag1
ag4
ag2
ag1
ag4
ag11
ag5
ag4
ag9
ag1
ag4
ag4
ag5
ag4
ag9
ag9
ag1
ag2
ag5
ag12
ag4
ag4
ag11
ag11
ag5
ag4
ag2
ag11
ag7
ag4
ag3
ag2
ag1
ag12
ag4
ag3
ag3
ag1
ag10
ag4
ag3
ag4
ag4
aVr
p184
ag4
ag13
ag3
ag5
ag12
ag5
ag5
ag9
ag9
ag1
ag2
ag5
ag2
ag11
ag15
ag4
ag4
ag7
ag7
ag4
ag2
ag10
ag4
ag7
ag1
ag23
ag13
ag2
ag11
ag11
ag13
ag13
ag1
ag4
ag4
ag1
ag10
ag1
ag11
ag1
ag11
ag16
ag3
ag5
ag4
ag2
ag2
ag13
ag1
ag2
ag7
ag5
ag4
ag4
ag4
ag11
ag2
ag1
ag4
ag4
ag1
ag4
ag9
ag1
ag4
ag4
ag1
ag4
ag4
ag5
ag4
ag4
ag3
ag9
ag7
ag1
ag5
ag4
ag4
ag7
ag7
ag2
ag4
ag11
ag2
ag9
ag13
ag11
ag7
ag13
ag3
ag7
ag1
ag4
ag23
ag13
ag4
ag11
ag2
ag7
ag2
ag3
ag15
ag4
ag7
ag1
ag21
ag4
ag2
ag2
ag23
ag13
ag11
ag16
ag4
ag4
ag1
ag11
ag3
ag5
ag15
ag4
ag4
ag11
ag4
ag10
ag4
ag3
ag9
ag4
aVb
p185
ag2
ag9
ag13
ag11
ag16
ag5
ag4
ag7
ag1
ag3
ag3
ag5
ag4
ag7
ag1
ag4
ag23
ag13
ag4
ag11
ag2
ag2
ag9
ag11
ag4
ag11
ag7
ag4
ag2
ag11
ag16
ag3
ag4
ag7
ag1
ag4
ag23
ag13
ag4
ag11
ag2
ag7
ag2
ag3
ag15
ag4
ag2
ag11
ag15
ag4
ag4
ag24
ag4
ag11
ag4
ag13
ag3
ag7
ag1
ag4
ag23
ag13
ag4
ag11
ag2
ag7
ag2
ag3
ag15
ag4
aVh
p186
ag12
ag4
ag10
ag4
ag1
ag5
ag1
ag16
ag5
ag7
ag1
ag12
ag1
ag4
ag5
ag11
ag10
ag3
ag10
ag4
ag2
ag11
ag4
ag1
ag15
ag3
ag4
ag2
ag9
ag13
ag4
ag1
ag4
ag11
ag4
ag1
ag1
ag4
ag23
ag13
ag1
ag4
ag4
ag11
ag4
ag9
ag4
ag2
ag3
ag3
ag11
ag2
ag9
ag3
ag4
ag24
ag4
ag4
ag11
ag16
ag5
ag4
ag1
ag4
ag7
ag1
ag4
ag12
ag4
ag9
ag1
ag9
ag4
ag1
ag9
ag21
ag13
ag3
ag7
ag1
ag4
ag23
ag13
ag4
ag11
ag2
ag7
ag2
ag3
ag15
ag4
ag4
ag5
ag11
ag12
ag5
ag2
ag5
ag11
ag3
ag7
ag4
ag12
ag11
ag16
ag3
ag4
ag7
ag1
ag4
ag23
ag13
ag4
ag11
ag2
ag7
ag2
ag3
ag15
ag4
ag2
ag9
ag13
ag11
ag1
ag4
ag7
ag3
ag3
ag12
ag4
ag15
ag11
ag13
ag15
ag4
ag1
ag7
ag1
ag11
ag4
ag1
ag9
ag3
ag11
ag5
ag4
ag21
ag12
ag10
ag4
ag7
ag4
ag3
ag4
ag24
ag1
ag9
ag3
ag11
ag11
ag5
ag4
ag7
ag2
ag3
ag15
ag4
ag11
ag3
ag2
ag11
ag13
ag2
ag4
ag15
ag5
ag4
ag2
ag15
ag11
ag4
ag9
ag9
ag3
ag2
ag11
ag7
ag21
ag4
ag16
ag4
ag11
ag4
ag1
ag4
aVf
p187
ag13
ag1
ag4
ag1
ag16
ag1
ag1
ag11
ag21
aVb
p188
ag1
ag11
aVk
p189
ag1
ag2
ag5
ag5
ag7
ag7
ag11
ag4
ag1
ag9
ag3
ag11
ag9
ag4
ag1
ag1
ag9
ag1
ag2
ag4
ag5
ag1
ag4
ag13
ag2
ag4
ag5
ag4
ag2
ag9
ag13
ag11
ag3
ag2
ag7
ag1
ag2
ag9
ag3
ag4
ag24
ag4
ag5
ag4
ag13
ag3
ag7
ag1
ag4
ag23
ag13
ag4
ag11
ag2
ag7
ag2
ag3
ag15
ag4
ag11
ag3
ag9
ag9
ag3
ag4
ag21
ag4
ag3
ag7
ag1
ag11
ag3
ag7
ag4
ag3
ag7
aVc
p190
ag5
ag11
ag4
ag11
ag1
ag11
ag16
ag5
ag12
ag9
ag3
ag9
ag3
ag11
ag16
ag7
ag7
ag4
ag1
ag4
ag11
ag2
ag4
ag7
ag7
ag4
ag2
ag4
ag2
ag16
ag11
ag16
ag11
ag3
ag4
ag2
ag13
ag1
ag10
ag4
ag5
ag4
ag7
ag1
ag11
ag16
ag4
ag15
ag4
ag12
ag4
ag4
ag11
ag5
ag13
ag2
ag5
ag5
ag5
ag4
ag5
ag1
ag4
ag2
ag1
ag11
ag11
ag4
ag1
ag7
ag4
ag1
ag4
ag11
ag4
aVh
p191
ag12
ag4
ag10
ag4
ag1
ag11
ag5
ag4
ag2
ag11
ag2
ag4
ag9
ag7
ag15
ag3
ag4
ag11
ag4
ag2
ag23
ag13
ag11
ag5
ag4
ag1
ag4
ag2
ag1
ag10
ag4
ag1
ag3
ag9
ag3
ag3
ag12
ag11
ag16
ag4
ag11
ag4
ag1
ag13
ag1
ag2
ag4
ag9
ag3
ag11
ag16
ag11
ag12
ag4
ag1
ag32
ag13
ag5
ag11
ag11
ag4
ag2
ag11
ag2
ag12
ag4
ag11
ag4
ag1
ag5
ag9
ag3
ag11
ag16
ag11
ag12
ag4
ag1
ag32
ag13
ag5
ag27
ag4
ag5
ag4
ag2
ag5
ag13
ag15
ag13
ag1
ag7
ag2
ag4
ag16
ag1
ag9
ag11
ag3
ag3
ag13
ag11
ag4
ag7
ag1
ag3
ag1
ag16
ag4
ag1
ag11
ag13
ag15
ag4
ag1
ag7
ag11
ag16
ag3
ag4
ag11
ag12
ag3
ag3
ag5
ag4
ag1
ag4
ag7
ag1
ag4
ag9
ag1
ag10
ag4
ag5
ag4
ag16
ag4
ag23
ag13
ag3
ag11
ag4
ag1
ag7
ag16
ag11
ag3
ag11
ag4
ag1
ag11
ag9
ag3
ag1
ag4
ag3
ag13
ag11
aVw
p192
ag4
ag5
ag12
ag5
ag4
ag10
ag4
ag11
ag12
ag5
ag10
ag4
ag1
ag9
ag3
ag4
ag15
ag3
ag4
ag11
ag11
ag16
ag9
ag1
ag4
ag4
ag1
ag3
ag27
ag4
ag4
ag4
ag3
ag5
ag4
ag11
ag2
ag4
ag11
ag12
ag10
ag4
ag7
ag4
ag3
ag9
ag4
ag2
ag7
ag2
ag13
ag15
ag13
ag1
ag7
ag2
ag4
ag16
ag1
ag9
ag11
ag1
ag4
ag9
ag1
ag4
ag4
ag11
ag9
ag4
ag1
ag4
ag4
ag4
ag1
ag4
ag12
ag5
ag2
ag9
ag3
ag4
ag24
ag2
ag4
aVf
p193
ag1
ag5
ag1
ag4
ag2
ag1
ag16
ag1
ag11
ag9
ag13
ag1
ag9
ag4
ag5
ag4
ag4
ag1
ag4
ag13
ag5
ag10
ag4
ag15
ag3
ag4
ag11
ag10
ag4
ag1
ag4
ag11
ag11
ag4
ag24
ag4
ag9
ag12
ag4
ag5
ag12
ag5
ag5
ag4
ag3
ag3
ag13
ag11
ag11
ag2
ag11
ag15
ag4
ag7
ag13
ag1
ag5
ag4
ag1
ag9
ag1
ag10
ag4
ag15
ag13
ag3
ag32
ag11
ag16
ag5
ag4
ag13
ag1
ag7
ag2
ag4
ag1
ag4
ag3
ag4
ag13
ag3
ag9
ag3
ag4
ag5
ag4
ag11
ag5
ag5
ag4
ag4
ag13
ag3
ag9
ag3
ag4
ag2
ag11
ag15
ag4
ag4
ag24
ag9
ag3
ag4
ag9
ag1
ag10
ag4
ag5
ag4
ag11
ag2
ag4
ag11
ag12
ag10
ag4
ag7
ag4
ag3
ag15
ag7
ag3
ag3
ag11
ag16
ag11
ag16
ag3
ag4
ag16
ag9
ag11
ag5
ag4
ag3
ag3
ag13
ag11
ag11
ag11
ag1
ag15
ag4
ag24
ag4
ag11
ag11
ag16
ag13
ag4
ag3
ag2
ag12
ag10
ag4
ag7
ag4
ag3
ag11
ag4
ag1
ag7
ag4
ag1
ag4
ag1
ag12
ag13
ag4
ag1
ag4
ag2
ag10
ag4
ag1
aVp
p194
ag11
ag12
ag10
ag4
ag7
ag1
ag5
ag4
ag21
aVp
p195
ag12
ag10
ag4
ag10
ag15
ag1
ag1
aVv
p196
aVp
p197
aVw
p198
ag13
ag4
ag1
ag7
ag4
ag3
ag11
aVw
p199
ag11
ag16
ag12
ag10
ag4
ag10
ag4
ag3
ag2
ag11
ag15
ag1
ag4
ag7
ag1
ag11
ag16
ag4
ag11
ag2
ag4
ag7
ag9
ag1
ag2
ag13
ag3
ag1
ag11
ag4
ag1
ag4
ag7
ag1
ag5
ag4
ag16
ag4
ag9
ag5
ag2
ag3
ag15
ag14
ag4
ag2
ag10
ag4
ag7
ag3
ag5
ag3
ag16
ag2
ag1
ag11
ag11
ag11
ag7
ag1
ag2
ag13
ag1
ag4
ag2
ag5
ag1
ag2
ag4
ag1
ag32
ag11
ag11
ag11
ag13
ag1
ag3
ag3
ag7
ag1
ag2
ag13
ag1
ag4
ag16
ag5
ag16
ag11
ag1
ag4
ag4
ag1
ag10
ag1
aVb
p200
ag4
ag2
ag13
ag4
ag12
ag4
ag1
ag4
ag3
ag11
ag4
ag2
ag11
ag10
ag3
ag13
ag11
ag11
ag4
ag1
ag7
ag4
ag1
ag4
ag1
ag7
ag1
ag1
ag4
ag1
ag4
ag10
ag11
ag16
ag11
ag4
ag1
ag1
ag4
ag2
ag4
ag10
ag4
ag1
aVp
p201
ag11
ag12
ag10
ag4
ag11
ag5
ag4
ag13
ag15
ag13
ag1
ag7
ag2
ag4
ag5
ag4
ag13
ag9
ag13
ag7
ag4
ag3
ag1
ag4
ag13
ag15
ag3
ag4
ag7
ag1
ag5
ag16
ag5
ag1
ag4
ag3
ag13
ag11
ag3
ag2
ag3
ag1
ag4
ag4
ag1
ag10
ag1
ag2
ag5
ag1
ag2
ag4
ag1
ag32
ag11
ag11
ag25
ag4
ag12
ag5
ag4
ag1
ag4
ag5
ag4
ag15
ag1
ag4
ag5
ag3
ag4
ag11
ag4
ag1
ag3
ag10
ag4
ag1
ag2
ag3
ag5
ag4
ag11
ag1
ag9
ag5
ag4
ag9
ag11
ag11
ag2
ag11
ag13
ag2
ag10
ag4
ag2
ag11
ag10
ag4
ag11
ag11
ag3
ag11
ag4
ag1
ag7
ag4
ag1
ag4
ag1
ag1
ag11
ag16
ag13
ag15
ag4
ag12
ag10
ag4
ag11
ag4
ag16
ag4
ag11
ag4
ag1
ag4
ag15
ag9
ag5
ag2
ag3
ag13
ag1
ag2
ag4
ag11
ag4
ag1
ag5
ag4
ag15
ag1
ag4
ag5
ag3
ag4
ag11
ag4
ag1
ag7
ag4
ag1
ag4
ag12
ag5
ag12
ag10
ag4
ag9
ag3
ag11
ag16
ag11
ag3
ag4
ag3
ag2
ag11
ag10
ag4
ag1
ag4
aVp
p202
ag12
ag10
ag4
aVp
p203
ag12
ag10
ag4
ag9
ag3
ag1
ag1
ag4
ag10
ag4
ag1
ag3
ag2
ag2
ag13
ag1
ag32
ag4
ag1
ag7
ag7
ag4
ag11
ag2
ag11
ag2
ag4
ag3
ag5
ag4
ag1
ag1
ag4
ag2
ag10
ag4
ag1
aVw
p204
ag4
ag4
ag10
ag4
ag3
ag9
ag4
ag4
ag5
ag4
ag3
ag11
ag4
ag13
ag15
ag4
ag12
ag10
ag4
ag11
ag4
ag15
ag1
ag4
ag10
ag11
ag16
ag9
ag5
ag2
ag3
ag13
ag1
ag2
ag4
ag5
ag4
ag11
ag1
ag9
ag5
ag4
ag9
ag11
ag11
ag9
ag4
ag1
ag13
ag1
ag15
ag4
aVb
p205
ag4
ag11
ag4
ag5
ag3
ag16
ag7
ag1
ag4
ag16
ag11
ag11
ag16
ag4
ag2
ag4
ag24
ag9
ag4
ag1
ag4
ag11
ag5
ag9
ag3
ag3
ag24
ag32
ag4
ag4
ag3
ag9
ag1
ag4
ag4
ag1
ag1
ag4
ag3
ag13
ag11
ag7
ag1
ag16
ag11
ag16
ag9
ag13
ag1
ag9
ag4
ag5
ag4
ag9
ag1
ag9
ag4
ag9
ag3
ag4
ag24
ag9
ag4
ag1
ag4
ag11
ag4
ag16
ag11
ag3
ag16
ag1
ag5
ag7
ag11
ag5
ag4
ag4
ag13
ag1
ag4
ag4
ag11
ag5
ag1
ag4
ag3
ag27
ag4
ag3
ag9
ag3
ag3
ag1
ag4
ag13
ag2
ag4
ag5
ag4
ag4
ag24
ag9
ag4
ag2
ag4
ag13
ag11
ag2
ag4
ag1
ag11
ag11
ag5
ag4
ag4
ag3
ag9
ag1
ag4
ag4
ag1
ag5
aVb
p206
ag4
ag11
ag9
ag3
ag15
ag4
ag3
ag16
ag1
ag5
ag11
ag32
ag4
ag5
ag4
ag10
ag3
ag13
ag4
ag7
ag5
ag4
ag4
ag24
ag9
ag4
ag2
ag4
ag2
ag11
ag7
ag4
ag11
ag2
ag4
ag4
ag3
ag3
ag9
ag11
ag3
ag4
ag5
ag4
ag24
ag32
ag11
ag7
ag5
ag4
ag4
ag24
ag9
ag4
ag2
ag4
ag1
ag4
ag3
ag13
ag11
ag7
ag5
ag4
ag4
ag3
ag9
ag1
ag4
ag4
ag1
aVc
p207
ag9
ag13
ag11
ag3
ag4
ag7
ag7
ag2
ag4
ag11
ag2
ag2
ag5
ag4
ag10
ag4
ag15
ag16
ag1
ag4
ag4
ag3
ag16
ag1
ag5
ag11
ag12
ag5
ag2
ag5
ag5
ag4
ag4
ag16
ag11
ag4
ag23
ag13
ag4
ag11
ag3
ag3
ag9
ag1
ag10
ag4
ag11
ag2
ag11
ag1
ag11
ag32
ag11
ag16
ag5
ag4
ag13
ag11
ag2
ag4
ag1
ag11
ag10
ag3
ag13
ag4
ag10
ag4
ag1
ag5
ag4
ag4
ag11
ag1
ag4
ag13
ag15
ag13
ag1
ag7
ag2
ag4
ag13
ag3
ag11
ag4
ag13
ag3
ag1
ag4
ag7
ag11
ag4
ag4
ag11
ag7
ag5
ag4
ag3
ag16
ag1
ag5
ag11
ag32
ag4
ag5
ag4
ag1
ag16
ag11
ag3
ag13
ag11
ag2
ag4
ag1
ag11
ag4
ag11
ag1
ag4
ag16
ag11
ag7
ag11
ag4
ag1
ag4
ag11
ag32
ag11
ag16
ag1
ag16
ag11
ag3
ag13
ag11
ag2
ag4
ag1
ag11
ag4
ag13
ag3
ag11
ag4
ag13
ag3
ag2
ag2
ag13
ag11
ag7
ag1
ag23
ag13
ag11
ag10
ag4
ag9
ag1
ag1
ag4
ag3
ag13
ag11
ag2
ag4
ag1
ag11
ag4
ag12
ag5
ag3
ag4
ag5
ag11
ag1
ag11
ag16
ag23
ag13
ag3
ag10
ag4
ag7
ag2
ag13
ag11
ag9
ag1
ag2
ag13
ag3
ag1
ag1
ag4
ag16
ag11
ag7
ag11
ag4
ag1
ag4
ag5
ag4
ag15
ag4
ag11
ag4
ag7
ag7
ag5
ag4
ag9
ag1
ag9
ag4
ag4
ag5
ag10
ag4
ag1
ag1
ag11
ag3
ag11
ag11
aVb
p208
ag4
ag11
ag11
ag4
ag1
ag4
ag4
ag2
ag13
ag1
ag1
ag4
ag11
ag4
ag10
ag4
ag3
ag9
ag4
ag11
ag11
ag16
ag11
ag16
ag2
ag9
ag13
ag11
ag3
ag4
ag2
ag5
ag11
ag23
ag13
ag4
ag11
ag1
ag4
ag13
ag1
ag2
ag4
ag2
ag9
ag13
ag11
ag3
ag1
ag2
ag27
ag9
ag5
ag2
ag5
ag15
ag4
ag4
ag11
ag4
ag4
ag1
ag16
ag11
ag16
ag11
ag4
ag12
ag7
ag4
ag3
ag7
ag13
aVp
p209
ag1
ag9
ag4
ag1
ag4
ag7
ag1
ag2
ag27
ag1
ag4
ag4
ag24
ag11
ag4
ag15
ag2
ag1
ag1
ag11
ag16
ag13
ag4
ag24
ag4
ag11
ag10
ag4
ag11
ag13
ag4
ag1
ag2
ag3
ag13
ag3
ag11
ag11
ag1
ag2
ag27
ag5
ag5
ag10
ag4
ag15
ag4
ag4
ag11
ag16
ag32
ag4
ag13
ag11
ag16
ag5
ag16
ag5
ag1
ag4
ag3
ag13
ag11
aVx
p210
ag1
aVc
p211
ag2
ag11
ag5
ag4
ag13
ag3
ag4
ag16
ag3
ag7
ag2
ag9
ag13
ag11
ag3
ag1
ag2
ag27
ag9
ag5
ag2
ag13
ag9
ag9
ag3
ag4
ag4
ag11
ag5
ag4
ag1
ag11
ag3
ag3
ag15
ag1
ag1
ag4
ag13
ag1
ag4
ag4
ag11
ag12
ag5
ag2
ag5
ag1
ag4
ag4
ag2
ag11
ag13
ag11
ag16
ag12
ag5
ag7
ag4
ag1
ag11
ag13
ag4
ag1
ag2
ag3
ag13
ag3
ag11
ag5
ag3
ag3
ag12
ag5
ag4
ag9
ag1
ag4
ag4
ag1
ag9
ag2
ag4
ag15
ag4
ag4
ag24
ag9
ag3
ag1
ag4
ag1
ag4
ag5
ag1
ag13
ag16
ag5
ag3
aVw
p212
ag4
ag9
ag9
ag3
ag4
ag5
ag4
ag7
ag11
ag4
ag4
ag3
ag4
ag4
ag11
ag4
ag5
ag2
ag9
ag13
ag4
ag5
ag4
ag2
ag4
ag7
ag7
ag4
ag2
ag10
ag4
ag4
ag3
ag2
ag9
ag1
ag9
ag4
ag1
ag4
ag7
ag1
ag21
ag2
ag1
ag16
ag1
ag9
ag5
ag2
ag16
ag4
ag7
aVb
p213
ag4
ag1
ag4
ag11
ag11
ag4
ag13
ag1
ag4
ag12
ag5
ag7
ag7
ag4
ag1
ag4
ag11
ag7
ag3
ag13
aVf
p214
ag1
ag5
ag4
ag2
ag9
ag13
ag11
ag12
ag4
ag7
ag13
ag11
ag2
ag1
ag4
ag9
ag11
ag2
ag4
ag15
ag4
ag12
ag4
ag4
ag11
ag5
ag4
ag11
ag13
ag4
ag1
ag2
ag3
ag1
ag4
ag13
ag3
ag11
ag5
ag4
ag3
ag15
ag1
ag1
ag4
ag13
ag1
ag4
ag4
ag11
ag5
ag4
ag1
ag4
ag11
ag7
ag1
ag13
ag2
ag5
ag9
ag1
ag15
ag3
ag4
ag5
ag4
ag3
ag7
ag3
ag3
ag7
ag4
ag13
ag1
ag4
ag13
ag2
ag5
ag7
ag11
ag4
ag2
ag1
ag2
ag27
ag11
ag2
ag1
ag9
ag1
ag4
ag11
ag5
ag4
ag16
ag32
ag4
ag1
ag24
ag13
ag1
ag11
ag16
ag5
ag4
ag16
ag11
ag16
ag11
ag16
ag16
ag1
ag4
ag16
ag11
ag9
ag1
ag2
ag4
aVw
p215
ag4
ag13
ag4
ag5
ag15
ag1
ag9
ag9
ag1
ag2
ag5
ag2
ag15
ag11
ag11
ag16
ag5
ag4
ag12
ag10
ag4
ag7
ag1
ag11
ag10
ag4
ag1
ag11
ag5
ag10
ag4
ag5
ag4
ag9
ag4
ag11
ag3
ag9
ag1
ag10
ag4
ag4
ag3
ag4
ag13
ag15
ag13
ag1
ag7
ag2
ag4
ag16
ag4
ag7
ag5
ag4
ag4
ag3
ag2
ag9
ag1
ag4
ag4
ag1
aVp
p216
ag11
ag12
ag10
ag4
ag10
ag4
ag3
ag2
ag4
ag11
ag4
ag11
ag15
ag13
ag2
ag23
ag13
ag11
ag7
ag13
ag15
ag3
ag4
ag4
ag11
ag5
ag4
ag1
ag11
ag10
ag4
ag1
ag11
ag1
ag4
ag11
ag11
ag1
ag10
ag3
ag27
aVw
p217
ag4
ag4
ag24
ag9
ag3
ag1
ag4
ag5
ag4
ag11
ag7
ag1
ag11
ag2
ag11
ag4
ag11
ag7
ag7
ag4
ag1
ag4
ag15
ag4
ag3
ag2
ag12
ag10
ag4
ag7
ag1
ag15
ag4
ag11
ag7
ag71
ag11
ag5
ag4
ag2
ag13
aVc
p218
ag9
ag1
ag4
ag5
ag4
ag11
ag10
ag4
ag11
ag4
ag7
ag1
ag4
ag4
ag4
ag5
ag11
ag2
ag3
ag13
ag4
ag1
ag4
ag2
ag1
ag11
ag16
ag15
ag4
ag11
ag13
ag3
ag2
ag9
ag11
ag4
ag11
ag1
ag4
ag2
ag4
ag13
ag1
ag2
ag4
ag11
ag13
ag3
ag2
ag9
ag11
ag4
ag11
ag10
ag4
ag2
ag1
ag1
ag4
ag2
ag4
ag10
ag4
ag1
ag5
ag7
ag13
ag3
ag3
ag13
ag1
ag1
ag13
ag11
ag5
ag4
ag1
ag4
ag7
ag11
ag4
ag1
ag4
ag3
ag3
ag12
ag3
ag3
ag4
ag3
ag2
ag9
ag1
ag4
ag4
ag1
ag15
ag4
ag1
ag4
ag3
ag15
ag3
ag1
ag4
ag2
ag10
ag4
ag1
ag4
aVr
p219
ag4
ag13
ag3
ag5
ag1
ag4
ag3
ag16
ag2
ag11
ag15
ag4
ag2
ag5
ag4
ag10
ag4
ag12
ag5
ag5
ag4
ag1
ag4
ag2
ag11
ag3
ag13
ag4
ag2
ag1
ag5
ag3
ag4
ag2
ag11
ag7
ag16
ag13
ag1
ag11
ag7
ag11
ag3
ag11
ag16
ag3
ag4
ag13
ag1
ag2
ag4
ag2
ag9
ag11
ag4
ag11
ag4
ag16
ag5
ag4
ag1
ag4
ag11
ag4
ag9
ag4
ag1
ag9
ag4
ag11
ag2
ag13
ag3
ag1
ag5
ag4
ag15
ag1
ag4
ag5
ag3
ag4
ag12
ag3
ag3
ag1
ag4
ag13
ag4
ag5
ag4
ag11
ag5
ag4
ag1
ag4
ag11
ag16
ag11
ag7
ag2
ag11
ag23
ag13
ag3
ag4
ag16
ag1
ag11
ag7
ag5
ag4
ag16
ag1
ag9
ag5
ag2
ag16
ag4
aVc
p220
ag1
ag5
ag3
ag4
ag4
ag24
ag9
ag4
ag1
ag4
ag11
ag5
ag11
ag2
ag3
ag13
ag4
ag9
ag1
ag4
ag13
ag1
ag4
ag13
ag1
ag2
ag4
ag11
ag13
ag3
ag2
ag9
ag11
ag4
ag11
ag1
ag4
ag2
ag4
ag10
ag4
ag1
ag3
ag3
ag3
ag3
ag12
aVp
p221
ag11
ag12
ag10
ag4
ag10
ag4
ag3
ag2
ag4
ag15
ag4
ag1
ag4
ag2
ag10
ag4
ag1
ag4
ag15
ag13
ag13
ag2
ag5
ag4
ag2
ag11
ag11
ag10
ag1
ag13
ag3
ag3
ag7
ag1
ag11
ag10
ag4
ag1
ag11
ag9
ag1
ag15
ag3
ag4
ag11
ag5
ag4
ag1
ag4
ag11
ag3
ag3
ag3
ag9
ag4
ag1
ag11
ag3
ag3
ag1
ag4
ag16
ag13
ag3
ag1
ag32
ag11
ag2
ag5
ag4
ag4
ag1
ag4
ag13
ag4
ag1
ag4
ag5
ag13
ag4
aVf
p222
ag1
ag12
ag10
ag4
ag7
ag1
ag11
ag10
ag4
ag1
ag11
ag12
ag5
ag4
ag1
ag4
ag5
ag4
ag4
ag3
ag4
ag24
ag9
ag4
ag2
ag4
ag5
ag10
ag4
ag11
ag4
ag3
ag1
ag4
ag7
ag3
ag4
ag2
ag11
ag16
ag5
ag4
ag9
ag5
ag2
ag3
ag9
ag1
ag9
ag4
ag1
ag4
ag7
ag5
ag4
aVe
p223
ag1
ag5
ag1
ag4
ag16
ag13
ag3
ag1
ag32
ag11
ag11
ag7
ag11
ag16
ag2
ag11
ag12
ag1
ag27
ag11
ag9
ag9
ag4
ag1
ag4
ag2
ag11
ag5
ag4
ag7
ag1
ag4
ag1
ag5
ag11
ag16
ag11
ag5
ag4
ag3
ag4
ag1
ag11
ag16
ag4
ag3
ag5
ag4
ag4
ag3
aVw
p224
ag4
ag9
ag1
ag9
ag4
ag2
ag11
ag1
ag11
ag11
ag16
ag4
ag4
ag10
ag4
ag3
ag2
ag7
ag4
ag3
ag15
ag1
ag4
ag9
ag1
ag4
ag4
ag1
ag32
ag11
ag16
ag5
ag4
ag4
ag3
ag5
ag4
ag2
ag5
ag11
ag23
ag13
ag4
ag3
ag2
ag3
ag3
ag4
ag4
ag3
ag9
ag2
ag4
ag9
ag1
ag4
ag2
ag11
ag11
ag11
ag16
ag15
ag4
ag11
ag1
ag4
ag2
ag11
ag3
aVl
p225
ag9
ag3
ag2
ag11
ag7
ag3
ag4
ag1
ag9
ag1
ag4
ag4
ag1
ag10
ag4
ag7
ag5
ag4
ag4
ag3
ag7
ag5
ag4
ag10
ag4
ag3
ag2
ag4
ag3
ag12
ag5
ag3
ag4
ag5
ag11
ag16
ag5
ag4
ag3
ag13
ag11
ag3
ag11
ag16
ag27
ag11
ag12
ag11
ag16
ag4
ag3
ag16
ag2
ag3
ag9
aVp
p226
ag1
ag4
ag2
ag11
ag11
ag11
ag16
ag3
ag4
ag3
ag7
ag4
ag1
ag2
ag11
ag10
ag4
ag1
ag16
ag4
ag11
ag2
ag4
ag4
ag1
ag3
ag4
ag1
ag11
ag5
ag4
aVl
p227
ag9
ag3
ag2
ag11
ag7
ag3
ag4
ag1
ag5
ag10
ag4
ag5
ag4
ag9
ag1
ag9
ag4
ag1
ag5
ag1
ag27
ag3
ag3
ag3
ag2
ag3
ag9
ag3
ag11
ag1
ag4
ag10
ag4
ag11
ag2
ag2
ag1
ag11
ag16
ag3
ag2
ag3
ag9
ag7
ag4
ag3
aVb
p228
ag2
ag11
ag1
ag13
ag2
ag11
ag5
ag4
ag4
ag7
ag3
ag4
ag1
ag2
ag11
ag15
ag4
ag11
ag10
ag4
ag1
ag4
ag11
ag13
ag4
ag11
ag9
ag1
ag4
ag2
ag11
ag11
ag4
ag12
ag10
ag4
ag7
ag1
ag11
ag10
ag4
ag1
ag11
ag1
ag4
ag16
ag4
ag3
ag16
ag4
ag3
ag16
ag2
ag3
ag3
ag4
ag11
ag11
ag16
ag7
ag13
ag3
ag4
ag3
aVw
p229
ag4
ag3
ag3
ag13
ag1
ag4
ag12
ag5
ag71
ag11
ag1
ag4
ag10
ag4
ag1
ag3
ag11
aVp
p230
ag11
aVp
p231
ag16
ag4
ag7
ag4
ag3
ag2
ag1
ag4
ag10
ag4
ag1
ag4
ag4
ag16
ag1
ag11
ag12
ag3
ag3
ag2
ag13
ag4
ag4
ag1
ag13
ag2
ag10
ag4
ag11
ag4
ag1
ag7
ag4
ag1
ag4
ag11
ag2
ag4
ag11
ag5
ag4
ag7
ag11
ag3
ag2
ag27
ag4
ag1
ag4
ag13
ag3
ag12
ag5
ag2
ag5
ag3
ag4
ag11
ag4
ag1
ag1
ag11
ag4
ag13
ag11
ag4
ag1
ag9
ag1
ag4
ag11
aVw
p232
ag4
ag4
ag1
ag10
ag4
ag9
ag3
ag1
ag1
ag4
ag10
ag4
ag1
ag3
ag2
ag1
ag1
ag4
ag2
ag11
ag15
ag4
ag11
ag11
ag11
ag3
ag7
ag5
ag4
ag9
ag3
ag1
ag1
ag15
ag13
ag11
ag7
aVp
p233
ag11
aVp
p234
ag16
ag4
ag5
ag4
ag27
ag4
ag9
ag4
ag2
ag7
ag1
ag9
ag3
ag1
ag1
ag4
ag10
ag4
ag1
ag3
ag2
ag1
ag1
ag4
ag2
ag11
ag5
ag4
ag9
ag3
ag1
ag1
ag15
ag13
ag11
ag7
ag5
ag4
ag12
ag10
ag4
ag2
ag9
ag11
ag4
ag11
aVp
p235
ag3
ag1
ag1
ag4
ag10
ag4
ag1
ag3
ag2
ag1
ag1
ag4
ag2
ag11
ag4
ag5
ag2
ag11
ag15
ag4
ag9
ag4
ag1
ag7
ag1
ag4
ag2
ag2
ag1
ag11
ag16
ag5
ag4
ag2
ag13
ag3
ag9
ag4
ag1
ag11
ag7
ag5
ag4
ag9
ag3
ag1
ag1
ag15
ag13
ag11
ag11
ag16
ag5
ag4
ag1
aVf
p236
ag1
ag5
ag4
ag71
ag1
ag9
ag2
ag2
ag4
ag16
ag11
ag7
ag2
ag1
ag11
ag1
ag13
ag2
ag4
ag1
ag4
ag9
ag1
ag4
ag4
ag11
ag5
ag4
ag9
ag3
ag1
ag1
ag15
ag13
ag11
ag7
ag5
ag4
ag12
ag10
ag4
ag2
ag9
ag11
ag4
ag11
ag5
ag16
ag11
ag7
ag2
ag1
ag2
ag11
ag15
ag4
ag2
ag9
ag13
ag4
ag13
ag11
ag16
ag5
ag4
ag4
ag11
ag4
ag1
ag16
ag7
ag3
ag13
ag24
ag4
ag11
ag10
ag4
ag2
ag1
aVw
p237
ag4
ag9
ag1
ag4
ag4
ag11
ag9
ag1
ag2
ag4
ag13
ag1
ag4
ag2
ag1
ag1
ag4
ag2
ag5
ag4
ag9
ag3
ag1
ag1
ag4
ag10
ag4
ag1
ag3
ag7
ag1
ag4
ag3
ag2
ag1
ag4
ag10
ag4
ag1
ag4
ag4
ag16
ag1
ag11
ag11
ag5
ag4
ag2
ag11
ag5
ag11
aVf
p238
ag1
ag5
ag4
ag16
ag11
ag7
ag2
ag1
ag2
ag9
ag13
ag4
ag13
ag1
ag11
ag16
ag5
ag4
ag12
ag10
ag4
ag7
ag4
ag3
ag1
ag4
ag2
ag11
ag1
ag13
ag2
ag11
ag7
ag1
ag4
ag10
ag4
ag1
ag16
ag11
ag16
ag9
ag11
ag5
ag4
ag11
ag5
ag4
ag9
ag3
ag1
ag1
ag4
ag10
ag4
ag1
ag3
ag2
ag1
ag1
ag4
ag2
ag4
ag15
ag13
ag3
ag9
ag3
ag11
ag16
ag5
ag4
aVp
p239
ag11
aVp
p240
ag16
ag4
ag12
ag5
ag5
ag4
ag16
ag4
ag11
ag4
ag1
ag11
ag4
ag2
ag16
ag1
ag11
ag11
ag11
ag10
ag4
ag1
ag11
ag4
ag2
ag5
ag11
ag3
ag16
ag2
ag11
ag4
ag1
ag13
ag3
ag9
ag3
ag4
ag2
ag4
ag1
ag11
ag16
ag10
ag3
ag11
ag7
ag1
ag11
ag3
ag3
ag12
ag11
ag16
ag5
ag4
ag11
ag13
ag1
ag4
ag1
ag10
ag4
ag16
ag11
ag7
ag2
ag11
ag3
ag15
ag4
ag4
ag1
ag1
ag4
ag4
ag1
ag10
ag1
ag4
ag3
ag12
ag5
ag1
ag4
ag4
ag3
ag11
ag3
ag4
ag13
ag11
ag2
ag4
ag1
ag11
ag12
ag5
ag3
ag4
ag1
ag4
ag23
ag13
ag1
ag11
ag16
ag11
ag13
ag7
ag13
ag4
ag1
ag11
ag4
ag1
ag10
ag4
ag11
ag11
ag5
ag1
ag4
ag4
ag11
ag4
ag12
ag11
ag16
ag5
ag5
ag10
ag4
ag15
ag4
ag4
ag11
ag13
ag11
ag2
ag10
ag4
ag1
ag4
ag12
ag5
ag1
ag4
ag9
ag4
ag2
ag5
ag7
ag13
ag11
ag4
ag11
ag3
ag1
ag11
ag11
aVu
p241
ag11
ag15
ag3
ag4
ag11
ag4
ag1
ag15
ag3
ag4
ag11
ag4
ag13
ag3
ag9
ag3
ag4
ag2
ag4
ag1
ag11
ag16
ag2
ag11
ag15
ag4
ag11
ag2
ag3
ag13
ag4
ag11
ag5
ag4
ag4
ag2
ag16
ag1
ag11
ag9
ag1
ag2
ag4
ag11
ag5
ag15
ag4
ag4
ag11
ag9
ag1
ag9
ag4
ag7
ag1
ag13
ag3
ag4
ag5
ag4
ag16
ag11
ag16
ag9
ag1
ag11
ag2
ag9
ag3
ag4
ag11
ag32
ag11
ag9
ag1
ag15
ag3
ag4
ag5
ag4
ag1
ag4
ag13
ag3
ag11
ag16
ag9
ag1
ag2
ag4
ag4
ag3
ag11
ag16
ag3
ag4
ag4
ag9
ag4
ag11
ag4
ag11
ag1
ag4
ag7
ag3
ag4
ag2
ag10
ag11
ag1
ag4
ag7
ag4
ag1
ag1
ag4
ag1
ag4
ag2
ag13
ag1
ag10
ag4
ag7
ag13
ag3
ag3
ag12
ag10
ag4
ag7
ag4
ag3
ag16
ag1
ag11
aVw
p242
aVf
p243
ag5
ag4
ag7
ag13
ag3
ag3
ag12
ag10
ag4
ag7
ag1
ag11
ag10
ag4
ag1
ag11
ag9
ag1
ag2
ag4
ag7
ag1
ag10
ag4
ag3
ag2
ag4
ag11
ag2
ag11
ag15
ag4
ag4
ag24
ag4
ag11
ag4
ag1
ag4
ag2
ag13
ag1
ag10
ag4
ag9
ag11
ag3
ag3
ag15
ag3
ag4
ag11
ag4
ag11
ag1
ag9
ag2
ag13
ag3
ag9
ag3
ag4
ag2
ag4
ag1
ag11
ag16
ag3
ag16
ag1
ag5
ag5
ag4
ag1
ag4
ag13
ag3
ag11
ag16
ag9
ag1
ag2
ag4
ag4
ag3
ag11
ag16
ag3
ag4
ag4
ag9
ag4
ag11
ag4
ag11
ag10
ag4
ag3
ag2
ag11
ag1
ag4
ag7
ag4
ag1
ag1
ag4
ag1
ag4
ag2
ag13
ag1
ag10
ag4
ag7
ag13
ag3
ag3
ag12
ag10
ag4
ag7
ag1
ag11
ag10
ag4
ag1
ag11
aVw
p244
aVf
p245
ag5
ag4
ag5
ag4
ag2
ag3
ag4
ag23
ag13
ag11
ag7
aVw
p246
aVf
p247
ag11
aVw
p248
aVf
p249
ag5
ag10
ag4
ag11
ag4
ag11
ag2
ag3
ag1
ag13
ag2
ag13
ag1
ag4
ag15
ag13
ag5
ag4
ag9
ag5
ag2
ag3
ag4
ag11
ag3
ag9
ag1
ag4
ag2
ag27
ag16
ag1
ag11
ag4
ag11
ag9
ag1
ag4
ag4
ag1
ag10
ag4
ag3
ag2
ag3
ag1
ag4
ag2
ag11
ag3
ag11
ag7
ag1
ag11
ag7
ag5
ag4
ag4
ag2
ag12
ag10
ag4
ag5
ag4
ag16
ag4
ag9
ag11
aVn
p250
ag4
ag12
ag4
ag9
ag13
ag2
ag5
ag4
ag2
ag1
ag4
ag16
ag1
ag11
ag7
ag32
ag13
ag5
ag3
ag4
ag1
ag2
ag11
ag7
ag7
ag4
ag10
ag4
ag2
ag1
ag11
ag3
ag2
ag11
ag2
ag4
ag1
ag11
ag13
ag1
ag2
ag4
ag1
ag4
ag2
ag4
ag10
ag4
ag1
ag32
ag13
ag5
ag11
ag7
ag7
ag4
ag11
ag5
ag4
ag13
ag1
ag7
ag2
ag4
ag12
ag5
ag2
ag5
ag2
ag11
ag15
ag4
ag9
ag1
ag1
ag4
ag9
ag1
ag4
ag4
ag11
ag11
ag7
ag13
ag15
ag13
ag1
ag7
ag2
ag4
ag12
ag10
ag4
ag9
ag5
ag1
ag4
ag2
ag11
ag1
ag4
ag10
ag4
ag1
ag5
ag4
ag2
ag13
ag3
ag1
ag4
ag13
ag3
ag11
ag11
ag2
ag2
ag13
ag1
ag4
ag16
ag11
ag16
ag15
ag4
ag2
ag13
ag4
ag5
ag4
ag11
ag2
ag2
ag13
ag11
ag7
ag1
ag5
ag4
ag4
ag11
ag4
ag1
ag16
ag9
ag1
ag9
ag16
ag11
ag15
ag4
ag12
ag4
ag4
ag11
ag32
ag13
ag5
ag1
ag7
ag7
ag4
ag10
ag4
ag2
ag1
ag11
ag5
ag4
ag9
ag4
ag2
ag4
ag3
ag2
ag3
ag11
ag16
ag3
ag4
ag11
ag4
ag2
ag16
ag11
ag16
ag5
ag15
ag4
ag4
ag11
ag5
ag16
ag5
ag3
ag10
ag2
ag4
ag10
ag16
ag1
ag11
ag1
ag7
ag2
ag11
ag9
ag1
ag10
ag4
ag10
ag4
ag3
ag2
ag4
ag11
ag11
ag2
ag9
ag3
ag4
ag24
ag4
aVc
p251
ag11
ag4
ag1
ag11
ag16
ag9
ag1
ag4
ag2
ag27
ag4
ag16
ag1
ag11
aVp
p252
ag3
ag3
ag12
ag4
ag3
ag13
ag4
ag11
ag4
ag2
ag16
ag11
ag16
ag11
ag4
ag2
ag9
ag1
ag4
ag2
ag11
ag11
ag11
ag16
ag7
ag1
ag9
ag3
ag13
ag4
ag10
ag1
ag11
ag12
ag5
ag7
ag7
ag4
ag1
ag11
ag2
ag4
ag11
ag11
ag16
ag3
ag4
aVv
p253
aVv
p254
ag11
ag3
ag7
ag1
ag2
ag13
ag1
ag4
ag4
ag4
ag2
ag11
ag11
ag1
ag4
ag4
ag1
ag10
ag1
ag2
ag5
ag1
ag2
ag4
ag1
ag32
ag11
ag12
ag4
ag9
ag1
ag4
ag4
ag11
ag11
ag32
ag13
ag5
ag9
ag1
ag4
ag4
ag1
ag10
ag4
ag3
ag2
ag3
ag11
ag16
ag3
ag4
ag11
aVk
p255
ag1
ag2
ag5
ag5
ag7
ag7
aVp
p256
ag9
ag9
ag1
ag2
ag5
ag7
ag1
ag13
ag2
ag5
ag9
ag13
ag1
ag9
ag4
aVw
p257
ag4
ag9
ag9
ag3
ag4
ag2
ag16
ag11
ag16
ag2
ag11
ag11
ag11
ag10
ag4
ag16
ag4
ag11
ag13
ag4
ag1
ag2
ag3
ag2
ag5
ag1
ag2
ag4
ag1
ag2
ag7
ag4
ag1
ag10
ag4
ag3
ag13
ag11
ag5
ag4
ag2
ag13
ag2
ag12
ag10
ag4
ag4
ag23
ag13
ag11
ag11
ag5
ag4
aVl
p258
ag9
ag3
ag2
ag4
aVf
p259
ag13
ag1
ag4
ag1
aVl
p260
aVf
p261
ag11
aVw
p262
ag4
ag1
ag11
ag7
ag1
ag4
ag5
ag4
ag4
ag11
ag2
ag13
ag2
ag12
ag10
ag4
ag4
ag23
ag13
ag11
ag11
ag5
ag4
aVl
p263
aVf
p264
ag11
ag5
ag4
ag1
ag11
ag7
ag1
ag4
ag4
ag23
ag13
ag11
ag12
ag2
ag1
ag4
ag32
ag4
ag12
ag5
ag7
ag11
ag4
ag7
ag7
ag4
ag1
ag4
ag11
ag2
ag4
ag11
ag12
ag3
ag10
ag4
ag12
ag5
ag4
ag1
ag10
ag4
ag4
ag5
aVf
p265
ag11
ag4
ag7
ag7
ag4
ag1
ag4
ag11
ag2
ag4
ag4
ag3
ag11
ag16
ag4
ag24
ag9
ag4
ag1
ag4
ag11
ag4
ag11
ag1
ag4
ag5
ag4
ag1
ag10
ag4
ag4
ag5
ag1
ag4
ag23
ag13
ag1
ag4
ag11
ag11
ag7
ag11
ag4
ag3
ag9
ag9
ag11
ag16
ag3
ag4
ag1
ag11
ag2
ag4
ag2
ag2
ag13
ag1
ag4
ag3
ag2
ag9
ag13
ag4
ag5
ag4
ag9
ag1
ag4
ag13
ag1
ag4
ag7
ag4
ag3
ag4
ag9
ag4
ag2
ag3
ag3
ag3
ag11
ag16
ag7
ag7
ag4
ag13
ag11
ag4
ag1
ag11
ag5
ag4
ag1
ag4
ag23
ag13
ag1
ag4
ag4
ag11
ag7
ag1
ag13
ag2
ag5
ag11
ag7
ag11
ag4
ag3
ag3
ag4
ag1
ag11
ag2
ag4
ag10
ag3
ag13
ag4
ag12
ag4
ag11
ag3
ag32
ag4
ag5
ag4
ag4
ag10
ag3
ag13
ag11
ag7
ag11
ag4
ag1
ag4
ag4
ag3
ag13
ag11
ag10
ag4
ag2
ag1
ag1
ag4
ag13
ag3
ag10
ag4
ag2
ag1
ag11
ag4
ag1
ag2
ag5
ag1
ag4
ag2
ag11
ag10
ag4
ag2
ag1
ag13
ag1
ag11
ag16
ag5
ag4
ag4
ag1
ag11
ag5
ag4
ag11
ag3
ag5
ag12
ag4
ag5
ag5
ag4
ag1
ag4
ag23
ag13
ag1
ag4
ag4
ag11
ag1
ag4
ag7
ag1
ag5
ag4
ag7
ag2
ag5
ag11
ag5
ag4
ag3
ag13
ag11
ag9
ag2
ag4
ag5
ag4
ag9
ag3
ag13
ag4
ag7
ag5
ag4
ag9
ag1
ag4
ag13
ag1
ag4
ag7
ag4
ag3
ag10
ag1
ag4
ag1
ag4
ag5
ag11
ag24
ag1
ag4
ag1
ag7
ag16
ag11
ag13
ag4
ag11
ag5
ag4
ag2
ag11
ag3
ag16
ag2
ag3
ag4
ag2
ag2
ag1
ag11
ag16
ag3
ag12
ag4
ag9
ag1
ag9
ag4
ag1
ag13
ag3
ag4
ag7
ag5
ag13
ag15
ag7
ag1
ag2
ag5
ag11
ag16
ag9
ag1
ag9
ag4
ag1
ag9
ag9
ag11
ag16
ag3
ag4
ag1
ag11
ag2
ag4
ag10
ag3
ag13
ag4
aVw
p266
ag4
ag3
ag4
ag24
ag11
ag4
ag11
ag13
ag4
ag1
ag2
ag3
ag9
ag4
ag1
ag11
ag11
ag3
ag4
ag3
ag11
ag16
ag11
ag16
ag1
ag11
ag7
ag1
ag3
ag4
ag1
ag11
ag10
ag4
ag1
ag4
ag3
ag1
ag9
ag2
ag4
ag13
ag7
ag7
ag4
ag1
ag7
ag1
ag11
ag13
ag4
ag1
ag2
ag3
ag11
ag15
ag3
ag4
ag11
ag5
ag4
ag1
ag12
ag10
ag4
ag1
ag7
ag2
ag13
ag4
ag5
ag4
ag2
ag13
ag9
ag3
ag11
ag16
ag7
ag5
ag4
aVp
p267
ag12
ag10
ag4
ag11
aVv
p268
ag12
ag10
ag4
ag4
ag11
ag5
ag4
ag2
ag13
ag9
ag3
ag4
ag4
ag23
ag13
ag11
ag1
ag11
ag16
ag12
ag5
ag5
ag4
ag4
ag9
ag1
ag4
aVp
p269
ag11
aVv
p270
ag9
ag5
ag4
ag10
ag4
ag3
ag2
ag4
ag24
ag9
ag1
ag4
ag11
ag7
ag1
ag10
ag4
ag1
ag2
ag3
ag1
ag11
ag10
ag4
ag1
ag4
ag3
ag1
ag9
ag2
aVv
p271
ag4
ag12
ag4
ag4
ag24
ag4
ag11
ag5
ag4
ag4
ag4
ag2
ag13
ag9
ag3
ag4
ag4
ag23
ag13
ag11
ag7
ag1
ag4
ag3
ag11
ag16
ag11
ag1
ag4
ag10
ag4
ag1
ag4
ag4
ag16
ag1
ag11
aVr
p272
ag11
ag2
ag13
ag2
ag4
aVc
p273
ag9
ag1
ag4
ag12
ag5
ag5
ag4
ag2
ag13
ag9
ag3
ag4
ag4
ag23
ag13
ag11
ag9
ag13
ag15
ag3
ag5
ag4
ag11
ag5
ag4
ag16
ag4
ag9
ag5
ag2
ag3
ag3
ag4
ag1
ag13
ag1
ag4
ag5
ag4
ag11
ag4
ag12
ag4
ag2
ag13
ag9
ag3
ag4
ag4
ag23
ag13
ag11
ag9
ag1
ag10
ag4
ag1
ag4
ag15
ag3
ag4
ag3
ag13
ag11
ag13
ag4
ag5
ag4
ag2
ag9
ag3
ag4
ag4
ag4
ag9
ag1
ag11
ag7
ag5
ag4
aVp
p274
ag12
ag10
ag4
ag11
aVv
p275
ag12
ag10
ag4
ag4
ag5
ag4
ag9
ag4
ag13
ag9
ag4
ag2
ag1
ag3
ag4
ag5
ag5
ag4
ag2
ag11
ag10
ag4
ag11
ag4
ag11
ag4
ag5
ag9
ag3
ag4
ag4
ag11
ag5
ag4
ag4
ag4
ag23
ag13
ag11
ag13
ag4
ag5
ag4
ag7
ag1
ag7
ag12
ag10
ag4
ag11
ag13
ag15
ag4
ag1
ag4
ag24
ag9
ag1
ag4
ag11
ag11
ag5
ag5
ag4
ag4
ag15
ag4
ag11
ag4
ag7
ag7
ag15
ag4
ag11
ag16
ag5
ag16
ag5
ag3
ag2
ag2
ag13
ag1
ag4
ag11
ag5
ag13
ag10
ag11
ag16
ag11
ag13
ag4
ag1
ag2
ag3
ag9
ag4
ag1
ag11
ag5
ag4
ag1
ag9
ag4
ag24
ag9
ag11
ag11
ag4
ag5
aVr
p276
aVe
p277
ag11
ag4
ag4
ag9
ag3
ag4
ag9
ag1
ag13
ag2
ag4
ag15
ag1
ag15
ag11
ag11
ag13
ag4
ag1
ag2
ag3
ag3
ag15
ag3
ag4
ag4
ag4
ag10
ag3
ag13
ag11
ag7
ag5
ag4
ag12
ag10
ag4
ag7
ag4
ag3
ag11
ag5
ag4
ag2
ag1
ag4
ag13
ag3
ag4
ag4
ag1
ag2
ag3
ag9
ag2
ag9
ag9
ag1
ag24
ag11
ag7
ag1
ag5
ag4
aVh
p278
ag4
ag3
ag5
ag3
ag32
ag4
ag23
ag13
ag11
ag12
ag5
ag9
ag11
ag13
ag1
ag2
ag4
ag1
ag10
ag4
ag3
ag4
ag11
ag9
ag3
ag13
ag4
ag5
ag10
ag4
ag13
ag9
ag12
ag11
ag11
ag16
ag13
ag3
ag1
ag4
ag5
ag4
ag9
ag11
ag13
ag1
ag2
ag4
aVh
p279
ag4
ag11
ag2
ag4
ag15
ag5
ag7
ag1
ag1
ag4
ag1
ag11
ag5
ag16
ag5
ag4
ag1
ag1
ag4
ag1
ag7
ag11
ag4
ag7
ag7
ag4
ag1
ag4
ag11
ag2
ag4
ag3
ag10
ag4
ag1
ag4
ag24
ag5
ag15
ag7
ag1
ag3
ag3
ag7
ag1
ag1
ag4
ag1
ag2
ag11
ag10
ag4
ag1
ag16
ag4
ag11
ag2
ag4
ag11
ag1
ag4
ag3
ag10
ag4
ag3
ag3
ag1
ag16
ag4
ag4
ag1
ag1
ag1
ag13
ag2
ag5
ag11
ag16
ag13
ag3
ag1
ag4
ag2
ag11
ag15
ag4
ag7
ag2
ag1
ag4
ag13
ag15
ag7
ag2
ag1
ag32
ag11
ag16
ag1
ag10
ag4
ag3
ag4
ag11
ag9
ag3
ag13
ag4
ag12
ag5
ag4
ag1
ag4
ag11
ag4
ag7
ag2
ag1
ag9
ag4
ag2
ag7
ag4
ag2
ag9
ag13
ag1
ag4
ag5
ag4
ag2
ag1
ag1
ag4
ag9
ag11
ag11
ag16
ag13
ag1
ag2
ag4
ag11
ag16
ag13
ag3
ag1
ag11
ag5
ag4
ag5
ag4
ag1
ag7
ag2
ag1
ag11
ag13
ag11
ag27
ag11
ag12
ag11
ag7
ag13
ag11
ag2
ag11
ag5
ag11
ag4
ag1
ag5
ag4
ag13
ag1
ag2
ag4
ag5
ag4
ag1
ag4
ag13
ag3
ag11
ag16
ag13
ag11
ag4
ag1
ag3
ag11
ag16
ag13
ag11
ag27
ag11
ag12
ag11
ag7
ag13
ag11
ag2
ag11
ag7
ag7
ag2
ag1
ag4
ag4
ag27
ag11
ag3
ag11
ag1
ag11
ag9
ag1
ag4
ag23
ag13
ag11
ag1
ag4
ag9
ag4
ag2
ag10
ag4
ag3
ag5
ag1
ag1
ag4
ag1
aVl
p280
ag24
aVf
p281
ag1
ag4
ag1
ag2
ag5
ag2
ag5
ag4
ag4
ag4
ag16
ag11
ag4
ag2
ag9
ag13
ag4
ag5
ag4
ag13
ag11
ag4
ag1
ag3
ag11
ag16
ag7
ag13
ag11
ag2
ag11
ag5
ag13
ag5
ag16
ag5
ag3
ag2
ag2
ag13
ag1
ag4
ag7
ag1
ag1
ag1
ag10
ag3
ag1
ag10
ag4
ag3
ag4
ag11
ag1
ag4
ag3
ag15
ag3
ag4
ag9
ag3
ag13
ag4
ag2
ag11
ag15
ag4
ag2
ag9
ag13
ag4
aVf
p282
ag13
ag1
ag5
ag4
ag1
ag1
ag4
ag9
ag2
ag12
ag10
ag4
ag7
ag4
ag3
ag1
ag4
ag2
ag11
ag1
ag13
ag2
ag4
ag13
ag11
ag16
ag2
ag9
ag13
ag4
ag1
ag10
ag4
ag3
ag4
ag11
ag9
ag3
ag13
ag4
ag11
ag5
ag4
aVw
p283
aVk
p284
aVb
p285
aVj
p286
ag7
ag1
ag12
ag4
ag11
ag11
ag3
ag11
ag21
ag4
ag24
ag9
ag3
ag4
ag4
ag11
ag1
ag4
ag5
ag4
ag9
ag4
ag1
ag7
ag1
ag11
ag2
ag4
ag7
ag5
ag4
ag9
ag1
ag9
ag4
ag3
ag16
ag1
ag5
ag11
ag4
ag11
ag4
ag12
ag7
ag11
ag4
ag7
ag7
ag4
ag1
ag4
ag11
ag2
ag4
ag4
ag3
ag11
ag16
ag4
ag5
ag9
ag3
ag2
ag15
ag5
ag11
ag9
ag2
ag4
ag11
ag11
ag4
ag7
ag1
ag5
ag4
ag2
ag3
ag1
ag12
ag10
ag4
ag4
ag23
ag13
ag11
aVw
p287
ag4
ag13
ag4
ag5
ag1
ag4
ag4
ag3
ag4
ag10
ag4
ag3
ag9
ag3
ag2
ag9
ag3
ag11
ag16
ag4
ag11
ag4
ag16
ag1
ag11
ag4
ag5
ag7
ag1
ag5
ag4
ag4
ag9
ag1
ag3
ag4
ag1
ag10
ag10
ag4
ag11
ag9
ag3
ag2
ag7
ag11
ag4
ag7
ag7
ag4
ag1
ag4
ag11
ag2
ag4
ag9
ag4
ag1
ag1
ag7
ag1
ag15
ag1
ag1
ag1
ag4
ag1
ag7
ag1
ag5
ag4
ag9
ag3
ag4
ag1
ag10
ag10
ag4
aVb
p288
ag5
ag5
ag4
ag9
ag3
ag2
ag9
ag3
ag11
ag16
ag4
ag11
ag4
ag16
ag1
ag11
ag4
ag5
ag11
ag5
ag4
ag9
ag3
ag2
ag9
ag3
ag7
ag11
ag4
ag7
ag7
ag4
ag1
ag4
ag11
ag2
ag4
ag9
ag4
ag1
ag1
ag1
ag4
ag23
ag13
ag1
ag4
ag3
ag10
ag11
ag16
ag4
ag7
ag3
ag11
ag4
ag1
ag4
ag23
ag13
ag11
aVw
p289
ag4
ag5
ag12
ag5
ag9
ag15
ag3
ag4
ag4
ag1
ag16
ag4
ag5
ag4
ag4
ag12
ag4
ag7
ag3
ag11
ag4
ag1
ag4
ag11
ag4
ag7
ag1
ag9
ag3
ag2
ag4
ag9
ag1
ag3
ag2
ag1
ag4
ag32
ag11
ag11
ag5
ag4
ag5
ag4
ag1
ag7
ag1
ag9
ag3
ag2
ag9
ag3
ag2
ag1
ag4
ag32
ag11
ag1
ag4
ag13
ag2
ag4
ag5
ag4
ag13
ag11
ag7
ag2
ag9
ag13
ag11
ag4
ag10
ag4
ag3
ag9
ag5
ag16
ag5
ag3
ag4
ag7
ag7
ag2
ag4
ag11
ag11
ag2
ag2
ag13
ag1
ag4
ag4
ag2
ag4
ag3
ag11
ag16
ag3
ag16
ag1
ag5
aVw
p290
ag4
ag16
ag10
ag4
ag5
ag4
ag2
ag9
ag3
ag4
ag4
ag4
ag1
ag10
ag11
ag7
ag5
ag4
ag9
ag3
ag2
ag9
ag3
ag11
ag16
ag4
ag11
ag4
ag16
ag1
ag11
ag4
ag5
ag11
ag5
ag4
ag9
ag3
ag2
ag9
ag3
ag7
ag11
ag4
ag7
ag7
ag4
ag1
ag4
ag11
ag2
ag4
ag9
ag4
ag1
ag1
ag11
ag9
ag1
ag4
ag4
ag11
ag5
ag4
ag1
ag4
ag13
ag3
ag11
ag16
ag2
ag1
ag4
ag32
ag4
ag7
ag1
ag13
ag3
ag7
ag1
ag5
ag4
ag2
ag3
ag1
ag12
ag10
ag4
ag4
ag23
ag13
ag11
aVw
p291
ag4
ag2
ag11
ag13
ag2
ag5
ag1
ag13
ag16
ag5
ag11
ag13
ag4
ag1
ag2
ag3
ag11
ag3
ag11
ag16
ag1
ag9
ag4
ag1
ag11
ag7
ag5
ag11
ag4
ag12
ag9
ag3
ag2
ag11
ag16
ag5
ag4
ag1
ag4
ag3
ag13
ag11
ag7
ag4
ag15
ag3
ag11
ag2
ag4
ag15
ag4
ag10
ag4
ag3
ag2
ag9
ag4
ag2
ag1
ag1
ag4
ag15
ag3
ag11
ag2
ag4
ag9
ag4
ag2
ag1
ag13
ag4
ag7
ag13
ag3
ag7
ag1
ag4
ag11
ag16
ag11
ag1
ag3
ag10
ag4
ag13
ag10
ag4
ag3
ag2
ag4
ag11
ag2
ag1
ag4
ag4
ag1
ag4
ag3
ag13
ag11
ag2
ag11
ag5
ag4
ag3
ag9
ag11
ag16
ag13
ag5
ag9
ag4
ag27
ag11
ag5
ag4
ag9
ag4
ag2
ag1
ag5
ag4
ag1
ag4
ag3
ag13
ag11
ag7
ag4
ag15
ag3
ag11
ag2
ag4
ag9
ag4
ag2
ag1
ag4
ag9
ag4
ag11
ag11
ag5
ag4
ag4
ag11
ag10
ag7
ag4
ag15
ag3
ag11
ag2
ag4
ag2
ag5
ag11
ag16
ag4
ag11
ag10
ag4
ag3
ag2
aVb
p292
ag12
ag4
ag16
ag5
ag11
ag16
ag4
ag1
ag11
ag5
ag4
ag4
ag15
ag3
ag11
ag2
ag4
ag2
ag3
ag2
ag13
ag3
ag11
ag5
ag1
ag4
ag1
ag4
ag4
ag11
ag10
ag4
ag2
ag5
ag11
ag16
ag4
ag11
ag10
ag4
ag3
ag2
ag12
ag4
ag2
ag11
ag11
ag2
ag1
ag4
ag4
ag1
ag4
ag3
ag13
ag11
ag13
ag1
ag9
ag3
ag4
ag4
ag11
ag11
ag7
ag12
ag4
ag16
ag5
ag4
ag4
ag15
ag3
ag11
ag2
ag4
ag1
ag16
ag5
ag7
ag1
ag12
ag1
ag4
ag24
ag4
ag11
ag11
ag7
ag2
ag11
ag10
ag4
ag11
ag11
ag3
ag4
ag15
ag3
ag11
ag2
ag4
ag4
ag12
ag5
ag13
ag1
ag9
ag1
ag11
ag16
ag3
ag12
ag4
ag11
ag2
ag1
ag4
ag4
ag1
ag4
ag3
ag13
ag11
ag15
ag2
ag5
ag11
ag16
ag11
ag7
ag7
ag4
ag4
ag9
ag4
ag11
ag4
ag11
ag12
ag4
ag16
ag5
ag11
ag16
ag7
ag13
ag11
ag2
ag11
ag5
ag11
ag32
ag4
ag4
ag15
ag3
ag11
ag2
ag4
aVw
p293
ag4
ag4
ag13
ag1
ag4
ag5
ag11
ag11
ag5
ag4
ag2
ag11
ag7
ag4
ag3
ag11
ag13
ag1
ag4
ag2
ag11
ag7
ag1
ag5
ag12
ag4
ag16
ag5
ag4
ag4
ag15
ag3
ag11
ag2
ag4
ag9
ag1
ag10
ag4
ag5
ag16
ag5
ag4
ag1
ag1
ag4
ag3
ag13
ag11
ag5
ag11
ag2
ag11
ag10
ag4
ag11
ag11
ag3
ag4
ag15
ag3
ag11
ag2
ag4
ag4
ag1
ag10
ag4
ag16
ag4
ag11
ag4
ag1
ag3
ag32
ag4
ag11
ag11
ag4
ag3
ag3
ag9
ag2
ag10
ag4
ag13
ag9
ag9
ag1
ag24
ag11
ag11
ag5
ag4
ag9
ag11
ag5
ag2
ag9
ag11
ag11
ag5
ag4
ag16
ag4
ag11
ag4
ag1
ag3
ag32
ag4
ag11
ag11
ag5
ag9
ag4
ag1
ag15
ag3
ag2
ag10
ag4
ag13
ag9
ag9
ag1
ag24
ag11
ag11
ag5
ag4
ag24
ag11
ag9
ag9
ag1
ag24
ag11
ag1
ag4
ag23
ag13
ag1
ag4
ag7
ag10
ag4
ag9
ag1
ag4
ag4
ag1
ag5
ag1
ag4
ag4
ag9
ag1
ag4
ag4
ag1
ag5
ag2
ag11
ag15
ag4
ag4
ag4
ag1
ag11
ag4
ag7
ag1
ag5
ag4
ag32
ag4
ag1
ag3
ag12
ag11
ag4
ag1
ag11
ag12
ag9
ag1
ag4
ag4
ag1
ag5
ag2
ag11
ag15
ag4
ag4
ag4
ag1
ag11
ag4
ag7
ag1
ag11
ag4
ag11
ag3
ag1
aVw
p294
ag4
ag2
ag11
ag10
ag4
ag1
ag5
ag4
ag16
ag4
ag11
ag4
ag1
ag3
ag32
ag4
ag9
ag9
ag1
ag24
ag11
ag7
ag1
ag5
ag4
ag9
ag11
ag5
ag4
ag24
ag11
ag11
ag10
ag2
ag4
ag10
ag4
ag1
ag5
ag4
ag16
ag4
ag11
ag4
ag1
ag3
ag32
ag4
ag11
ag11
ag4
ag3
ag3
ag9
ag2
ag10
ag4
ag13
ag9
ag9
ag1
ag24
ag11
ag11
ag5
ag4
ag9
ag11
ag5
ag4
ag1
ag10
ag4
ag13
ag9
ag9
ag1
ag24
ag11
ag9
ag4
ag2
ag3
ag2
ag4
ag4
ag10
ag4
ag1
ag3
ag11
ag3
ag2
ag3
ag11
ag11
ag13
ag4
ag1
ag2
ag3
ag4
ag5
ag12
ag4
ag13
ag9
ag4
ag1
ag1
ag2
ag2
ag13
ag1
ag2
ag7
ag5
ag4
ag16
ag4
ag11
ag4
ag1
ag3
ag32
ag4
ag11
ag11
ag4
ag3
ag3
ag9
ag2
ag10
ag4
ag13
ag9
ag9
ag1
ag24
ag11
ag11
ag11
ag11
ag11
ag9
ag1
ag11
ag9
ag1
ag15
ag3
ag4
ag11
ag2
ag1
ag4
ag2
ag9
ag1
ag2
ag4
ag11
ag16
ag13
ag4
ag5
ag4
ag3
ag12
ag16
ag11
ag13
ag4
ag7
ag5
ag4
ag4
ag2
ag4
ag10
ag4
ag11
ag11
ag13
ag2
ag4
ag13
ag1
ag11
ag16
ag7
ag3
ag13
ag11
ag14
ag4
ag2
ag11
ag11
ag5
ag13
ag11
ag11
ag2
ag5
ag4
ag1
ag4
ag11
ag11
ag4
ag4
ag11
ag13
ag11
ag4
ag2
ag5
ag11
ag23
ag13
ag4
ag15
ag4
ag11
ag2
ag11
ag1
ag11
ag4
ag4
ag7
ag1
ag4
ag23
ag13
ag4
ag11
ag2
ag1
ag11
ag7
ag1
ag9
ag1
ag4
ag4
ag11
ag4
aVw
p295
ag5
ag4
ag11
ag9
ag9
ag3
ag4
ag25
aVc
p296
ag5
ag4
ag1
ag11
ag7
ag1
ag2
ag1
ag1
ag4
ag9
ag11
ag9
ag1
ag4
ag1
ag4
ag9
ag1
ag4
ag4
ag11
ag11
ag7
ag5
ag4
ag2
ag1
ag4
ag2
ag16
ag11
ag3
ag11
ag4
ag1
ag7
ag2
ag11
ag1
ag7
ag2
ag9
ag3
ag4
ag24
aVr
p297
ag2
ag27
ag4
ag1
ag12
ag10
ag4
ag3
ag4
ag5
ag4
ag13
ag4
ag7
ag2
ag9
ag3
ag4
ag24
ag12
ag10
ag4
ag3
ag4
ag9
ag4
ag4
ag5
ag4
ag10
ag11
ag16
ag4
ag5
ag16
ag11
ag3
ag12
ag5
ag1
ag15
ag1
ag1
ag9
ag5
ag4
ag2
ag11
ag15
ag4
ag1
ag4
ag9
ag1
ag4
ag4
ag11
ag4
ag12
ag5
ag4
ag11
ag5
ag11
ag2
ag4
ag9
ag1
ag11
ag5
ag4
ag2
ag4
ag24
ag9
ag3
ag4
ag3
ag3
ag13
ag1
ag4
ag5
ag4
ag13
ag9
ag4
ag1
ag1
ag9
ag4
ag1
ag7
ag1
ag11
ag2
ag4
ag7
ag5
ag4
ag9
ag1
ag4
ag2
ag11
ag1
ag11
ag7
ag1
ag4
ag11
ag11
ag16
ag15
ag14
ag4
ag2
ag10
ag4
ag12
ag5
ag4
ag11
ag2
ag9
ag1
ag4
ag5
ag4
ag11
ag1
ag3
ag4
ag23
ag13
ag1
ag4
ag1
ag4
ag16
ag13
ag3
ag1
ag32
ag11
ag5
ag4
ag1
ag1
ag10
ag3
ag4
ag11
ag7
ag1
ag4
ag23
ag13
ag4
ag11
ag2
ag2
ag11
ag4
ag11
ag7
ag11
ag12
ag10
ag4
ag7
ag1
ag11
ag1
ag4
ag4
ag23
ag13
ag10
ag3
ag4
ag11
ag11
ag5
ag4
ag5
ag1
ag4
ag4
ag2
ag9
ag11
ag4
ag11
ag7
ag11
ag16
ag3
ag4
ag1
ag4
ag2
ag4
ag10
ag4
ag1
ag5
ag4
ag4
ag24
ag4
ag11
ag11
ag7
ag5
ag4
ag9
ag1
ag4
ag1
ag11
ag7
ag1
ag21
aVc
p298
ag2
ag2
ag9
ag3
ag5
ag4
ag12
ag5
ag4
ag11
ag5
ag4
ag5
ag1
ag4
ag4
ag2
ag9
ag11
ag4
ag11
ag1
ag4
ag2
ag11
ag4
ag1
ag4
ag5
ag1
ag4
ag5
ag4
ag4
ag9
ag1
ag9
ag4
ag1
ag11
ag11
ag5
ag4
ag4
ag7
ag1
ag4
ag23
ag13
ag4
ag11
ag2
ag9
ag3
ag11
ag4
ag5
ag4
ag2
ag1
ag2
ag3
ag4
ag2
ag11
ag11
ag5
ag4
ag4
ag16
ag11
ag7
ag3
ag2
ag3
ag3
ag11
ag2
ag27
ag1
ag11
ag7
ag1
aVl
p299
ag5
ag4
ag4
ag3
ag4
ag2
ag11
ag7
ag9
ag4
ag1
ag13
ag1
ag4
ag1
ag1
ag4
ag9
ag1
ag4
ag2
ag4
ag3
ag5
ag4
ag4
ag3
ag4
ag2
ag11
ag7
ag5
ag4
ag9
ag9
ag1
ag9
ag1
ag4
ag11
ag13
ag15
ag4
ag1
ag7
ag1
ag2
ag4
ag11
ag5
ag4
ag1
ag12
ag4
ag16
ag5
ag11
ag16
ag2
ag4
ag7
ag7
ag2
ag4
ag11
ag7
ag1
ag4
ag2
ag5
ag3
ag11
ag2
ag27
ag5
ag4
ag2
ag5
ag3
ag3
ag4
ag11
ag16
ag4
ag2
ag5
ag4
ag10
ag4
ag16
ag2
ag9
ag1
ag4
ag15
ag4
ag12
ag4
ag4
ag11
ag5
ag4
ag3
ag12
ag11
ag4
ag11
ag5
ag4
ag9
ag3
ag1
ag4
ag3
ag13
ag11
aVc
p300
ag11
ag10
ag4
ag11
ag11
ag3
ag3
ag5
ag4
ag12
ag11
ag12
ag32
ag4
ag2
ag5
ag4
ag11
ag11
ag1
ag4
ag11
ag13
ag10
ag4
ag11
ag11
ag4
ag1
ag15
ag10
ag13
ag3
ag11
ag9
ag4
ag2
ag11
ag11
ag4
ag3
ag4
ag4
aVw
p301
ag4
ag11
ag3
ag32
ag4
ag5
ag4
aVl
p302
ag4
ag15
ag3
ag5
ag1
ag16
ag1
ag13
ag2
ag1
ag4
ag1
ag7
ag1
ag5
ag4
ag12
ag11
ag12
ag4
ag3
ag4
ag2
ag11
ag2
ag5
ag4
ag10
ag4
ag5
ag4
ag9
ag13
ag3
ag12
ag11
ag4
ag11
ag9
ag3
ag1
ag4
ag3
ag13
ag11
ag11
ag5
ag4
ag1
ag11
ag7
ag1
ag4
ag11
ag7
ag1
ag16
ag10
ag4
ag11
ag4
aVf
p303
ag1
ag5
ag9
ag13
ag1
ag9
ag4
ag12
ag4
ag4
ag4
ag5
ag4
ag3
ag12
ag11
ag4
ag1
ag4
ag3
ag13
ag11
ag11
ag5
ag4
aVl
p304
ag11
ag7
ag13
ag11
ag2
ag11
ag7
ag5
ag4
ag9
ag3
ag12
ag11
ag12
ag15
ag11
ag12
ag5
ag11
ag7
ag5
ag4
ag9
ag4
ag2
ag1
ag3
ag2
ag5
ag1
ag2
ag4
ag1
ag2
ag7
ag5
ag4
ag12
ag10
ag4
aVf
p305
ag1
ag12
ag10
ag4
ag12
ag5
ag16
ag10
ag4
ag11
ag15
ag11
ag9
ag9
ag4
ag2
ag1
ag13
ag5
ag4
ag3
ag12
ag11
ag4
ag1
ag4
ag3
ag13
ag11
ag5
ag4
ag9
ag15
ag11
ag4
ag11
ag13
ag11
ag11
ag5
ag4
ag12
ag10
ag4
ag7
ag1
ag11
ag1
ag2
ag27
ag11
ag16
ag2
ag9
ag15
ag3
ag1
ag4
ag4
ag4
ag1
ag11
ag4
ag15
ag5
ag4
ag9
ag3
ag12
ag11
ag12
aVf
p306
ag1
ag11
ag1
ag1
ag12
ag15
ag11
ag16
ag11
ag3
ag5
ag4
ag9
ag3
ag12
ag11
ag12
ag11
ag7
ag11
ag16
ag3
ag4
ag1
ag4
ag2
ag4
ag10
ag4
ag1
ag9
ag11
ag13
ag3
ag2
ag9
ag11
ag4
ag11
ag16
ag4
ag9
ag5
ag11
ag4
ag5
ag11
ag4
ag2
ag4
ag4
ag5
ag16
ag1
ag13
ag11
ag1
ag3
ag3
ag15
ag4
ag1
ag4
ag10
ag4
ag11
ag5
ag4
ag9
ag1
ag2
ag4
ag11
ag16
ag7
ag3
ag12
ag1
ag5
ag4
ag1
ag5
ag11
ag5
ag1
ag13
ag16
ag5
ag2
ag23
ag13
ag11
ag4
ag16
ag11
ag12
ag4
ag2
ag3
ag7
ag9
ag1
ag2
ag4
ag11
ag16
ag4
ag5
ag7
ag1
ag16
ag1
ag13
ag11
ag1
ag3
ag3
ag4
ag3
ag11
ag11
ag9
ag3
ag1
ag32
ag11
ag7
ag3
ag4
ag1
ag11
ag16
ag11
ag13
ag15
ag4
ag1
ag7
ag5
ag4
ag4
ag4
ag5
ag13
ag4
ag11
ag16
ag13
ag3
ag1
ag10
ag3
ag13
ag4
ag4
ag2
ag9
ag11
aVv
p307
ag1
ag4
ag1
ag4
ag3
ag4
ag1
ag11
ag7
ag1
ag11
aVw
p308
ag4
ag7
ag2
ag13
ag11
ag11
ag16
ag3
ag4
ag11
aVv
p309
ag15
ag4
ag9
ag3
ag1
ag32
ag11
ag7
ag3
ag4
ag1
ag5
ag12
ag4
ag2
ag11
ag4
ag1
ag15
ag4
ag11
ag4
ag7
ag5
ag4
ag15
ag4
ag11
ag5
ag4
ag11
ag13
ag1
ag5
ag4
ag4
ag5
ag2
ag9
ag1
ag4
ag7
ag12
ag16
ag4
ag25
ag16
ag1
ag13
ag11
ag1
ag3
ag3
ag4
ag4
ag2
ag11
ag11
ag71
ag16
ag1
ag13
ag11
ag1
ag3
ag3
ag4
ag11
ag11
ag7
ag3
ag4
ag1
ag11
ag16
ag4
ag4
ag2
ag5
ag4
ag16
ag1
ag13
ag11
ag1
ag3
ag3
ag9
ag4
ag2
ag3
ag1
ag15
ag13
ag4
ag4
ag9
ag4
ag11
ag4
ag11
ag11
ag5
ag4
ag11
ag16
ag13
ag3
ag1
ag10
ag3
ag13
ag4
ag7
ag5
ag1
ag4
ag4
ag2
ag3
ag13
ag11
ag1
ag24
ag7
ag1
ag4
ag15
ag3
ag11
ag16
ag4
ag12
ag11
ag12
ag13
ag4
ag5
ag4
ag16
ag1
ag13
ag11
ag1
ag3
ag3
ag9
ag9
ag1
ag24
ag4
ag11
ag13
ag15
ag1
ag2
ag4
ag13
ag11
ag16
ag5
ag4
ag7
ag1
ag12
ag4
ag16
ag4
ag11
ag16
ag4
ag7
ag5
ag1
ag24
ag3
ag5
ag4
ag9
ag15
ag3
ag4
ag16
ag4
ag5
ag4
ag16
ag11
ag3
ag5
ag4
ag7
ag3
ag4
ag1
ag9
ag4
ag1
ag4
ag12
ag5
ag11
ag5
ag4
ag1
ag4
ag2
ag1
ag11
ag4
ag1
ag10
ag3
ag12
ag5
ag4
ag1
ag4
ag5
ag4
ag16
ag1
ag13
ag11
ag1
ag3
ag3
ag4
ag4
ag2
ag4
ag11
ag12
ag5
ag11
ag5
ag4
ag16
ag1
ag13
ag11
ag1
ag3
ag3
ag7
ag1
ag4
ag23
ag13
ag4
ag11
ag2
ag15
ag11
ag12
ag5
ag11
ag3
aVw
p310
ag4
ag9
ag1
ag10
ag4
ag5
ag4
ag4
ag10
ag4
ag3
ag9
ag4
ag11
ag10
ag4
ag3
ag4
ag5
ag7
ag1
ag1
ag11
ag11
ag4
ag4
ag11
ag13
ag11
ag11
ag4
ag2
ag15
ag9
ag9
ag3
ag11
ag16
ag1
ag4
ag16
ag13
ag3
ag1
ag32
ag4
ag11
ag11
ag11
ag1
ag13
ag1
ag4
ag16
ag1
ag4
ag11
aVr
p311
aVn
p312
ag11
ag5
ag4
ag7
ag1
ag4
ag23
ag13
ag4
ag11
ag2
ag9
ag2
ag4
ag7
ag24
ag11
ag5
ag4
ag4
ag5
ag9
ag10
ag4
ag3
ag9
ag1
ag4
ag2
ag5
ag4
ag16
ag11
ag3
ag12
ag5
ag9
ag3
ag2
ag5
ag11
ag16
ag4
ag11
ag9
ag1
ag9
ag3
ag13
ag4
ag13
ag11
ag16
ag7
ag24
aVr
p313
aVn
p314
ag5
ag4
ag27
ag4
ag4
ag10
ag4
ag1
ag2
ag4
ag5
ag4
ag13
ag9
ag11
ag7
ag3
ag11
ag4
ag1
ag11
ag11
ag1
ag7
ag5
ag4
ag16
ag11
ag3
ag11
ag2
ag11
ag10
ag4
ag11
ag11
ag3
ag7
ag24
ag11
ag9
ag1
ag4
ag2
ag11
ag4
ag2
ag5
ag11
ag23
ag13
ag4
ag5
ag4
ag2
ag11
ag10
ag4
ag11
ag11
ag3
ag7
ag24
ag11
ag9
ag1
ag4
ag2
ag11
ag4
ag2
ag5
ag11
ag23
ag13
ag4
ag13
ag4
ag5
ag1
ag4
ag9
ag1
ag3
ag11
ag9
ag3
ag11
ag3
ag12
ag11
ag12
ag2
ag9
ag4
ag12
ag5
ag5
ag4
ag11
ag11
ag11
ag1
ag7
ag5
ag4
ag4
ag2
ag5
ag4
ag11
ag4
ag12
ag4
ag5
ag4
ag11
ag1
ag4
ag23
ag13
ag1
ag4
ag12
ag11
ag12
ag11
ag16
ag1
ag4
ag16
ag4
ag11
ag9
ag3
ag1
ag4
ag2
ag11
aVw
p315
ag4
ag9
ag3
ag4
ag4
ag11
ag5
ag4
ag3
ag16
ag1
ag5
ag15
ag11
ag4
ag1
ag4
ag2
ag5
ag4
ag4
ag13
ag11
ag16
ag5
ag4
ag2
ag11
ag14
ag13
ag16
ag4
ag16
ag1
ag4
ag11
ag4
ag5
aVw
p316
ag4
ag2
ag11
ag1
ag11
ag5
ag4
ag2
ag4
ag7
ag7
ag2
ag4
ag11
ag7
ag11
ag11
ag11
ag1
ag13
ag1
ag4
ag16
ag1
ag4
ag11
aVn
p317
ag15
ag4
ag5
ag3
ag11
ag16
ag9
ag2
ag4
ag11
ag7
ag1
ag4
ag23
ag13
ag4
ag11
ag2
ag11
ag5
ag4
ag7
ag24
ag11
ag5
ag4
ag5
ag9
ag11
ag16
ag1
ag4
ag16
ag13
ag3
ag1
ag32
ag11
ag11
ag3
ag4
ag23
ag13
ag1
ag4
ag11
ag10
ag4
ag1
ag11
ag2
ag11
ag1
ag3
ag5
ag4
ag5
ag11
ag4
ag7
ag5
ag4
ag2
ag4
ag7
ag7
ag2
ag4
ag11
ag7
ag7
ag24
aVr
p318
aVn
p319
ag5
ag4
ag1
ag4
ag1
ag4
ag12
ag27
ag4
ag9
ag1
ag4
ag4
ag1
ag11
ag5
ag4
ag9
ag1
ag9
ag4
ag4
ag5
ag7
ag3
ag4
ag1
ag3
ag4
ag11
ag16
ag5
ag13
ag2
ag4
ag13
ag11
ag7
ag4
ag9
ag9
ag1
ag2
ag5
ag7
ag1
ag4
ag11
ag11
ag16
ag11
ag11
ag4
ag1
ag9
ag3
ag11
ag7
ag4
ag2
ag11
ag5
ag4
ag7
ag1
ag4
ag23
ag13
ag4
ag11
ag2
ag12
ag10
ag4
ag11
ag13
ag15
ag4
ag1
ag7
ag27
ag11
aVf
p320
ag1
ag11
ag11
ag16
ag13
ag3
ag1
ag4
ag1
ag2
ag5
ag11
ag5
ag4
ag7
ag27
ag11
ag2
ag1
ag1
ag4
ag13
ag4
ag11
ag7
ag9
ag1
ag4
ag11
ag13
ag15
ag4
ag1
ag7
ag11
ag11
ag9
ag11
ag11
ag3
ag13
ag11
ag16
ag3
ag12
ag7
ag1
ag4
ag23
ag13
ag4
ag11
ag2
ag4
ag15
ag13
ag10
ag4
ag1
ag5
ag4
ag12
ag5
ag3
ag4
ag7
ag1
ag4
ag23
ag13
ag4
ag11
ag2
ag1
ag11
ag16
ag4
ag5
ag4
ag11
ag11
ag11
ag16
ag13
ag3
ag1
ag27
ag7
ag13
ag11
ag2
ag11
ag4
ag16
ag11
ag4
ag15
ag4
ag11
ag5
ag4
ag4
ag11
ag7
ag4
ag11
ag11
ag9
ag5
ag4
ag27
ag7
ag13
ag11
ag2
ag11
ag13
ag3
ag32
ag4
ag12
ag5
ag5
ag4
ag3
ag4
ag23
ag13
ag1
ag4
ag7
ag11
ag16
ag9
ag1
ag11
ag2
ag9
ag3
ag4
ag7
ag1
ag9
ag3
ag4
ag11
ag11
ag16
ag1
ag11
ag4
ag1
ag9
ag3
ag11
ag7
ag5
ag4
ag3
ag4
ag23
ag13
ag1
ag4
ag7
ag1
ag4
ag2
ag3
ag9
ag9
ag3
ag4
ag11
ag5
ag4
ag4
ag9
ag2
ag4
ag11
ag5
ag4
ag9
ag1
ag9
ag4
ag4
ag5
ag2
ag11
ag15
ag4
ag13
ag4
ag11
ag4
ag1
ag9
ag3
ag4
ag1
ag4
ag16
ag13
ag3
ag1
ag3
ag9
ag3
ag4
ag12
ag4
ag3
ag3
ag1
ag11
ag3
ag9
ag3
ag4
ag11
ag1
ag4
ag16
ag13
ag3
ag1
ag16
ag1
ag11
ag5
ag4
ag2
ag11
ag1
ag4
ag3
ag4
ag24
ag9
ag3
ag4
ag1
ag4
ag9
ag1
ag10
ag4
ag4
ag24
ag11
ag4
ag5
ag4
ag9
ag4
ag1
ag7
ag1
ag11
ag2
ag4
ag7
ag5
ag4
ag9
ag1
ag9
ag4
ag4
ag5
ag11
ag16
ag21
ag4
ag2
ag10
ag3
ag13
ag4
ag2
ag11
ag15
ag4
ag11
ag11
ag4
ag11
ag10
ag4
ag11
ag4
ag2
ag11
ag13
ag11
ag16
ag4
ag11
ag4
ag10
ag1
ag3
ag16
ag1
ag5
ag5
ag9
ag1
ag10
ag4
ag11
ag3
ag11
ag7
ag1
ag11
ag11
ag4
ag24
ag9
ag4
ag4
ag5
ag9
ag1
ag2
ag4
ag2
ag11
ag5
ag4
ag1
ag4
ag7
ag1
ag4
ag15
ag4
ag13
ag4
ag7
ag13
ag3
ag3
ag7
ag1
ag5
ag4
ag11
ag4
ag1
ag9
ag1
ag4
ag4
ag1
ag7
ag13
ag1
ag5
ag4
ag1
ag5
ag16
ag3
ag11
ag3
ag16
ag1
ag5
ag5
ag16
ag10
ag4
ag9
ag16
ag1
ag9
ag5
ag2
ag9
ag4
ag1
ag9
ag4
ag2
ag10
ag4
ag7
ag4
ag2
ag4
ag2
ag1
ag15
ag4
ag7
ag4
ag1
ag9
ag9
ag3
ag11
ag16
ag5
ag4
ag2
ag11
ag11
ag13
ag13
ag12
ag10
ag4
ag3
ag4
ag1
ag11
ag7
ag1
ag5
ag4
ag4
ag9
ag3
ag4
ag5
ag10
ag11
ag16
ag1
ag4
ag2
ag11
ag3
ag1
ag4
ag11
ag11
ag1
ag4
ag2
ag11
ag1
ag13
ag2
ag4
ag3
ag2
ag3
ag3
ag11
ag5
ag4
ag2
ag9
ag3
ag4
ag24
ag12
ag10
ag4
ag3
ag4
ag11
ag7
ag1
ag11
ag13
ag15
ag4
ag1
ag7
ag2
ag3
ag4
aVf
p321
ag1
ag4
ag2
ag5
ag2
ag3
ag4
ag2
ag9
ag3
ag4
ag24
ag1
ag24
ag7
ag1
ag4
ag5
ag10
ag11
ag16
ag1
ag4
ag3
ag11
ag16
ag11
ag1
ag9
ag1
ag12
ag5
ag2
ag5
ag1
ag4
ag11
ag4
ag9
ag4
ag11
ag4
ag11
ag3
ag4
ag16
ag11
ag4
ag7
ag1
ag9
ag4
ag2
ag7
ag2
ag9
ag13
ag1
ag9
ag4
ag11
ag5
ag4
ag11
ag2
ag15
ag11
ag4
ag9
ag1
ag13
ag2
ag4
ag5
ag4
ag7
ag11
ag3
ag1
ag4
ag13
ag3
aVw
p322
ag5
ag4
ag1
ag4
ag5
ag4
ag2
ag9
ag11
ag7
ag5
ag4
ag1
ag4
ag3
ag1
ag24
ag11
ag12
ag4
ag3
ag3
ag13
ag4
ag7
ag1
ag4
ag3
ag11
ag16
ag12
ag5
ag5
ag4
ag9
ag16
ag1
ag9
ag5
ag2
ag9
ag4
ag2
ag7
ag5
ag4
ag5
ag4
ag16
ag11
ag1
ag1
ag24
aVu
p323
ag11
ag16
ag15
ag2
ag2
ag11
ag2
ag4
ag9
ag7
ag1
ag16
ag1
ag9
ag5
ag5
ag4
ag1
ag5
ag4
ag16
ag11
ag1
ag1
ag24
ag2
ag11
ag1
ag13
ag2
ag4
ag1
ag4
ag10
ag4
ag3
ag5
ag4
ag9
ag16
ag1
ag9
ag5
ag2
ag11
ag13
ag1
ag4
ag7
ag5
ag4
ag13
ag11
ag4
ag1
ag3
ag11
ag16
ag3
ag4
ag4
ag24
ag4
ag11
ag9
ag2
ag11
ag9
ag1
ag10
ag4
ag3
ag1
ag1
ag4
ag13
ag3
aVn
p324
ag11
ag4
ag5
ag4
ag3
ag4
ag2
ag9
ag1
ag11
ag4
ag11
ag4
ag24
ag4
ag11
ag11
ag7
ag5
ag4
ag1
ag11
ag3
ag7
ag1
ag4
ag23
ag13
ag4
ag11
ag2
ag9
ag2
ag4
ag7
ag24
ag1
ag11
ag11
ag4
ag4
ag11
ag13
ag11
ag4
ag5
ag5
ag1
ag4
ag4
ag2
ag9
ag11
ag4
ag11
ag4
ag2
ag1
ag4
ag2
ag1
aVf
p325
ag1
ag5
ag9
ag13
ag1
ag9
ag4
ag12
ag4
ag4
ag10
ag4
ag3
ag9
ag5
ag1
ag4
ag4
ag2
ag9
ag11
ag4
ag11
ag10
ag4
ag2
ag1
ag13
ag1
ag4
ag16
ag1
ag4
ag10
ag4
aVv
p326
aVr
p327
ag4
ag3
ag11
ag5
ag4
ag7
ag24
ag11
ag5
ag9
ag9
ag3
ag4
ag5
ag4
ag13
ag3
ag2
ag9
ag11
ag4
ag11
ag9
ag3
ag9
ag3
ag4
ag7
ag4
ag2
ag5
ag11
ag10
ag13
ag3
ag4
ag9
ag1
ag3
ag7
ag1
ag4
ag23
ag13
ag4
ag11
ag2
aVv
p328
aVr
p329
ag4
ag3
ag9
ag1
ag4
ag4
ag1
ag1
ag4
ag4
ag4
ag13
ag11
ag16
ag5
ag4
ag3
ag4
ag23
ag13
ag1
ag4
ag11
ag32
ag11
ag7
ag7
ag1
ag12
ag1
ag11
ag15
ag2
ag27
ag12
ag1
ag9
ag1
ag4
ag2
ag11
ag4
ag1
ag1
ag1
aVv
p330
aVr
p331
ag4
ag3
ag11
ag16
ag4
ag7
ag7
ag4
ag2
ag10
ag4
ag3
ag4
ag11
ag7
ag4
ag5
ag4
ag9
ag4
ag11
ag3
ag2
ag5
ag4
ag1
ag4
ag11
ag2
ag4
ag15
ag4
ag12
ag4
ag4
ag11
ag10
ag1
ag13
ag2
ag9
ag11
ag4
ag11
ag7
ag13
ag3
ag2
ag9
ag11
ag4
ag11
ag16
ag11
ag3
aVw
p332
ag4
ag13
ag4
ag5
ag4
ag23
ag13
ag1
ag4
ag2
ag5
ag4
ag1
ag4
ag11
ag2
ag4
ag9
ag4
ag2
ag1
ag13
ag7
aVv
p333
aVr
p334
ag4
ag3
ag11
ag11
ag2
ag1
ag4
ag4
ag1
ag11
ag4
ag5
ag4
ag4
ag2
ag5
ag4
ag1
ag4
ag11
ag2
ag4
ag11
ag5
ag4
ag2
ag11
ag1
ag4
ag3
ag4
ag24
ag9
ag3
ag4
ag1
ag4
ag9
ag1
ag10
ag4
ag5
ag12
ag5
ag4
ag4
ag7
ag7
ag4
ag2
ag10
ag4
ag11
ag4
ag7
ag5
ag4
ag9
ag1
ag9
ag4
ag4
ag5
a.