(lp0
Vissue
p1
aVgeophysics
p2
aVdimensional
p3
aVinversion
p4
aVairborne
p5
aVtime
p6
aVdomain
p7
aVelectromagnetic
p8
aVdata
p9
aVapplications
p10
aVporphyry
p11
aVdeposit
p12
aVrole
p13
aVairborne
p14
aVgeophysics
p15
aVdetecting
p16
aVhydrocarbon
p17
aVmicroseepages
p18
aVrelated
p19
aVstructural
p20
aVfeatures
p21
aVcase
p22
aVremanso
p23
aVfogo
p24
aVbrazil
p25
aVscattering
p26
aVeffect
p27
aVshallow
p28
aVgas
p29
aVobscured
p30
aVzone
p31
aVimaging
p32
aVbohai
p33
aVpl19
p34
aV3
p35
aVarea
p36
aVsalt
p37
aVtracer
p38
aVtest
p39
aVmonitored
p40
aVsurface
p41
aVert
p42
aVdetect
p43
aVpreferential
p44
aVflow
p45
aVtransport
p46
aVpaths
p47
aVfractured
p48
aVkarstified
p49
aVlimestones
p50
aVhierarchical
p51
aVbayesian
p52
aVlithology
p53
aVfluid
p54
aVprediction
p55
aVnorth
p56
aVsea
p57
aVcase
p58
aVstudy
p59
aVultrashallow
p60
aVdepth
p61
aVimaging
p62
aVchannel
p63
aVstratigraphy
p64
aVarrival
p65
aVtraveltime
p66
aVinversion
p67
aVprestack
p68
aVdepth
p69
aVmigration
p70
aVcase
p71
aVhistory
p72
aVbull
p73
aVcreek
p74
aVoklahoma
p75
aVnumerical
p76
aVtest
p77
aVschoenberg
p78
aVmuir
p79
aVtheory
p80
aVrock
p81
aVphysics
p82
aVmodels
p83
aVbitumen
p84
aVsaturated
p85
aVsands
p86
aVfractional
p87
aVgradient
p88
aVmodel
p89
aVhashin
p90
aVshtrikman
p91
aViterative
p92
aVmodel
p93
aVstreaming
p94
aVpotential
p95
aVcoefficient
p96
aVreservoir
p97
aVrock
p98
aVtheoretical
p99
aVmodel
p100
aVfinite
p101
aVelement
p102
aVmultifrontal
p103
aVmethod
p104
aV3d
p105
aVcsem
p106
aVmodeling
p107
aVfrequency
p108
aVdomain
p109
aVfeasibility
p110
aVstudy
p111
aVco2
p112
aVsequestration
p113
aVmonitoring
p114
aVusing
p115
aVmcsem
p116
aVmethod
p117
aVdeep
p118
aVbrine
p119
aVaquifer
p120
aVshallow
p121
aVsea
p122
aVsimulated
p123
aVannealing
p124
aVcontrolled
p125
aVsource
p126
aVaudio
p127
aVfrequency
p128
aVmagnetotelluric
p129
aVdata
p130
aVinversion
p131
aVincreasing
p132
aVsensitivity
p133
aVcontrolled
p134
aVsource
p135
aVelectromagnetics
p136
aVsynthetic
p137
aVaperture
p138
aVresolution
p139
aVreservoir
p140
aVscale
p141
aVelectrical
p142
aVanisotropy
p143
aVmarine
p144
aVcsem
p145
aVdata
p146
aVmarkov
p147
aVchain
p148
aVmonte
p149
aVcarlo
p150
aVestimation
p151
aVdistributed
p152
aVdebye
p153
aVrelaxations
p154
aVspectral
p155
aVinduced
p156
aVpolarization
p157
aVseismic
p158
aVimaging
p159
aVwater
p160
aVcolumn
p161
aVdeep
p162
aVlayer
p163
aVassociated
p164
aVdeepwater
p165
aVhorizon
p166
aVoil
p167
aVspill
p168
aVanalytical
p169
aVcomputation
p170
aVgravity
p171
aVtensor
p172
aVhomogeneous
p173
aVarbitrarily
p174
aVshaped
p175
aVpolyhedral
p176
aVsource
p177
aVusing
p178
aVline
p179
aVintegrals
p180
aVanalysis
p181
aVgravity
p182
aVgradiometer
p183
aVinverse
p184
aVproblems
p185
aVusing
p186
aVoptimal
p187
aVdesign
p188
aVmeasures
p189
aVtime
p190
aVlapse
p191
aVgravity
p192
aVnumerical
p193
aVdemonstration
p194
aVusing
p195
aVrobust
p196
aVinversion
p197
aVjoint
p198
aVinterpretation
p199
aV4d
p200
aVsurface
p201
aVborehole
p202
aVdata
p203
aVmonte
p204
aVcarlo
p205
aVwaveform
p206
aVinversion
p207
aVcrosshole
p208
aVgpr
p209
aVdata
p210
aVusing
p211
aVmultiple
p212
aVpoint
p213
aVgeostatistical
p214
aVpriori
p215
aVinformation
p216
aV3d
p217
aVmigration
p218
aVrapid
p219
aVimaging
p220
aVtotal
p221
aVmagnetic
p222
aVintensity
p223
aVdata
p224
aVstatic
p225
aVdynamic
p226
aVeffective
p227
aVstress
p228
aVcoefficient
p229
aVchalk
p230
aVeffective
p231
aVcrosswell
p232
aVseismic
p233
aVtraveltime
p234
aVestimation
p235
aVapproach
p236
aVquasi
p237
aVcontinuous
p238
aVreservoir
p239
aVmonitoring
p240
aVfast
p241
aVmultifrequency
p242
aVfocal
p243
aVbeam
p244
aVanalysis
p245
aV3d
p246
aVseismic
p247
aVacquisition
p248
aVgeometry
p249
aVmultiscattering
p250
aVillumination
p251
aVblended
p252
aVacquisition
p253
aVelastic
p254
aVwavefield
p255
aVinterferometry
p256
aVusing
p257
aVp
p258
aVwave
p259
aVsource
p260
aVvsps
p261
aVwamsutter
p262
aVfield
p263
aVwyoming
p264
aVbayesian
p265
aVsurvey
p266
aVdesign
p267
aVoptimize
p268
aVresolution
p269
aVwaveform
p270
aVinversion
p271
aVimpact
p272
aVcracks
p273
aVlost
p274
aVimaging
p275
aVprocess
p276
aVcomputing
p277
aVlinear
p278
aVelastic
p279
aVproperties
p280
aV3d
p281
aVmicrotomographic
p282
aVimages
p283
aVberea
p284
aVsandstone
p285
aVexploitation
p286
aVdata
p287
aVinformation
p288
aVcontent
p289
aVelastic
p290
aVwaveform
p291
aVinversions
p292
aVconstrained
p293
aVwaveform
p294
aVinversion
p295
aVmodel
p296
aVreparameterization
p297
aVpolarity
p298
aVreversal
p299
aVcorrection
p300
aVelastic
p301
aVreverse
p302
aVtime
p303
aVmigration
p304
aVcombining
p305
aVwavefield
p306
aVmigration
p307
aVwaveform
p308
aVinversion
p309
aVglance
p310
aVfuture
p311
aVseismic
p312
aVimaging
p313
aVazimuth
p314
aVpreserved
p315
aVlocal
p316
aVangle
p317
aVdomain
p318
aVprestack
p319
aVtime
p320
aVmigration
p321
aVisotropic
p322
aVvertical
p323
aVtransversely
p324
aVisotropic
p325
aVazimuthally
p326
aVanisotropic
p327
aVmedia
p328
aViterative
p329
aVfinite
p330
aVdifference
p331
aVsolution
p332
aVanalysis
p333
aVacoustic
p334
aVwave
p335
aVequation
p336
aVlaplace
p337
aVfourier
p338
aVdomain
p339
aVdecoupled
p340
aVequations
p341
aVreverse
p342
aVtime
p343
aVmigration
p344
aVtilted
p345
aVtransversely
p346
aVisotropic
p347
aVmedia
p348
aVhigher
p349
aVorder
p350
aVschemes
p351
aV3d
p352
aVarrival
p353
aVtraveltimes
p354
aVamplitudes
p355
aVimplicit
p356
aVfinite
p357
aVdifference
p358
aVsimulations
p359
aVseismic
p360
aVwave
p361
aVpropagation
p362
aVvelocity
p363
aVanalysis
p364
aVusing
p365
aVweighted
p366
aVsemblance
p367
aVgeneralized
p368
aVnonelliptic
p369
aVmoveout
p370
aVapproximation
p371
aVp
p372
aVdomain
p373
aVmicroseismic
p374
aVdata
p375
aVdenoising
p376
aVusing
p377
aV3c
p378
aVgroup
p379
aVsparsity
p380
aVconstrained
p381
aVtime
p382
aVfrequency
p383
aVtransform
p384
aVwindow
p385
aVlength
p386
aVselection
p387
aVoptimum
p388
aVslowness
p389
aVresolution
p390
aVlocal
p391
aVslant
p392
aVstack
p393
aVtransform
p394
aVsingle
p395
aVstation
p396
aVsvd
p397
aVbased
p398
aVpolarization
p399
aVfiltering
p400
aVground
p401
aVroll
p402
aVperfection
p403
aVinvestigation
p404
aVlimitations
p405
aVpitfalls
p406
aVrandom
p407
aVnoise
p408
aVattenuation
p409
aVusing
p410
aVf
p411
aVx
p412
aVregularized
p413
aVnonstationary
p414
aVautoregression
p415
aVseismic
p416
aVdata
p417
aVinterpolation
p418
aVdenoising
p419
aVfrequency
p420
aVwavenumber
p421
aVdomain
p422
aVnew
p423
aVapproach
p424
aVdetecting
p425
aVtopographic
p426
aVgeologic
p427
aVinformation
p428
aVseismic
p429
aVdata
p430
aVmulticomponent
p431
ag411
ag412
aVseismic
p432
aVrandom
p433
aVnoise
p434
aVattenuation
p435
aVvector
p436
aVautoregressive
p437
aVoperators
p438
aVimproved
p439
aVmethod
p440
aVhydrofracture
p441
aVinduced
p442
aVmicroseismic
p443
aVevent
p444
aVdetection
p445
aVphase
p446
aVpicking
p447
aVfuxian
p448
aVsong
p449
aVh
p450
aVsadi
p451
aVkuleli
p452
aVnafi
p453
aVtoks
p454
aVz
p455
aVerkan
p456
aVay
p457
aVhaijiang
p458
aVzhang
p459
aVgeophysics
p460
aV75
p461
aV6
p462
aVa47
p463
aVa52
p464
aVjoint
p465
aVconstrained
p466
aVinversion
p467
aVgeophysical
p468
aVdata
p469
aVimproved
p470
aVimaging
p471
aVaquifer
p472
aVstructure
p473
aVprocesses
p474
a.