(lp0
VBelgium
p1
aVGermany
p2
aVBelgium
p3
aVBelgium
p4
aVBelgium
p5
aVUSA
p6
aVCanada
p7
aVUK
p8
aVCanada
p9
aVCanada
p10
aVCanada
p11
aVCanada
p12
aVCanada
p13
aVChina
p14
aVSweden
p15
aVSweden
p16
aVChina
p17
aVChina
p18
aVUSA
p19
aVUSA
p20
aVUSA
p21
aVChina
p22
aVThe Netherlands
p23
aVThe Netherlands
p24
aVThe Netherlands
p25
aVThe Netherlands
p26
aVThe Netherlands
p27
aVUSA
p28
aVCanada
p29
aVChina
p30
aVChina
p31
aVUSA
p32
aVFrance
p33
aVUSA
p34
aVFrance
p35
aVFrance
p36
aVFrance
p37
aVUSA
p38
aVUSA
p39
aVFrance
p40
aVNorway
p41
aVNorway
p42
aVThe Netherlands
p43
aVNorway
p44
aVNorway
p45
aVThe Netherlands
p46
aVNorway
p47
aVNorway
p48
aVNorway
p49
aVNorway
p50
aVNorway
p51
aVChina
p52
aVChina
p53
aVChina
p54
aVChina
p55
aVChina
p56
aVChina
p57
aVChina
p58
aVUK
p59
aVCanada
p60
aVCanada
p61
aVJapan
p62
aVChina
p63
aVChina
p64
aVChina
p65
aVCanada
p66
aVCanada
p67
aVChina
p68
aVUSA
p69
aVUSA
p70
aVCanada
p71
aVChina
p72
aVUK
p73
aVUSA
p74
aVUSA
p75
aVUK
p76
aVChina
p77
aVCanada
p78
aVChina
p79
aVUK
p80
aVBrazil
p81
aVBrazil
p82
aVChina
p83
aVChina
p84
aVChina
p85
aVUSA
p86
aVChina
p87
aVFrance
p88
aVBrazil
p89
aVBrazil
p90
aVFrance
p91
aVBrazil
p92
aVChina
p93
aVChina
p94
aVChina
p95
aVUSA
p96
aVCanada
p97
aVBrazil
p98
aVBrazil
p99
aVBrazil
p100
aVBrazil
p101
aVBrazil
p102
aVUSA
p103
aVUSA
p104
aVUSA
p105
aVUSA
p106
aVUK
p107
aVUK
p108
aVUK
p109
aVTurkey
p110
aVGermany
p111
aVUSA
p112
aVUSA
p113
aVUSA
p114
aVUSA
p115
aVUSA
p116
aVUSA
p117
aVUSA
p118
aVUSA
p119
aVUSA
p120
aVUSA
p121
aVGermany
p122
aVCanada
p123
aVSweden
p124
aVSwitzerland
p125
aVGermany
p126
aVGermany
p127
aVUSA
p128
aVUSA
p129
aVUSA
p130
aVUSA
p131
aVUSA
p132
aVUSA
p133
aVUSA
p134
aVUSA
p135
aVUSA
p136
aVDenmark
p137
aVFrance
p138
aVUSA
p139
aVUSA
p140
aVUSA
p141
aVUSA
p142
aVCanada
p143
aVUSA
p144
aVUSA
p145
aVUSA
p146
aVUSA
p147
aVUSA
p148
aVUSA
p149
aVCanada
p150
aVSwitzerland
p151
aVSwitzerland
p152
aVFrance
p153
aVFrance
p154
aVFrance
p155
aVFrance
p156
aVFrance
p157
aVSwitzerland
p158
aVSwitzerland
p159
aVDenmark
p160
aVSweden
p161
aVDenmark
p162
aVDenmark
p163
aVGreenland
p164
aVSweden
p165
aVDenmark
p166
aVUSA
p167
aVUSA
p168
aVUSA
p169
aVGermany
p170
aVGermany
p171
aVUK
p172
aVUK
p173
aVUSA
p174
aVSwitzerland
p175
aVUSA
p176
aVSwitzerland
p177
aVUSA
p178
aVUSA
p179
aVUSA
p180
aVUSA
p181
aVUSA
p182
aVUSA
p183
aVUSA
p184
aVUSA
p185
a.