(lp0
Vissue
p1
aVgeophysics
p2
aVdata
p3
aVdriven
p4
aVselection
p5
aVminimum
p6
aVgradient
p7
aVsupport
p8
aVparameter
p9
aVtime
p10
aVlapse
p11
aVfocused
p12
aVelectric
p13
aVimaging
p14
aVdimensional
p15
aVimaging
p16
aVag
p17
aVau
p18
aVrich
p19
aVepithermal
p20
aVbritish
p21
aVcolumbia
p22
aVcanada
p23
aVusing
p24
aVairborne
p25
aVz
p26
aVaxis
p27
aVtipper
p28
aVelectromagnetic
p29
aVground
p30
aVbased
p31
aVmagnetotelluric
p32
aVdata
p33
aVintegration
p34
aVcontrolled
p35
aVsource
p36
aVradio
p37
aVmagnetotellurics
p38
aVelectric
p39
aVresistivity
p40
aVtomography
p41
aVreflection
p42
aVseismics
p43
aVdelineate
p44
aV3d
p45
aVstructures
p46
aVquick
p47
aVclay
p48
aVlandslide
p49
aVsite
p50
aVsouthwest
p51
aVsweden
p52
aVphysical
p53
aVmodeling
p54
aVstudy
p55
aVseismic
p56
aVfeatures
p57
aVkarst
p58
aVcave
p59
aVreservoirs
p60
aVtarim
p61
aVbasin
p62
aVchina
p63
aVinversion
p64
aVnuclear
p65
aVmagnetic
p66
aVresonance
p67
aVecho
p68
aVdata
p69
aVbased
p70
aVmaximum
p71
aVentropy
p72
aVinversion
p73
aVbased
p74
aVinterpretation
p75
aVlogging
p76
aVdrilling
p77
aVgamma
p78
aVray
p79
aVspectroscopy
p80
aVmeasurements
p81
aVmodel
p82
aVbased
p83
aVdispersive
p84
aVprocessing
p85
aVborehole
p86
aVdipole
p87
aVwave
p88
aVdata
p89
aVusing
p90
aVequivalent
p91
aVtool
p92
aVtheory
p93
aVultrasonic
p94
aVvelocity
p95
aVattenuation
p96
aVanisotropy
p97
aVshales
p98
aVwhitby
p99
aVunited
p100
aVkingdom
p101
aVheavy
p102
aVoil
p103
aVsands
p104
aVmeasurement
p105
aVrock
p106
aVphysics
p107
aVmodeling
p108
aVsemianalytic
p109
aVsolution
p110
aVresponse
p111
aVtriaxial
p112
aVinduction
p113
aVlogging
p114
aVtool
p115
aVlayered
p116
aVbiaxial
p117
aVanisotropic
p118
aVformation
p119
aVmedium
p120
aVfrequency
p121
aVelectromagnetic
p122
aVdevice
p123
aVmeasure
p124
aVelectric
p125
aVconductivity
p126
aVdielectric
p127
aVpermittivity
p128
aVsoils
p129
aVconnecting
p130
aVcomplex
p131
aVconductivity
p132
aVspectra
p133
aVmercury
p134
aVporosimetry
p135
aVsedimentary
p136
aVrocks
p137
aVmodeling
p138
aVstudy
p139
aVaugmenting
p140
aVcoarse
p141
aVgrid
p142
aV3d
p143
aVcontrolled
p144
aVsource
p145
aVelectromagnetics
p146
aVdata
p147
aVtowed
p148
aVreceiver
p149
aVarray
p150
aVapproximate
p151
aV3d
p152
aVinversion
p153
aVmethod
p154
aVinversion
p155
aVsingle
p156
aVinduction
p157
aVlogging
p158
aVresponses
p159
aVintegrated
p160
aVseismic
p161
aVelectromagnetic
p162
aVmodel
p163
aVbuilding
p164
aVapplied
p165
aVimprove
p166
aVsubbasalt
p167
aVdepth
p168
aVimaging
p169
aVfaroe
p170
aVshetland
p171
aVbasin
p172
aVedge
p173
aVenhancement
p174
aVpotential
p175
aVfield
p176
aVdata
p177
aVusing
p178
aVspectral
p179
aVmoments
p180
aVfourier
p181
aVforward
p182
aVmodeling
p183
aVvector
p184
aVtensor
p185
aVgravity
p186
aVfields
p187
aVprismatic
p188
aVbodies
p189
aVvariable
p190
aVdensity
p191
aVcontrast
p192
aVattribute
p193
aVbased
p194
aVanalysis
p195
aVtime
p196
aVlapse
p197
aVground
p198
aVpenetrating
p199
aVradar
p200
aVdata
p201
aVcompressive
p202
aVsensing
p203
aVimaging
p204
aVmicroseismic
p205
aVevents
p206
aVconstrained
p207
aVsign
p208
aVbit
p209
aVmacroscopic
p210
aVframework
p211
aVviscoelasticity
p212
aVporoelasticity
p213
aVwave
p214
aVinduced
p215
aVfluid
p216
aVflows
p217
aV1
p218
aVgeneral
p219
aVlinear
p220
aVsolid
p221
aV3d
p222
aVanalysis
p223
aVpore
p224
aVeffect
p225
aVcomposite
p226
aVelasticity
p227
aVmeans
p228
aVfinite
p229
aVelement
p230
aVmethod
p231
aVlove
p232
aVwave
p233
aVwaveform
p234
aVinversion
p235
aVtime
p236
aVdomain
p237
aVshallow
p238
aVshear
p239
aVwave
p240
aVvelocity
p241
aViterative
p242
aVmultiparameter
p243
aVwaveform
p244
aVinversion
p245
aVprecritical
p246
aVreflection
p247
aVdata
p248
aVusing
p249
aVprestack
p250
aVtime
p251
aVkirchhoff
p252
aVapproximation
p253
aVangle
p254
aVgathers
p255
aVreverse
p256
aVtime
p257
aVmigration
p258
aVusing
p259
aVanalytic
p260
aVwavefield
p261
aVpropagation
p262
aVdecomposition
p263
aVtime
p264
aVdomain
p265
aVseismic
p266
aVimaging
p267
aVincomplete
p268
aVdata
p269
aVsimultaneous
p270
aVsource
p271
aVdata
p272
aVusing
p273
aVsquares
p274
aVreverse
p275
aVtime
p276
aVmigration
p277
aVshaping
p278
aVregularization
p279
aVeffect
p280
aVvelocity
p281
aVuncertainty
p282
aVmigrated
p283
aVreflectors
p284
aVimprovements
p285
aVrelative
p286
aVdepth
p287
aVimaging
p288
aVreverse
p289
aVtime
p290
aVmigration
p291
aV3d
p292
aVvertical
p293
aVseismic
p294
aVprofile
p295
aVdata
p296
aVlow
p297
aVrank
p298
aVstep
p299
aVwave
p300
aVextrapolation
p301
aVreverse
p302
aVtime
p303
aVmigration
p304
aVviscosity
p305
aVair
p306
aVgun
p307
aVbubble
p308
aVmodeling
p309
aVreflectivity
p310
aVinversion
p311
aVattenuated
p312
aVseismic
p313
aVdata
p314
aVphysical
p315
aVmodeling
p316
aVfield
p317
aVdata
p318
aVexperiments
p319
aVwave
p320
aVequation
p321
aVbased
p322
aVimage
p323
aVwarping
p324
aVfast
p325
aValgorithm
p326
aVsparse
p327
aVmultichannel
p328
aVblind
p329
aVdeconvolution
p330
aVmultichannel
p331
aVpredictive
p332
aVdeconvolution
p333
aVbased
p334
aVfast
p335
aViterative
p336
aVshrinkage
p337
aVthresholding
p338
aValgorithm
p339
aVseismic
p340
aVdata
p341
aVdeconvolution
p342
aVusing
p343
aVkalman
p344
aVfilter
p345
aVbased
p346
aVnew
p347
aVmodel
p348
aVadaptive
p349
aVmultiple
p350
aVsubtraction
p351
aVunification
p352
aVcomparison
p353
aVmatching
p354
aVfilters
p355
aVbased
p356
aVq
p357
aVnorm
p358
aVstatistical
p359
aVindependence
p360
aVtime
p361
aVvarying
p362
aVwavelet
p363
aVextraction
p364
aVusing
p365
aVlocal
p366
aVsimilarity
p367
aVadaptive
p368
aVmultiple
p369
aVsubtraction
p370
aVbased
p371
aVmultiband
p372
aVpattern
p373
aVcoding
p374
aVhighly
p375
aValiased
p376
aVground
p377
aVroll
p378
aVsuppression
p379
aVusing
p380
aV3d
p381
aVmultiwindow
p382
aVkarhunen
p383
aVlo
p384
aVfilter
p385
aVapplication
p386
aVlegacy
p387
aVmississippi
p388
aVlime
p389
aVsurvey
p390
aVfast
p391
aVdual
p392
aVdomain
p393
aVreduced
p394
aVrank
p395
aValgorithm
p396
aV3d
p397
aVdeblending
p398
aVrandomized
p399
aVqr
p400
aVdecomposition
p401
aVresolution
p402
aVcrosswell
p403
aVtraveltime
p404
aVtomography
p405
aVdependence
p406
aVillumination
p407
aVadvancements
p408
aVmeasurement
p409
aVcryosphere
p410
aVusing
p411
aVgeophysics
p412
aVintroduction
p413
aVapproximations
p414
aVseismic
p415
aVava
p416
aVresponses
p417
aVvalidity
p418
aVpotential
p419
aVglaciological
p420
aVapplications
p421
aVhigh
p422
aVresolution
p423
aVground
p424
aVpenetrating
p425
aVradar
p426
aVprofiles
p427
aVperennial
p428
aVlake
p429
aVice
p430
aVmcmurdo
p431
aVdry
p432
aVvalleys
p433
aVantarctica
p434
aVhorizon
p435
aVattributes
p436
aVunconformities
p437
aVsubbottom
p438
aVpenetration
p439
aVground
p440
aVpenetrating
p441
aVradar
p442
aVprofiles
p443
aVmcmurdo
p444
aVshear
p445
aVzone
p446
aVantarctica
p447
aVacquired
p448
aVunmanned
p449
aVrover
p450
aVinterpretation
p451
aVcrevasses
p452
aVfractures
p453
aVfolds
p454
aVfirn
p455
aVmarine
p456
aVice
p457
aVevidence
p458
aVvariable
p459
aVgrounding
p460
aVzone
p461
aVshear
p462
aVmargin
p463
aVbasal
p464
aVconditions
p465
aVthwaites
p466
aVglacier
p467
aVwest
p468
aVantarctica
p469
aVimproved
p470
aV1d
p471
aVinversions
p472
aVsea
p473
aVice
p474
aVthickness
p475
aVconductivity
p476
aVelectromagnetic
p477
aVinduction
p478
aVdata
p479
aVinclusion
p480
aVnonlinearities
p481
aVcaused
p482
aVpassive
p483
aVbucking
p484
aVtargeted
p485
aVreflection
p486
aVwaveform
p487
aVinversion
p488
aVexperimental
p489
aVground
p490
aVpenetrating
p491
aVradar
p492
aVdata
p493
aVquantification
p494
aVoil
p495
aVspills
p496
aVsea
p497
aVice
p498
aVdegrading
p499
aVpermafrost
p500
aVmapped
p501
aVelectrical
p502
aVresistivity
p503
aVtomography
p504
aVairborne
p505
aVimagery
p506
aVlidar
p507
aVseasonal
p508
aVthaw
p509
aVmeasurements
p510
aVhelicopter
p511
aVborne
p512
aVtransient
p513
aVelectromagnetics
p514
aVhigh
p515
aVlatitude
p516
aVenvironments
p517
aVapplication
p518
aVmcmurdo
p519
aVdry
p520
aVvalleys
p521
aVantarctica
p522
aVground
p523
aVpenetrating
p524
aVradar
p525
aVassessing
p526
aVwinter
p527
aVroads
p528
aVdistribution
p529
aVpreferred
p530
aVice
p531
aVcrystal
p532
aVorientation
p533
aVdetermined
p534
aVseismic
p535
aVanisotropy
p536
aVevidence
p537
aVjakobshavn
p538
aVisbr
p539
aVnorth
p540
aVgreenland
p541
aVeemian
p542
aVice
p543
aVdrilling
p544
aVfacility
p545
aVgreenland
p546
aVhelicopter
p547
aVborne
p548
aVground
p549
aVpenetrating
p550
aVradar
p551
aVinvestigations
p552
aVtemperate
p553
aValpine
p554
aVglaciers
p555
aVcomparison
p556
aVdifferent
p557
aVsystems
p558
aVabilities
p559
aVbedrock
p560
aVmapping
p561
aVground
p562
aVpenetrating
p563
aVradar
p564
aVsurface
p565
aVnuclear
p566
aVmagnetic
p567
aVresonance
p568
aVmonitoring
p569
aVenglacial
p570
aVwater
p571
aVfilled
p572
aVcavity
p573
aVpolythermal
p574
aVglacier
p575
aVte
p576
aVrousse
p577
aVmultidisciplinary
p578
aVgeophysical
p579
aVinvestigations
p580
aValpine
p581
aVrock
p582
aVglacier
p583
aVeffect
p584
aVelectrode
p585
aVshape
p586
aVgrounding
p587
aVresistances
p588
ag218
aVfocus
p589
aVprotocol
p590
aVeffect
p591
aVelectrode
p592
aVshape
p593
aVgrounding
p594
aVresistances
p595
aV2
p596
aVexperimental
p597
aVresults
p598
aVcryospheric
p599
aVmonitoring
p600
aVestimating
p601
aVsnow
p602
aVwater
p603
aVequivalent
p604
aVlong
p605
aVmountain
p606
aVtransects
p607
aVusing
p608
aVsnowmobile
p609
aVmounted
p610
aVground
p611
aVpenetrating
p612
aVradar
p613
aV3d
p614
aVground
p615
aVpenetrating
p616
aVradar
p617
aVimaging
p618
aVice
p619
aVcomplex
p620
aVdeposits
p621
aVnorthern
p622
aVeast
p623
aVsiberia
p624
aVimproved
p625
aVaccuracy
p626
aVcross
p627
aVborehole
p628
aVradar
p629
aVvelocity
p630
aVmodels
p631
aVice
p632
aVproperty
p633
aVanalysis
p634
aVsynthetic
p635
aVstudy
p636
aVassess
p637
aVapplicability
p638
aVwaveform
p639
aVinversion
p640
aVinfer
p641
aVsnow
p642
aVstratigraphy
p643
aVupward
p644
aVlooking
p645
aVground
p646
aVpenetrating
p647
aVradar
p648
aVdata
p649
aVidentifying
p650
aVhydrologic
p651
aVflowpaths
p652
aVarctic
p653
aVhillslopes
p654
aVusing
p655
aVelectrical
p656
aVresistivity
p657
aVself
p658
aVpotential
p659
aVrock
p660
aVphysics
p661
aVinvestigation
p662
aVunconsolidated
p663
aVsaline
p664
aVpermafrost
p665
aVp
p666
aVwave
p667
aVproperties
p668
aVlaboratory
p669
aVultrasonic
p670
aVmeasurements
p671
a.