(lp0
VUK
p1
aVUK
p2
aVNorway
p3
aVNorway
p4
aVNorway
p5
aVNorway
p6
aVCanada
p7
aVThe Netherlands
p8
aVUK
p9
aVCanada
p10
aVIndia
p11
aVBrazil
p12
aVUK
p13
aVBrazil
p14
aVBrazil
p15
aVBrazil
p16
aVUSA
p17
aVIsrael
p18
aVUSA
p19
aVChina
p20
aVUSA
p21
aVCanada
p22
aVCanada
p23
aVUAE
p24
aVChina
p25
aVUSA
p26
aVUSA
p27
aVUSA
p28
aVUSA
p29
aVUSA
p30
aVUSA
p31
aVChina
p32
aVChina
p33
aVChina
p34
aVChina
p35
aVSpain
p36
aVEgypt
p37
aVSpain
p38
aVSpain
p39
aVSpain
p40
aVUSA
p41
aVBrazil
p42
aVBrazil
p43
aVCanada
p44
aVCanada
p45
aVUSA
p46
aVUSA
p47
aVUSA
p48
aVUSA
p49
aVChina
p50
aVChina
p51
aVBrazil
p52
aVBrazil
p53
aVBrazil
p54
aVUSA
p55
aVUSA
p56
aVMexico
p57
aVChina
p58
aVSwitzerland
p59
aVSwitzerland
p60
aVGermany
p61
aVSwitzerland
p62
aVUSA
p63
aVCanada
p64
aVCanada
p65
aVUSA
p66
aVAustralia
p67
aVChina
p68
aVChina
p69
aVChina
p70
aVUSA
p71
aVSwitzerland
p72
aVAustralia
p73
aVSingapore
p74
aVAustralia
p75
aVChina
p76
aVChina
p77
aVChina
p78
aVUSA
p79
aVCanada
p80
aVCanada
p81
aVUSA
p82
aVUSA
p83
aVUSA
p84
aVUSA
p85
aVUSA
p86
aVUSA
p87
aVChina
p88
aVChina
p89
aVUSA
p90
aVChina
p91
aVChina
p92
aVChina
p93
aVUSA
p94
aVUSA
p95
aVChina
p96
aVSaudi Arabia
p97
aVSaudi Arabia
p98
aVSaudi Arabia
p99
aVFrance
p100
aVUSA
p101
aVUSA
p102
aVChina
p103
aVUSA
p104
aVUSA
p105
aVUSA
p106
aVBrazil
p107
aVFrance
p108
aVBrazil
p109
aVBrazil
p110
aVChina
p111
aVChina
p112
aVChina
p113
aVChina
p114
aVSwitzerland
p115
aVThe Netherlands
p116
aVChina
p117
aVChina
p118
aVUSA
p119
aVSaudi Arabia
p120
aVItaly
p121
aVItaly
p122
aVItaly
p123
aVItaly
p124
aVIndia
p125
aVNorway
p126
aVNorway
p127
aVNorway
p128
aVGermany
p129
aVChina
p130
aVUSA
p131
a.