(lp0
Vissue
p1
aVgeophysics
p2
aVlocating
p3
aVmicroseismic
p4
aVsources
p5
aVsingle
p6
aVseismometer
p7
aVchannel
p8
aVusing
p9
aVcoda
p10
aVwave
p11
aVinterferometry
p12
aVfiring
p13
aVair
p14
aVgun
p15
aVshallow
p16
aVpassive
p17
aVseismic
p18
aVreflection
p19
aVinterferometry
p20
aVcase
p21
aVstudy
p22
aVaquistore
p23
aVco2
p24
aVstorage
p25
aVsite
p26
aVsaskatchewan
p27
aVcanada
p28
aVinitial
p29
aV4d
p30
aVseismic
p31
aVresults
p32
aVco2
p33
aVinjection
p34
aVstart
p35
aVaquistore
p36
aVstorage
p37
aVsite
p38
aVinductive
p39
aVinduced
p40
aVpolarization
p41
aVeffect
p42
aVheliborne
p43
aVtime
p44
aVdomain
p45
aVelectromagnetic
p46
aVdata
p47
aVuranium
p48
aVexploration
p49
aVnorthern
p50
aVcuddapah
p51
aVbasin
p52
aVindia
p53
aVintegrated
p54
aVgeologic
p55
aVgeophysical
p56
aVinterpretation
p57
aVburaco
p58
aVda
p59
aVvelha
p60
aVcopper
p61
aVdeposit
p62
aVrond
p63
aVnia
p64
aVbrazil
p65
aVbasis
p66
aVexploring
p67
aVrelated
p68
aVenvironments
p69
aVfourth
p70
aVorder
p71
aVnormal
p72
aVmoveout
p73
aVvelocity
p74
aVelastic
p75
aVlayered
p76
aVorthorhombic
p77
aVmedia
p78
aV1
p79
aVslowness
p80
aVazimuth
p81
aVdomain
p82
aVfourth
p83
aVorder
p84
aVnormal
p85
aVmoveout
p86
aVvelocity
p87
aVelastic
p88
aVlayered
p89
aVorthorhombic
p90
aVmedia
p91
aV2
p92
aVoffset
p93
aVazimuth
p94
aVdomain
p95
aVjoint
p96
aVinversion
p97
aVeffective
p98
aVanisotropic
p99
aVvelocity
p100
aVmodel
p101
aVevent
p102
aVlocations
p103
aVusing
p104
aVwave
p105
aVsplitting
p106
aVmeasurements
p107
aVdownhole
p108
aVmicroseismic
p109
aVdata
p110
aVwavefield
p111
aVsimulation
p112
aV3d
p113
aVborehole
p114
aVdipole
p115
aVradiation
p116
aVhydraulic
p117
aVfracture
p118
aVdiagnostics
p119
aVkrauklis
p120
aVwave
p121
aVresonance
p122
aVtube
p123
aVwave
p124
aVreflections
p125
aVeffective
p126
aVmethods
p127
aVcalculating
p128
aVwater
p129
aVsaturations
p130
aVshale
p131
aVgas
p132
aVreservoirs
p133
aVfast
p134
aVinversion
p135
aVlogging
p136
aVdrilling
p137
aVresistivity
p138
aVmeasurements
p139
aVacquired
p140
aVmultiple
p141
aVwells
p142
aVmagnetometric
p143
aVresistivity
p144
aVmethod
p145
aVstratified
p146
aVmedium
p147
aVresistivities
p148
aVvarying
p149
aVexponentially
p150
aVdepth
p151
aVconstrained
p152
aVelectrical
p153
aVresistivity
p154
aVtomography
p155
aVbayesian
p156
aVinversion
p157
aVusing
p158
aVinverse
p159
aVmat
p160
aVrn
p161
aVcovariance
p162
aVmatrix
p163
aVoptimizing
p164
aVelectromagnetic
p165
aVsensors
p166
aVunexploded
p167
aVordnance
p168
aVdetection
p169
aVeffective
p170
aVmedium
p171
aVmodel
p172
aVp
p173
aVwave
p174
aVvelocities
p175
aVsaturated
p176
aVunconsolidated
p177
aVsaline
p178
aVpermafrost
p179
aVhorizontal
p180
aVresolution
p181
aVmultichannel
p182
aVanalysis
p183
aVsurface
p184
aVwaves
p185
aVmonogenic
p186
aVsignal
p187
aVpotential
p188
aVfield
p189
aVdata
p190
aVpython
p191
aVimplementation
p192
aVperturbational
p193
aVnonperturbational
p194
aVinversion
p195
aVrayleigh
p196
aVwave
p197
aVvelocities
p198
aVnonlinear
p199
aVinversion
p200
aVisostatic
p201
aVresidual
p202
aVgravity
p203
aVdata
p204
aVmontage
p205
aVbasin
p206
aVnorthern
p207
aVgulf
p208
aVcalifornia
p209
aVtraveltime
p210
aVtomography
p211
aVcrosshole
p212
aVground
p213
aVpenetrating
p214
aVradar
p215
aVbased
p216
aVarctangent
p217
aVfunctional
p218
aVcompactness
p219
aVconstraints
p220
aVground
p221
aVpenetrating
p222
aVradar
p223
aVantenna
p224
aVorientation
p225
aVeffects
p226
aVtemperate
p227
aVmountain
p228
aVglaciers
p229
aVbuilding
p230
aV3d
p231
aVsubsurface
p232
aVmodels
p233
aVconforming
p234
aVseismic
p235
aVstructural
p236
aVstratigraphic
p237
aVfeatures
p238
aVpractical
p239
aVconsiderations
p240
aVuse
p241
aVedge
p242
aVdetectors
p243
aVgeologic
p244
aVmapping
p245
aVusing
p246
aVmagnetic
p247
aVdata
p248
aVpotential
p249
aVfield
p250
aVcontinuation
p251
aVarbitrary
p252
aVsurfaces
p253
aVcomparing
p254
aVmethods
p255
aVsimultaneous
p256
aVinversion
p257
aVmultiple
p258
aVmicroseismic
p259
aVdata
p260
aVevent
p261
aVlocations
p262
aVvelocity
p263
aVmodel
p264
aVbayesian
p265
aVinference
p266
aVmodel
p267
aVbased
p268
aVpore
p269
aVpressure
p270
aVprediction
p271
aVshales
p272
aVexample
p273
aVgulf
p274
aVmexico
p275
aVnorth
p276
aVamerica
p277
aVbroadband
p278
aVseismic
p279
aVamplitude
p280
aVvariation
p281
aVoffset
p282
aVinversion
p283
aVrock
p284
aVphysics
p285
aVtransforms
p286
aVscale
p287
aVinvestigation
p288
aVfrequency
p289
aVdependent
p290
aVattenuation
p291
aVwater
p292
aVsaturated
p293
aVcracked
p294
aVglass
p295
aVbased
p296
aVcreep
p297
aVtests
p298
aVsonic
p299
aVqp
p300
aVqs
p301
aVratio
p302
aVdiagnostic
p303
aVtool
p304
aVshale
p305
aVgas
p306
aVsaturation
p307
aVseismic
p308
aVfacies
p309
aVanalysis
p310
aVbased
p311
aVspeech
p312
aVrecognition
p313
aVfeature
p314
aVparameters
p315
aVstrategy
p316
aVcomputing
p317
aVseismic
p318
aVattributes
p319
aVdepth
p320
aVmigrated
p321
aVdata
p322
aVusing
p323
aVtime
p324
aVshift
p325
aVgathers
p326
aVlow
p327
aVcost
p328
aVtime
p329
aVlapse
p330
aVseismic
p331
aVdistributed
p332
aVcompressive
p333
aVsensing
p334
ag79
aVexploiting
p335
aVcommon
p336
aVinformation
p337
aVvintages
p338
aVlow
p339
aVcost
p340
aVtime
p341
aVlapse
p342
aVseismic
p343
aVdistributed
p344
aVcompressive
p345
aVsensing
p346
ag92
aVimpact
p347
aVrepeatability
p348
aVsource
p349
aVreceiver
p350
aVmarchenko
p351
aVredatuming
p352
aVobtaining
p353
aVvirtual
p354
aVreceivers
p355
aVvirtual
p356
aVsources
p357
aVsubsurface
p358
aVtransdimensional
p359
aVseismic
p360
aVinversion
p361
aVusing
p362
aVreversible
p363
aVjump
p364
aVhamiltonian
p365
aVmonte
p366
aVcarlo
p367
aValgorithm
p368
aVanisotropic
p369
aVwaveform
p370
aVinversion
p371
aVtilt
p372
aVangle
p373
aVrecovery
p374
aVwaveform
p375
aVinversion
p376
aVsource
p377
aVreceiver
p378
aVextension
p379
aVamplitude
p380
aVversus
p381
aVangle
p382
aVinversion
p383
aVbased
p384
aVl1
p385
aVnorm
p386
aVbased
p387
aVlikelihood
p388
aVfunction
p389
aVtotal
p390
aVvariation
p391
aVregularization
p392
aVconstraint
p393
aVadaptive
p394
aVmultiscale
p395
aValgorithm
p396
aVefficient
p397
aVextended
p398
aVwaveform
p399
aVinversion
p400
aVsparse
p401
aVreflectivity
p402
aVinversion
p403
aVnonstationary
p404
aVseismic
p405
aVdata
p406
aVsurface
p407
aVrelated
p408
aVmultiples
p409
aVnumerical
p410
aVfield
p411
aVdata
p412
aVexperiments
p413
aVpreserving
p414
aVdiscontinuities
p415
aVsquares
p416
aVreverse
p417
aVtime
p418
aVmigration
p419
aVsimultaneous
p420
aVsource
p421
aVdata
p422
aVimaging
p423
aVnear
p424
aVsurface
p425
aVheterogeneities
p426
aVnatural
p427
aVmigration
p428
aVbackscattered
p429
aVsurface
p430
aVwaves
p431
aVfield
p432
aVdata
p433
aVtest
p434
aVmigration
p435
aVinversion
p436
aVvelocity
p437
aVanalysis
p438
aVanisotropic
p439
aVelastic
p440
aVwavefield
p441
aVimaging
p442
aVusing
p443
aVenergy
p444
aVnorm
p445
aVprestack
p446
aVtime
p447
aVmigration
p448
aVnonplanar
p449
aVdata
p450
aVimproving
p451
aVtopography
p452
aVprestack
p453
aVtime
p454
aVmigration
p455
aVdip
p456
aVangle
p457
aVdomain
p458
aVstationary
p459
aVphase
p460
aVfiltering
p461
aVeffective
p462
aVvelocity
p463
aVinversion
p464
aVisotropic
p465
aVanisotropic
p466
aVvelocity
p467
aVmodel
p468
aVbuilding
p469
aVsubsalt
p470
aVseismic
p471
aVimaging
p472
aVoptimization
p473
aVparameters
p474
aVcomplex
p475
aVpad
p476
aVfourier
p477
aVfinite
p478
aVdifference
p479
aVmigration
p480
aVelastic
p481
aVsquares
p482
aVreverse
p483
aVtime
p484
aVmigration
p485
aVhybrid
p486
aVl1
p487
aVl2
p488
aVmisfit
p489
aVfunction
p490
aVimmersive
p491
aVboundary
p492
aVconditions
p493
aVtheory
p494
aVimplementation
p495
aVexamples
p496
aVsimple
p497
aVfinite
p498
aVdifference
p499
aVscheme
p500
aVhandling
p501
aVtopography
p502
aVsecond
p503
aVorder
p504
aVwave
p505
aVequation
p506
aVgeneral
p507
aVoptimal
p508
aVmethod
p509
aV2d
p510
aVfrequency
p511
aVdomain
p512
aVfinite
p513
aVdifference
p514
aVsolution
p515
aVscalar
p516
aVwave
p517
aVequation
p518
aVsand
p519
aVcurve
p520
aVfacelift
p521
aVempirical
p522
aVpolynomial
p523
aVmodel
p524
aVeffect
p525
aVtomogram
p526
aVtime
p527
aVaverage
p528
aVvelocity
p529
aVestimation
p530
aVsurface
p531
aVwave
p532
aVanalysis
p533
ag79
aVwave
p534
aVvelocity
p535
aVtime
p536
aVaverage
p537
aVvelocity
p538
aVestimation
p539
aVsurface
p540
aVwave
p541
aVanalysis
p542
ag92
aVp
p543
aVwave
p544
aVvelocity
p545
aVresolving
p546
aVphase
p547
aVwrapping
p548
aVusing
p549
aVsliding
p550
aVtransform
p551
aVgeneration
p552
aVdispersion
p553
aVcurves
p554
aVmethod
p555
aVcombining
p556
aVcoherence
p557
aVconstrained
p558
aVsparse
p559
aVcoding
p560
aVdictionary
p561
aVlearning
p562
aVdenoising
p563
aVspatially
p564
aVcontinuous
p565
aVprobabilistic
p566
aVprediction
p567
aVsparsely
p568
aVmeasured
p569
aVground
p570
aVproperties
p571
aVconstrained
p572
aVill
p573
aVposed
p574
aVtomographic
p575
aVimaging
p576
aVconsidering
p577
aVdata
p578
aVuncertainty
p579
aVresolution
p580
aVmachine
p581
aVlearning
p582
aVseismic
p583
aVdata
p584
aVprocessing
p585
aVinterpolation
p586
aVapplication
p587
aVattenuation
p588
aVnoise
p589
aVsimultaneous
p590
aVsource
p591
aVinterference
p592
aVusing
p593
aVwavelet
p594
aVdenoising
p595
a.