(lp0
VNorway
p1
aVCanada
p2
aVU. K.
p3
aVCanada
p4
aVU. K.
p5
aVCanada
p6
aVBelgium
p7
aVBelgium
p8
aVBelgium
p9
aVBelgium
p10
aVAustralia
p11
aVChina
p12
aVChina
p13
aVChina
p14
aVChina
p15
aVUSA
p16
aVAustralia
p17
aVBrazil
p18
aVNorway
p19
aVNorway
p20
aVNorway
p21
aVUSA
p22
aVUSA
p23
aVUSA
p24
aVUSA
p25
aVUSA
p26
aVNorway
p27
aVNorway
p28
aVNorway
p29
aVNorway
p30
aVNorway
p31
aVGermany
p32
aVUSA
p33
aVSpain
p34
aVUSA
p35
aVFrance
p36
aVUSA
p37
aVFrance
p38
aVTurkey
p39
aVTurkey
p40
aVTurkey
p41
aVU. K.
p42
aVAustralia
p43
aVAustralia
p44
aVAustralia
p45
aVUSA
p46
aVU. K.
p47
aVItaly
p48
aVCanada
p49
aVGermany
p50
aVGermany
p51
aVBelgium
p52
aVSaudi Arabia
p53
aVItaly
p54
aVCanada
p55
aVSpain
p56
aVUSA
p57
aVNorway
p58
aVNorway
p59
aVUSA
p60
aVCanada
p61
aVU. K
p62
aVU. K
p63
aVU. K
p64
aVUSA
p65
aVGermany
p66
aVCanada
p67
aVCanada
p68
aVU. K
p69
aVCanada
p70
aVSwitzerland
p71
aVUSA
p72
aVUSA
p73
aVUSA
p74
aVU. K.
p75
aVU. K
p76
aVUSA
p77
aVUSA
p78
aVUSA
p79
aVUSA
p80
aVChina
p81
aVUSA
p82
aVUSA
p83
aVUSA
p84
aVUSA
p85
aVUSA
p86
aVUSA
p87
aVUSA
p88
aVChina
p89
aVChina
p90
aVChina
p91
aVChina
p92
aVUSA
p93
aVCanada
p94
aVSpain
p95
aVUSA
p96
a.