(lp0
Vinstructions
p1
aVauthors
p2
aVissue
p3
aVgeophysics
p4
aVsimple
p5
aVexpression
p6
aVbubble
p7
aVtime
p8
aVperiod
p9
aVclustered
p10
aVair
p11
aVguns
p12
aVdenoising
p13
aVseismic
p14
aVdata
p15
aVusing
p16
aVnonlocal
p17
aVmeans
p18
aValgorithm
p19
aVrobust
p20
aVprestack
p21
aVq
p22
aVdetermination
p23
aVusing
p24
aVsurface
p25
aVseismic
p26
aVdata
p27
aV2
p28
aV3d
p29
aVcase
p30
aVstudy
p31
aVshallow
p32
aVgeothermal
p33
aVexperiment
p34
aVsandy
p35
aVaquifer
p36
aVmonitored
p37
aVusing
p38
aVelectric
p39
aVresistivity
p40
aVtomography
p41
aVelliptical
p42
aVdip
p43
aVmoveout
p44
aV3d
p45
aVseismic
p46
aVimaging
p47
aVpresence
p48
aVazimuthal
p49
aVanisotropy
p50
aVanisotropic
p51
aVfinite
p52
aVdifference
p53
aValgorithm
p54
aVmodeling
p55
aVelastic
p56
aVwave
p57
aVpropagation
p58
aVfractured
p59
aVcoalbeds
p60
aVtank
p61
aVexperiments
p62
aVborehole
p63
aVself
p64
aVpotential
p65
aVdata
p66
aVvertical
p67
aVhorizontal
p68
aVcomponents
p69
aVelectric
p70
aVbackground
p71
aVfield
p72
aVsea
p73
aVpetro
p74
aVelectric
p75
aVmodeling
p76
aVcsem
p77
aVreservoir
p78
aVcharacterization
p79
aVmonitoring
p80
aVmodel
p81
aVbased
p82
aVfluid
p83
aVfactor
p84
aVcontrolled
p85
aVsource
p86
aVelectromagnetic
p87
aVdata
p88
aVbayesian
p89
aVinversion
p90
aVcsem
p91
aVmagnetotelluric
p92
aVdata
p93
aVmapping
p94
aVmagnetic
p95
aVsusceptibility
p96
aVelectric
p97
aVconductivity
p98
aVmarine
p99
aVsurficial
p100
aVsediments
p101
aVbenthic
p102
aVem
p103
aVprofiling
p104
aVseismically
p105
aVregularized
p106
aVcontrolled
p107
aVsource
p108
aVelectromagnetic
p109
aVinversion
p110
aVdimensional
p111
aVinversion
p112
aVdirect
p113
aVcurrent
p114
aVresistivity
p115
aVdata
p116
aVincorporating
p117
aVtopography
p118
aVusing
p119
aVfinite
p120
aVdifference
p121
aVtechniques
p122
aVtriangle
p123
aVcells
p124
aVinvestigation
p125
aVkera
p126
aVfault
p127
aVzone
p128
aVwestern
p129
aVcrete
p130
aVstreaming
p131
aVpotentials
p132
aVhydrocarbon
p133
aVreservoir
p134
aVconditions
p135
aVvertical
p136
aVhorizontal
p137
aVresistive
p138
aVlimit
p139
aVformulas
p140
aVrectangular
p141
aVloop
p142
aVsource
p143
aVconductive
p144
aVhalf
p145
aVspace
p146
aVnonexponential
p147
aVdecay
p148
aVsurface
p149
aVnmr
p150
aVsignal
p151
aVimplications
p152
aVwater
p153
aVcontent
p154
aVestimation
p155
aVimaging
p156
aVgeologic
p157
aVsurfaces
p158
aVinverting
p159
aVgravity
p160
aVgradient
p161
aVdata
p162
aVdepth
p163
aVhorizons
p164
aVunderstanding
p165
aVimaging
p166
aVmethods
p167
aVpotential
p168
aVfield
p169
aVdata
p170
aVaccounting
p171
aVsoil
p172
aVsurface
p173
aVroughness
p174
aVinversion
p175
aVultrawideband
p176
aVground
p177
aVgpr
p178
aVsignal
p179
aVsoil
p180
aVmoisture
p181
aVretrieval
p182
aVfocused
p183
aVinversion
p184
aVvertical
p185
aVradar
p186
aVprofile
p187
aVvrp
p188
aVtraveltime
p189
aVdata
p190
aVjoint
p191
aVinversion
p192
aVseismic
p193
aVtraveltimes
p194
aVgravity
p195
aVdata
p196
aVunstructured
p197
aVgrids
p198
aVapplication
p199
aVmineral
p200
aVexploration
p201
aVreservoir
p202
aVcharacterization
p203
aVinversion
p204
aVuncertainty
p205
aVfamily
p206
aVparticle
p207
aVswarm
p208
aVoptimizers
p209
aVflow
p210
aVnoise
p211
aVreduction
p212
aVsuperhydrophobic
p213
aVsurfaces
p214
aVinterferometric
p215
aVapplication
p216
aVstatic
p217
aVcorrections
p218
aVsuppressing
p219
aVnonphysical
p220
aVreflections
p221
aVgreen
p222
aVfunction
p223
aVestimates
p224
aVusing
p225
aVsource
p226
aVreceiver
p227
aVinterferometry
p228
aVsensitivity
p229
aVestimated
p230
aVelastic
p231
aVmoduli
p232
aVcompleteness
p233
aVwave
p234
aVtype
p235
aVmeasurement
p236
aVtype
p237
aVillumination
p238
aVapertures
p239
aVreceiver
p240
aVmulticomponent
p241
aVvsp
p242
aVdata
p243
aVcrosshole
p244
aVtraveltime
p245
aVtomography
p246
aVusing
p247
aVparticle
p248
aVswarm
p249
aVoptimization
p250
aVnear
p251
aVsurface
p252
aVfield
p253
aVexample
p254
aVwaveform
p255
aVtomography
p256
aVfield
p257
aVvibroseis
p258
aVdata
p259
aVusing
p260
aVapproximate
p261
aV2d
p262
aVgeometry
p263
aVleads
p264
aVimproved
p265
aVvelocity
p266
aVmodels
p267
aVrobust
p268
aVprestack
p269
aVq
p270
aVdetermination
p271
aVusing
p272
aVsurface
p273
aVseismic
p274
aVdata
p275
aV1
p276
aVmethod
p277
aVsynthetic
p278
aVexamples
p279
aVreceiver
p280
aVcoupling
p281
aVeffects
p282
aVseismic
p283
aVwaveform
p284
aVinversions
p285
aVjoint
p286
aVinversion
p287
aVmarine
p288
aVseismic
p289
aVava
p290
aVcsem
p291
aVdata
p292
aVusing
p293
aVstatistical
p294
aVrock
p295
aVphysics
p296
aVmodels
p297
aVmarkov
p298
aVrandom
p299
aVfields
p300
aVimaging
p301
aVcondition
p302
aVnonlinear
p303
aVscattering
p304
aVbased
p305
aVimaging
p306
aVestimate
p307
aVpower
p308
aVloss
p309
aVscattering
p310
aVadvances
p311
aVsea
p312
aVice
p313
aVseismic
p314
aVreflection
p315
aVmethods
p316
aVusing
p317
aVair
p318
aVgun
p319
aVmcmurdo
p320
aVsound
p321
aVantarctica
p322
aVimproved
p323
aVvacuum
p324
aVformulation
p325
aV2d
p326
aVfinite
p327
aVdifference
p328
aVmodeling
p329
aVrayleigh
p330
aVwaves
p331
aVincluding
p332
aVsurface
p333
aVtopography
p334
aVinternal
p335
aVdiscontinuities
p336
aVnew
p337
aVwave
p338
aVphase
p339
aVshift
p340
aVapproach
p341
aVsolve
p342
aVhelmholtz
p343
aVacoustic
p344
aVwave
p345
aVequation
p346
aVmodeling
p347
aVmulticomponent
p348
aVjoint
p349
aVmigration
p350
aVvelocity
p351
aVanalysis
p352
aVangle
p353
aVdomain
p354
aVpp
p355
aVwaves
p356
aVps
p357
aVwaves
p358
aVhyperbolic
p359
aVestimation
p360
aVsparse
p361
aVmodels
p362
aVerratic
p363
aVdata
p364
aVdispersion
p365
aVdissipative
p366
aVcharacteristics
p367
aVsurface
p368
aVwaves
p369
aVgeneralized
p370
aVtransform
p371
aVdomain
p372
aVtopography
p373
aVcost
p374
aVfunctional
p375
aVlinear
p376
aVnonlinear
p377
aVinverse
p378
aVproblems
p379
a.