(lp0
VUSA
p1
aVUSA
p2
aVUK
p3
aVUSA
p4
aVSweden
p5
aVSweden
p6
aVChina
p7
aVSweden
p8
aVSweden
p9
aVSweden
p10
aVItaly
p11
aVUnited Arab Emirates
p12
aVNorway
p13
aVAustralia
p14
aVSwitzerland
p15
aVNew Zealand
p16
aVNew Zealand
p17
aVChina
p18
aVUnited Arab Emirates
p19
aVSwitzerland
p20
aVUSA
p21
aVUSA
p22
aVUSA
p23
aVUSA
p24
aVUSA
p25
aVUSA
p26
aVUSA
p27
aVUSA
p28
aVUSA
p29
aVGermany
p30
aVGermany
p31
aVUSA
p32
aVAustralia
p33
aVCanada
p34
aVRepublic of Korea
p35
aVItaly
p36
aVItaly
p37
aVUSA
p38
aVUSA
p39
aVChina
p40
aVCanada
p41
aVCanada
p42
aVCanada
p43
aVCanada
p44
aVCanada
p45
aVPortugal
p46
aVBrazil
p47
aVUSA
p48
aVUSA
p49
aVUSA
p50
aVUSA
p51
aVUSA
p52
aVCanada
p53
aVUSA
p54
aVCanada
p55
aVBrazil
p56
aVNorway
p57
aVSaudi Arabia
p58
aVRice University
p59
aVUSA
p60
aVUSA
p61
aVUSA
p62
aVChina
p63
aVChina
p64
aVChina
p65
aVChina
p66
aVChina
p67
aVAustralia
p68
aVAustralia
p69
aVUSA
p70
aVUSA
p71
aVUSA
p72
aVUSA
p73
aVUSA
p74
aVSaudi Arabia
p75
aVUSA
p76
aVChina
p77
aVChina
p78
aVChina
p79
aVChina
p80
aVUK
p81
aVRussia
p82
aVNorway
p83
aVBrunei Darussalam
p84
aVRussia
p85
aVChina
p86
aVCanada
p87
aVChina
p88
aVChina
p89
aVChina
p90
aVChina
p91
aVChina
p92
aVChina
p93
aVChina
p94
aVCanada
p95
aVCanada
p96
aVNetherlands
p97
aVUSA
p98
aVUSA
p99
aVCzech Republic
p100
aVUSA
p101
aVUSA
p102
aVUSA
p103
aVCanada
p104
aVUSA
p105
aVArgentina
p106
aVArgentina
p107
aVCanada
p108
aVGermany
p109
aVJapan
p110
aVSwitzerland
p111
aVSwitzerland
p112
aVUK
p113
aVUK
p114
aVGermany
p115
aVCanada
p116
aVCanada
p117
aVCanada
p118
aVCanada
p119
aVGermany
p120
aVUK
p121
aVUK
p122
aVUK
p123
aVFrance
p124
aVFrance
p125
aVFrance
p126
aVUSA
p127
aVCanada
p128
aVCanada
p129
aVUSA
p130
aVUSA
p131
aVUSA
p132
aVChina
p133
aVUSA
p134
aVCanada
p135
aVEgypt
p136
aVCanada
p137
aVUSA
p138
aVUK
p139
aVUK
p140
aVUSA
p141
aVUSA
p142
aVUSA
p143
aVCanada
p144
aVGermany
p145
aVChina
p146
aVUSA
p147
aVChina
p148
aVUSA
p149
aVFrance
p150
aVCanada
p151
aVCanada
p152
aVCanada
p153
aVCanada
p154
aVChina
p155
aVUSA
p156
aVChina
p157
aVChina
p158
aVUSA
p159
aVBrazil
p160
aVBrazil
p161
a.