(lp0
Vissue
p1
aVgeophysics
p2
aVmud
p3
aVsand
p4
aVcrossover
p5
aVmarine
p6
aVseismic
p7
aVdata
p8
aVambient
p9
aVseismic
p10
aVnoise
p11
aVtomography
p12
aVekofisk
p13
aVplanning
p14
aVurban
p15
aVunderground
p16
aVinfrastructure
p17
aVusing
p18
aVbroadband
p19
aVseismic
p20
aVlandstreamer
p21
aVtomography
p22
aVresults
p23
aVuncertainty
p24
aVquantifications
p25
aVcase
p26
aVstudy
p27
aVsouthwestern
p28
aVsweden
p29
aVboat
p30
aVtowed
p31
aVradio
p32
aVmagnetotellurics
p33
aVnew
p34
aVtechnique
p35
aVcase
p36
aVstudy
p37
aVcity
p38
aVstockholm
p39
aVhigh
p40
aVresolution
p41
aVseismic
p42
aVimaging
p43
aVcomplex
p44
aVenvironments
p45
aVcomparison
p46
aVcommon
p47
aVreflection
p48
aVsurface
p49
aVstack
p50
aVcommon
p51
aVmidpoint
p52
aVstack
p53
aVprestack
p54
aVdepth
p55
aVmigration
p56
aVilva
p57
aVbagnoli
p58
aVbrownfield
p59
aVsite
p60
aVcampi
p61
aVflegrei
p62
aVitaly
p63
aVazimuthally
p64
aVdependent
p65
aVkinematic
p66
aVproperties
p67
aVorthorhombic
p68
aVmedia
p69
aVwavefield
p70
aVmodeling
p71
aVreverse
p72
aVtime
p73
aVmigration
p74
aVlaser
p75
aVultrasound
p76
aVdata
p77
aVfeasibility
p78
aVstudy
p79
aVhigh
p80
aVresolution
p81
aVadaptive
p82
aVbeamforming
p83
aVborehole
p84
aVacoustic
p85
aVreflection
p86
aVimaging
p87
aV2d
p88
aVmultifractal
p89
aVanalysis
p90
aVporosity
p91
aVscaling
p92
aVestimation
p93
aVlower
p94
aVcretaceous
p95
aVcarbonates
p96
aVlarge
p97
aVscale
p98
aV3d
p99
aVgeoelectromagnetic
p100
aVmodeling
p101
aVusing
p102
aVparallel
p103
aVadaptive
p104
aVhigh
p105
aVorder
p106
aVfinite
p107
aVelement
p108
aVmethod
p109
aVbulk
p110
aVelectric
p111
aVconductivity
p112
aVresponse
p113
aVsoil
p114
aVrock
p115
aVco2
p116
aVconcentration
p117
aVcontrolled
p118
aVco2
p119
aVrelease
p120
aVexperiments
p121
aVobservations
p122
aVanalytic
p123
aVmodeling
p124
aVoptimized
p125
aV3d
p126
aVsynthetic
p127
aVaperture
p128
aVcontrolled
p129
aVsource
p130
aVelectromagnetics
p131
aVnumerical
p132
aVstudy
p133
aVlong
p134
aVelectrode
p135
aVelectric
p136
aVresistivity
p137
aVtomography
p138
aVaccuracy
p139
aVsensitivity
p140
aVresolution
p141
aVimpact
p142
aVresonance
p143
aVeffects
p144
aVwater
p145
aVcontent
p146
aVestimates
p147
aVsurface
p148
aVnuclear
p149
aVmagnetic
p150
aVresonance
p151
aVstripping
p152
aVlow
p153
aVfrequency
p154
aVcommunication
p155
aVsignals
p156
aVminimum
p157
aVshift
p158
aVkeying
p159
aVencoding
p160
aVstreamed
p161
aVtime
p162
aVdomain
p163
aVelectromagnetic
p164
aVdata
p165
aVmonitoring
p166
aVground
p167
aVsurface
p168
aVsubsurface
p169
aVdeformations
p170
aVoil
p171
aVsands
p172
aVusing
p173
aVradar
p174
aVinterferometry
p175
aVjoining
p176
aVland
p177
aVmarine
p178
aVseismic
p179
aVdata
p180
aVcase
p181
aVstudy
p182
aVprocida
p183
aVventotene
p184
aVislands
p185
aVtyrrhenian
p186
aVsea
p187
aVitaly
p188
aVnonperturbational
p189
aVsurface
p190
aVwave
p191
aVinversion
p192
aVdix
p193
aVtype
p194
aVrelation
p195
aVsurface
p196
aVwaves
p197
aViterative
p198
aVmethod
p199
aVaccurate
p200
aVdetermination
p201
aVairborne
p202
aVgravity
p203
aVhorizontal
p204
aVcomponents
p205
aVusing
p206
aVstrapdown
p207
aVinertial
p208
aVnavigation
p209
aVglobal
p210
aVnavigation
p211
aVsatellite
p212
aV3d
p213
aVparametric
p214
aVhybrid
p215
aVinversion
p216
aVtime
p217
aVdomain
p218
aVairborne
p219
aVelectromagnetic
p220
aVdata
p221
aVmicroseismic
p222
aVseismic
p223
aVdenoising
p224
aVensemble
p225
aVempirical
p226
aVmode
p227
aVdecomposition
p228
aVadaptive
p229
aVthresholding
p230
aVmultitrace
p231
aVimpedance
p232
aVinversion
p233
aVlateral
p234
aVconstraints
p235
aVintegration
p236
aVdata
p237
aVgeostatistical
p238
aVseismic
p239
aVamplitude
p240
aVvariation
p241
aVangle
p242
aVinversion
p243
aVfacies
p244
aVestimation
p245
aVdouble
p246
aVdifference
p247
aVwaveform
p248
aVinversion
p249
aVfeasibility
p250
aVrobustness
p251
aVstudy
p252
aVpressure
p253
aVdata
p254
aVtheoretical
p255
aVphysical
p256
aVmodeling
p257
aVanalysis
p258
aVcoupling
p259
aVbaseline
p260
aVelastic
p261
aVproperties
p262
aVtime
p263
aVlapse
p264
aVchanges
p265
aVdetermining
p266
aVdifference
p267
aVamplitude
p268
aVvariation
p269
aVoffset
p270
aVcombined
p271
aVwigner
p272
aVville
p273
aVmaximum
p274
aVentropy
p275
aVmethod
p276
aVhigh
p277
aVresolution
p278
aVtime
p279
aVfrequency
p280
aVanalysis
p281
aVseismic
p282
aVdata
p283
aVnumerical
p284
aVstudy
p285
aV3d
p286
aVelastic
p287
aVtime
p288
aVlapse
p289
aVwaveform
p290
aVinversion
p291
aVusing
p292
aVmulticomponent
p293
aVseismic
p294
aVdata
p295
aVsimultaneous
p296
aVinversion
p297
aVbackground
p298
aVvelocity
p299
aVperturbation
p300
aVwaveform
p301
aVinversion
p302
aVapproximate
p303
aVinverse
p304
aVextended
p305
aVborn
p306
aVmodeling
p307
aVoperator
p308
aVrandom
p309
aVboundary
p310
aVcondition
p311
aVmemory
p312
aVefficient
p313
aVwaveform
p314
aVinversion
p315
aVgradient
p316
aVcomputation
p317
aVnew
p318
aVmethod
p319
aVinterval
p320
aVq
p321
aVfactor
p322
aVinversion
p323
aVseismic
p324
aVreflection
p325
aVdata
p326
aVsource
p327
aVwavefield
p328
aVreconstruction
p329
aVusing
p330
aVlinear
p331
aVcombination
p332
aVboundary
p333
aVwavefield
p334
aVreverse
p335
aVtime
p336
aVmigration
p337
aVprism
p338
aVwaves
p339
aVseafloor
p340
aVcanyons
p341
aVeffects
p342
aVseismic
p343
aVimaging
p344
aVimaging
p345
aVprimaries
p346
aVfree
p347
aVsurface
p348
aVmultiples
p349
aVjoint
p350
aVsquares
p351
aVreverse
p352
aVtime
p353
aVmigration
p354
aVremoving
p355
aVfalse
p356
aVimages
p357
aVreverse
p358
aVtime
p359
aVmigration
p360
aVconcept
p361
aVprimary
p362
aVvector
p363
aVbased
p364
aVelastic
p365
aVreverse
p366
aVtime
p367
aVmigration
p368
aVadaptable
p369
aV17
p370
aVpoint
p371
aVscheme
p372
aVhigh
p373
aVaccuracy
p374
aVfrequency
p375
aVdomain
p376
aVacoustic
p377
aVwave
p378
aVmodeling
p379
aV2d
p380
aVconstant
p381
aVdensity
p382
aVmedia
p383
aVair
p384
aVgun
p385
aVbubble
p386
aVghost
p387
aVinteractions
p388
aVvelocity
p389
aVanalysis
p390
aVvertical
p391
aVseismic
p392
aVprofile
p393
aVdata
p394
aVusing
p395
aVmigration
p396
aVsurface
p397
aVrelated
p398
aVmultiples
p399
aVabsorption
p400
aVdecomposition
p401
aVcompensation
p402
aVstep
p403
aVscheme
p404
aVq
p405
aVfactor
p406
aVestimation
p407
aVbased
p408
aVmethod
p409
aVlogarithmic
p410
aVspectral
p411
aVarea
p412
aVdifference
p413
aVparallel
p414
aVmatrix
p415
aVfactorization
p416
aValgorithm
p417
aVapplication
p418
aV5d
p419
aVseismic
p420
aVreconstruction
p421
aVdenoising
p422
aVclosed
p423
aVloop
p424
aVsurface
p425
aVrelated
p426
aVmultiple
p427
aVelimination
p428
aVapplication
p429
aVsimultaneous
p430
aVdata
p431
aVreconstruction
p432
aVmicroseismic
p433
aVmonitoring
p434
aVintroduction
p435
aVrelative
p436
aVlocation
p437
aVmicroseismicity
p438
aVtilted
p439
aVti
p440
aVmodels
p441
aVsurface
p442
aVmicroseismic
p443
aVmonitoring
p444
aVfast
p445
aVautomatic
p446
aVmicroseismic
p447
aVphase
p448
aVarrival
p449
aVdetection
p450
aVdenoising
p451
aVpattern
p452
aVrecognition
p453
aVreduced
p454
aVrank
p455
aVfiltering
p456
aVmicroseismic
p457
aVreflection
p458
aVimaging
p459
aVapplication
p460
aVbasel
p461
aVgeothermal
p462
aVreservoir
p463
aVcase
p464
aVstudy
p465
aVrevealing
p466
aVexpressions
p467
aVperforation
p468
aVshots
p469
aVshale
p470
aVgas
p471
aVstimulation
p472
aVoperation
p473
aVextended
p474
aVwave
p475
aVequation
p476
aVimaging
p477
aVconditions
p478
aVpassive
p479
aVseismic
p480
aVdata
p481
aVquantitative
p482
aVanalysis
p483
aVrock
p484
aVstress
p485
aVheterogeneity
p486
aVimplications
p487
aVseismogenesis
p488
aVfluid
p489
aVinjection
p490
aVinduced
p491
aVseismicity
p492
aVinterferometric
p493
aVassessment
p494
aVclamping
p495
aVquality
p496
aVborehole
p497
aVgeophones
p498
aVwaveform
p499
aVsimilarity
p500
aVquality
p501
aVcontrol
p502
aVevent
p503
aVlocations
p504
aVtime
p505
aVpicking
p506
aVmoment
p507
aVtensor
p508
aVsolutions
p509
aVmicroseismic
p510
aVrupture
p511
aVpropagation
p512
aVimaging
p513
aVsurface
p514
aVmicroseismic
p515
aVimaging
p516
aVpresence
p517
aVhigh
p518
aVvelocity
p519
aVlithologic
p520
aVlayers
p521
aVmicroseismic
p522
aVevent
p523
aVlocation
p524
aVusing
p525
aVreflected
p526
aVarrivals
p527
aVtaking
p528
aVsignal
p529
aVnoise
p530
aVnew
p531
aVdimensions
p532
aVintroduction
p533
aVrandom
p534
aVnoise
p535
aVattenuation
p536
aVusing
p537
aVlocal
p538
aVsignal
p539
aVnoise
p540
aVorthogonalization
p541
aVnonminimum
p542
aVphase
p543
aVdeconvolution
p544
aVlog
p545
aVdomain
p546
aVsparse
p547
aVinversion
p548
aVapproach
p549
aVfinite
p550
aVdifference
p551
aVtime
p552
aVdispersion
p553
aVtransforms
p554
aVwave
p555
aVpropagation
p556
aVfast
p557
aVsimultaneous
p558
aVseismic
p559
aVsource
p560
aVseparation
p561
aVusing
p562
aVstolt
p563
aVmigration
p564
aVdemigration
p565
aVoperators
p566
aVindependent
p567
aVsimultaneous
p568
aVsource
p569
aVacquisition
p570
aVprocessing
p571
aVseismic
p572
aVdata
p573
aVdenoising
p574
aVmultiscale
p575
aVsparsity
p576
aVpromoting
p577
aVdictionary
p578
aVlearning
p579
aVphase
p580
aVamplitude
p581
aVtracking
p582
aVseismic
p583
aVevent
p584
aVseparation
p585
aVsource
p586
aVseparation
p587
aVsimultaneous
p588
aVtowed
p589
aVstreamer
p590
aVmarine
p591
aVacquisition
p592
aVcompressed
p593
aVsensing
p594
aVapproach
p595
aVasymmetric
p596
aVchirplet
p597
aVtransform
p598
aVsparse
p599
aVrepresentation
p600
aVseismic
p601
aVdata
p602
aVnoise
p603
aVrobust
p604
aVdetection
p605
aVtracking
p606
aVsalt
p607
aVdomes
p608
aVpostmigrated
p609
aVvolumes
p610
aVusing
p611
aVtexture
p612
aVtensors
p613
aVsubspace
p614
aVlearning
p615
aVsignal
p616
aVnoise
p617
aVseparation
p618
aVprestack
p619
aVseismic
p620
aVdata
p621
aVusing
p622
aVvelocity
p623
aVdependent
p624
aVseislet
p625
aVtransform
p626
aVmultidimensional
p627
aVsimultaneous
p628
aVrandom
p629
aVplus
p630
aVerratic
p631
aVnoise
p632
aVattenuation
p633
aVinterpolation
p634
aVseismic
p635
aVdata
p636
aVjoint
p637
aVlow
p638
aVrank
p639
aVsparse
p640
aVinversion
p641
aVdouble
p642
aVweave
p643
aV3d
p644
aVseismic
p645
aVacquisition
p646
aV1
p647
aVsampling
p648
aVsparse
p649
aVfourier
p650
aVreconstruction
p651
aVdouble
p652
aVweave
p653
aV3d
p654
aVseismic
p655
aVacquisition
p656
aV2
p657
aVseismic
p658
aVmodeling
p659
aVsubsurface
p660
aVfold
p661
aVanalyses
p662
aVcompression
p663
aVlocal
p664
aVslant
p665
aVstacks
p666
aVestimation
p667
aVmultiple
p668
aVlocal
p669
aVslopes
p670
aVmatching
p671
aVpursuit
p672
aVdecomposition
p673
aVdifferential
p674
aVevolution
p675
aVbased
p676
aVoptimization
p677
aVprocedure
p678
aVautomatic
p679
aVestimation
p680
aVcommon
p681
aVreflection
p682
aVsurface
p683
aVtraveltime
p684
aVparameters
p685
aVgeophysics
p686
aVdissertation
p687
aVabstracts
p688
a.