(lp0
Vissue
p1
aVgeophysics
p2
aVblended
p3
aVacquisition
p4
aVdispersed
p5
aVsource
p6
aVarrays
p7
aVintegrated
p8
aVdata
p9
aVanalysis
p10
aVmineral
p11
aVexploration
p12
aVcase
p13
aVstudy
p14
aVclustering
p15
aVsatellite
p16
aVimagery
p17
aVairborne
p18
aVgamma
p19
aVray
p20
aVregional
p21
aVgeochemical
p22
aVdata
p23
aVsuites
p24
aVcommon
p25
aVreflection
p26
aVsurface
p27
aVimaging
p28
aVshallow
p29
aVultrashallow
p30
aVreflectors
p31
aVseismic
p32
aVgeomorphology
p33
aVchannel
p34
aVreservoir
p35
aVlower
p36
aVminghuazhen
p37
aVformation
p38
aVlaizhouwan
p39
aVsubbasin
p40
aVchina
p41
aVprecise
p42
aVinversion
p43
aVlogged
p44
aVslownesses
p45
aVelastic
p46
aVparameters
p47
aVgas
p48
aVshale
p49
aVformation
p50
aVnew
p51
aVtraveltime
p52
aVapproximation
p53
aVti
p54
aVmedia
p55
aVintegrating
p56
aVmultiscale
p57
aVparameters
p58
aVinformation
p59
aV3d
p60
aVstochastic
p61
aVmagnetic
p62
aVanomaly
p63
aVinversion
p64
aVnumerical
p65
aVsimulation
p66
aVsector
p67
aVbond
p68
aVlog
p69
aVimproved
p70
aVcement
p71
aVbond
p72
aVimage
p73
aVdetermination
p74
aVdip
p75
aVanisotropy
p76
aVtransient
p77
aVtriaxial
p78
aVinduction
p79
aVmeasurements
p80
aVinversion
p81
aVbased
p82
aVmethod
p83
aVinterpretation
p84
aVlogging
p85
aVdrilling
p86
aVdensity
p87
aVmeasurements
p88
aVacquired
p89
aVhigh
p90
aVangle
p91
aVhorizontal
p92
aVwells
p93
aVeffects
p94
aVfluid
p95
aVchanges
p96
aVseismic
p97
aVreflections
p98
aVpredicting
p99
aVamplitudes
p100
aVgas
p101
aVreservoir
p102
aVdirectly
p103
aVamplitudes
p104
aVwet
p105
aVreservoir
p106
aVtime
p107
aVlapse
p108
aVjoint
p109
aVinversion
p110
aVcrosswell
p111
aVdc
p112
aVresistivity
p113
aVseismic
p114
aVdata
p115
aVnumerical
p116
aVinvestigation
p117
aVdeconvolving
p118
aVgamma
p119
aVray
p120
aVlogs
p121
aVadaptive
p122
aVzone
p123
aVrefinement
p124
aVestimating
p125
aVtraveltimes
p126
aVgroundwater
p127
aVflow
p128
aVpatterns
p129
aVusing
p130
aV3d
p131
aVtime
p132
aVlapse
p133
aVcrosshole
p134
aVert
p135
aVimaging
p136
aVelectrical
p137
aVresistivity
p138
aVfluctuations
p139
aVinduced
p140
aVinfiltrating
p141
aVriver
p142
aVwater
p143
aVdetecting
p144
aVsalt
p145
aVdome
p146
aVoverhang
p147
aVmagnetotellurics
p148
aV3d
p149
aVinversion
p150
aVmethodology
p151
aVsynthetic
p152
aVmodel
p153
aVstudies
p154
aVstochastic
p155
aVinversion
p156
aVmagnetotelluric
p157
aVdata
p158
aVusing
p159
aVsharp
p160
aVboundary
p161
aVparameterization
p162
aVapplication
p163
aVgeothermal
p164
aVsite
p165
aVmarine
p166
aVcsem
p167
aVscarborough
p168
aVgas
p169
aVfield
p170
aV1
p171
aVexperimental
p172
aVdesign
p173
aVdata
p174
aVuncertainty
p175
aVhybrid
p176
aVregularization
p177
aVscheme
p178
aVinversion
p179
aVmagnetotelluric
p180
aVdata
p181
aVnatural
p182
aVcontrolled
p183
aVsources
p184
aVlayer
p185
aVdistortion
p186
aVparameters
p187
aVself
p188
aVpotential
p189
aVsignals
p190
aVanalog
p191
aVbiogeobattery
p192
aVmodel
p193
aVretrieving
p194
aV2d
p195
aVstructures
p196
aVsurface
p197
aVwave
p198
aVdata
p199
aVmeans
p200
aVspace
p201
aVvarying
p202
aVspatial
p203
aVwindowing
p204
aVrobust
p205
aV3d
p206
aVgravity
p207
aVgradient
p208
aVinversion
p209
aVplanting
p210
aVanomalous
p211
aVdensities
p212
aVinverting
p213
aVsurface
p214
aVgpr
p215
aVdata
p216
aVusing
p217
aVfdtd
p218
aVsimulation
p219
aVautomatic
p220
aVdetection
p221
aVreflections
p222
aVestimate
p223
aVsubsurface
p224
aVwater
p225
aVcontent
p226
aVgeometry
p227
aVcrosshole
p228
aVgpr
p229
aVwaveform
p230
aVinversion
p231
aVwaveguides
p232
aVacting
p233
aVpreferential
p234
aVflow
p235
aVpaths
p236
aVaquifer
p237
aVsystems
p238
aVconductivity
p239
aVscattering
p240
aVq
p241
aVgpr
p242
aVdata
p243
aVexample
p244
aVellenburger
p245
aVdolomite
p246
aVcentral
p247
aVtexas
p248
aVsemiautomated
p249
aVgeologic
p250
aVmapping
p251
aVusing
p252
aVself
p253
aVorganizing
p254
aVmaps
p255
aVairborne
p256
aVgeophysics
p257
aVbrazilian
p258
aVamazon
p259
aVextracting
p260
aVsubsurface
p261
aVinformation
p262
aVambient
p263
aVseismic
p264
aVnoise
p265
aVcase
p266
aVstudy
p267
aVgermany
p268
aVviabilities
p269
aVseismic
p270
aVray
p271
aVimpedance
p272
aVelastic
p273
aVimpedance
p274
aVhydrocarbon
p275
aVsand
p276
aVdiscrimination
p277
aVstochastic
p278
aVinversion
p279
aVfacies
p280
aVseismic
p281
aVdata
p282
aVbased
p283
aVsequential
p284
aVsimulations
p285
aVprobability
p286
aVperturbation
p287
aVmethod
p288
aVgenerating
p289
aVrelative
p290
aVgeologic
p291
aVtime
p292
aVvolume
p293
aV3d
p294
aVgraph
p295
aVcut
p296
aVphase
p297
aVunwrapping
p298
aVmethod
p299
aVhorizon
p300
aVunconformity
p301
aVconstraints
p302
aVimplications
p303
aVfresnel
p304
aVzone
p305
aVtexture
p306
aVseismic
p307
aVamplitude
p308
aVinterpretation
p309
aVartificial
p310
aVimmune
p311
aVbased
p312
aVself
p313
aVorganizing
p314
aVmaps
p315
aVseismic
p316
aVfacies
p317
aVanalysis
p318
aVinstantaneous
p319
aVphase
p320
aVvariation
p321
aVseismic
p322
aVvelocity
p323
aVmonitoring
p324
aVambient
p325
aVnoise
p326
aVexploration
p327
aVscale
p328
aVefficient
p329
aVlaplace
p330
aVdomain
p331
aVmodeling
p332
aVinversion
p333
aVusing
p334
aVaxis
p335
aVtransformation
p336
aVtechnique
p337
aVelastic
p338
aVinversion
p339
aVnear
p340
aVpostcritical
p341
aVreflections
p342
aVusing
p343
aVphase
p344
aVvariation
p345
aVangle
p346
aV3d
p347
aV9c
p348
aVseismic
p349
aVmodeling
p350
aVinversion
p351
aVweyburn
p352
aVfield
p353
aVdata
p354
aVestimation
p355
aVfree
p356
aVgas
p357
aVsaturation
p358
aVseismic
p359
aVreflection
p360
aVsurveys
p361
aVgenetic
p362
aValgorithm
p363
aVinversion
p364
aVp
p365
aVwave
p366
aVattenuation
p367
aVmodel
p368
aVimage
p369
aVguided
p370
aVsparse
p371
aVmodel
p372
aVwaveform
p373
aVinversion
p374
aVtime
p375
aVreversal
p376
aVcheckpointing
p377
aVmethods
p378
aVrtm
p379
aVfwi
p380
aVimplicit
p381
aVfinite
p382
aVdifference
p383
aVoperator
p384
aVhelmholtz
p385
aVequation
p386
aVnumerically
p387
aVsolving
p388
aVcomplex
p389
aVeikonal
p390
aVequation
p391
aVusing
p392
aVreal
p393
aVray
p394
aVtracing
p395
aVmethods
p396
aVcomparison
p397
aVexact
p398
aVanalytical
p399
aVsolution
p400
aVefficient
p401
aV3d
p402
aVfrequency
p403
aVresponse
p404
aVmodeling
p405
aVspectral
p406
aVaccuracy
p407
aVrapid
p408
aVexpansion
p409
aVmethod
p410
aVglobally
p411
aVoptimized
p412
aVfinite
p413
aVdifference
p414
aVextrapolator
p415
aVstrongly
p416
aVvti
p417
aVmedia
p418
aV3d
p419
aVfinite
p420
aVdifference
p421
aVmodeling
p422
aVelastic
p423
aVwave
p424
aVpropagation
p425
aVlaplace
p426
aVfourier
p427
aVdomain
p428
aVinterval
p429
aVvelocity
p430
aVanalysis
p431
aVusing
p432
aVmultiparameter
p433
aVcommon
p434
aVimage
p435
aVgathers
p436
aVsimultaneous
p437
aVsources
p438
aVseparation
p439
aVmultidirectional
p440
aVvector
p441
aVmedian
p442
aVfiltering
p443
aVbandwidth
p444
aVenhancement
p445
aVinverse
p446
aVq
p447
aVfiltering
p448
aVtime
p449
aVvarying
p450
aVwiener
p451
aVdeconvolution
p452
aVnormal
p453
aVmodes
p454
aVseismic
p455
aVdata
p456
aVrevisited
p457
aVnear
p458
aVsurface
p459
aVelectromagnetic
p460
aVinduction
p461
aVintroduction
p462
aVairborne
p463
aVelectromagnetic
p464
aVbathymetry
p465
aVestimation
p466
aVbedrock
p467
aVtopography
p468
aVbroken
p469
aVbay
p470
aVaustralia
p471
aV1d
p472
aVsingle
p473
aVsite
p474
aVlaterally
p475
aVconstrained
p476
aVinversion
p477
aVmultifrequency
p478
aVmulticomponent
p479
aVground
p480
aVbased
p481
aVelectromagnetic
p482
aVinduction
p483
aVdata
p484
aVapplication
p485
aVinvestigation
p486
aVnear
p487
aVsurface
p488
aVclayey
p489
aVoverburden
p490
aVlarge
p491
aVscale
p492
aVinversion
p493
aVztem
p494
aVdata
p495
aVimaging
p496
aV3d
p497
aVelectromagnetic
p498
aVdata
p499
aVlow
p500
aVinduction
p501
aVnumbers
p502
aV3d
p503
aVinversion
p504
aVairborne
p505
aVelectromagnetic
p506
aVdata
p507
aVaccurate
p508
aV1d
p509
aVforward
p510
aVinverse
p511
aVmodeling
p512
aVhigh
p513
aVfrequency
p514
aVhelicopter
p515
aVborne
p516
aVelectromagnetic
p517
aVdata
p518
aVfast
p519
aVapproximate
p520
aV2d
p521
aVinversion
p522
aVairborne
p523
aVtem
p524
aVdata
p525
aVborn
p526
aVapproximation
p527
aVempirical
p528
aVapproach
p529
aVmodeling
p530
aVelectrical
p531
aVconductivity
p532
aVhydrogeological
p533
aVstrata
p534
aVusing
p535
aVjoint
p536
aVinversion
p537
aVloop
p538
aVloop
p539
aVelectromagnetic
p540
aVdata
p541
aVprogressing
p542
aV1d
p543
aV2d
p544
aV3d
p545
aVnear
p546
aVsurface
p547
aVairborne
p548
aVelectromagnetic
p549
aVmapping
p550
aVmultisensor
p551
aVairborne
p552
aVsea
p553
aVice
p554
aVexplorer
p555
aVfeasibility
p556
aVmonitoring
p557
aVhydraulic
p558
aVfracturing
p559
aVusing
p560
aVtime
p561
aVlapse
p562
aVaudio
p563
aVmagnetotellurics
p564
aVestimating
p565
aVsource
p566
aVlocations
p567
aVunexploded
p568
aVordnance
p569
aVusing
p570
aVmultiple
p571
aVsignal
p572
aVclassification
p573
aValgorithm
p574
aVquantitative
p575
aVadvantages
p576
aVusing
p577
aVb
p578
aVfield
p579
aVsensors
p580
aVtime
p581
aVdomain
p582
aVem
p583
aVmeasurement
p584
aVmineral
p585
aVexploration
p586
aVunexploded
p587
aVordnance
p588
aVsearch
p589
aVjoint
p590
aVdiagonalization
p591
aVapplied
p592
aVdetection
p593
aVdiscrimination
p594
aVunexploded
p595
aVordnance
p596
aVelectromagnetic
p597
aVinduction
p598
aVsubsurface
p599
aVmetal
p600
aVtargets
p601
aVcluster
p602
aVanalysis
p603
aVusing
p604
aVlocal
p605
aVpoint
p606
aVpattern
p607
aVspatial
p608
aVstatistics
p609
aVglobal
p610
aVmeasure
p611
aVdepth
p612
aVinvestigation
p613
aVsubsurface
p614
aVtemperature
p615
aVassessment
p616
aVmeans
p617
aVindirect
p618
aVelectromagnetic
p619
aVgeothermometer
p620
aVimprovement
p621
aVmrs
p622
aVparameter
p623
aVestimation
p624
aVjoint
p625
aVlaterally
p626
aVconstrained
p627
aVinversion
p628
aVmrs
p629
aVtem
p630
aVdata
p631
aVdigital
p632
aVsoil
p633
aVmapping
p634
aVcompositional
p635
aVparticle
p636
aVsize
p637
aVfractions
p638
aVusing
p639
aVproximal
p640
aVremotely
p641
aVsensed
p642
aVancillary
p643
aVdata
p644
aVfractional
p645
aVdiffusion
p646
aVanalysis
p647
aVelectromagnetic
p648
aVfield
p649
aVfractured
p650
aVmedia
p651
aV2d
p652
aVapproach
p653
aV3d
p654
aVmodeling
p655
aVinversion
p656
aVvlf
p657
aVvlf
p658
aVr
p659
aVelectromagnetic
p660
aVdata
p661
aV2d
p662
aVjoint
p663
aVinversion
p664
aVrmt
p665
aVert
p666
aVdata
p667
aVversus
p668
aVindividual
p669
aV3d
p670
aVinversion
p671
aVtensor
p672
aVrmt
p673
aVdata
p674
aVexample
p675
aVtrecate
p676
aVsite
p677
aVitaly
p678
aVmapping
p679
aVestimated
p680
aVdeep
p681
aVdrainage
p682
aVlower
p683
aVnamoi
p684
aVvalley
p685
aVusing
p686
aVchloride
p687
aVmass
p688
aVbalance
p689
aVmodel
p690
aVem34
p691
aVdata
p692
aVcontributors
p693
a.