(lp0
VFrance
p1
aVUSA
p2
aVUSA
p3
aVThe Netherlands
p4
aVGermany
p5
aVGermany
p6
aVGermany
p7
aVGermany
p8
aVGermany
p9
aVGermany
p10
aVNorway
p11
aVSweden
p12
aVSweden
p13
aVU. K
p14
aVU. K.
p15
aVU. K
p16
aVU. K.
p17
aVU. K
p18
aVCanada
p19
aVCanada
p20
aVCanada
p21
aVCanada
p22
aVFrance
p23
aVU. K.
p24
aVNorway
p25
aVUSA
p26
aVUSA
p27
aVUSA
p28
aVU.S.A
p29
aVChina
p30
aVChina
p31
aVNorway
p32
aVNorway
p33
aVNorway
p34
aVNorway
p35
aVUSA
p36
aVU. K
p37
aVNorway
p38
aVSwitzerland
p39
aVNetherlands
p40
aVSwitzerland
p41
aVSwitzerland
p42
aVSwitzerland
p43
aVUSA
p44
aVUSA
p45
aVUSA
p46
aVUSA
p47
aVGermany
p48
aVAustralia
p49
aVAustralia
p50
aVGreece
p51
aVGreece
p52
aVUSA
p53
aVUSA
p54
aVUSA
p55
aVU. K
p56
aVChina
p57
aVUSA
p58
aVThe Netherlands
p59
aVU. K.
p60
aVU. K.
p61
aVFrance
p62
aVCanada
p63
aVPoland
p64
aVCanada
p65
aVU. K.
p66
aVUSA
p67
aVChina
p68
aVNorway
p69
aVUSA
p70
aVUSA
p71
aVSaudi Arabia
p72
aVU.S.A.
p73
aVJapan
p74
aVU.S.A
p75
a.