(lp0
Vissue
p1
aVgeophysics
p2
aVmodified
p3
aVdelay
p4
aVtime
p5
aVmethod
p6
aVstatics
p7
aVestimation
p8
aVvirtual
p9
aVrefraction
p10
aVsurface
p11
aVdownhole
p12
aVelectrical
p13
aVresistivity
p14
aVtomography
p15
aVapplied
p16
aVmonitoring
p17
aVco2
p18
aVstorage
p19
aVketzin
p20
aVgermany
p21
aVmultidisciplinary
p22
aVstudy
p23
aVhanging
p24
aVwall
p25
aVkiirunavaara
p26
aViron
p27
aVore
p28
aVdeposit
p29
aVnorthern
p30
aVsweden
p31
aVlong
p32
aVterm
p33
aVtime
p34
aVlapse
p35
aVmicrogravity
p36
aVgeotechnical
p37
aVmonitoring
p38
aVrelict
p39
aVsalt
p40
aVmines
p41
aVmarston
p42
aVcheshire
p43
aVu
p44
aVk
p45
aVfracture
p46
aVmapping
p47
aVusing
p48
aVseismic
p49
aVamplitude
p50
aVvariation
p51
aVoffset
p52
aVazimuth
p53
aVanalysis
p54
aVweyburn
p55
aVco2
p56
aVstorage
p57
aVsite
p58
aVtraveltime
p59
aVparameters
p60
aVtilted
p61
aVtransversely
p62
aVisotropic
p63
aVmedia
p64
aVestimation
p65
aVdynamic
p66
aVpetrophysical
p67
aVproperties
p68
aVwater
p69
aVbearing
p70
aVsands
p71
aVinvaded
p72
aVoil
p73
aVbase
p74
aVmud
p75
aVinterpretation
p76
aVmultiple
p77
aVborehole
p78
aVgeophysical
p79
aVmeasurements
p80
aVpressure
p81
aVdependent
p82
aVseismic
p83
aVvelocities
p84
aVbased
p85
aVeffective
p86
aVcompliance
p87
aVtheory
p88
aVasperity
p89
aVdeformation
p90
aVmodel
p91
aVcracked
p92
aVporous
p93
aVmedium
p94
aVelastic
p95
aVwave
p96
aVtheory
p97
aVapplication
p98
aVinterpreting
p99
aVacoustic
p100
aVdata
p101
aVtight
p102
aVformations
p103
aVnumerical
p104
aVsimulation
p105
aVradiation
p106
aVreflection
p107
aVreception
p108
aVelastic
p109
aVwaves
p110
aVborehole
p111
aVdipole
p112
aVsource
p113
aVcomparison
p114
aVlow
p115
aVfrequency
p116
aVvariations
p117
aVvertical
p118
aVhorizontal
p119
aVcomponents
p120
aVelectric
p121
aVbackground
p122
aVfield
p123
aVsea
p124
aVlithologic
p125
aVimaging
p126
aVusing
p127
aVcomplex
p128
aVconductivity
p129
aVlessons
p130
aVlearned
p131
aVhanford
p132
aV300
p133
aVarea
p134
aVdetection
p135
aVimaging
p136
aVsensitivity
p137
aVmarine
p138
aVcsem
p139
aVmethod
p140
aVseismic
p141
aVmonitoring
p142
aVradioactive
p143
aVwaste
p144
aVrepositories
p145
aVcharacterization
p146
aVcontaminated
p147
aVwellfield
p148
aVusing
p149
aV3d
p150
aVelectrical
p151
aVresistivity
p152
aVtomography
p153
aVimplemented
p154
aVgeostatistical
p155
aVdiscontinuous
p156
aVboundary
p157
aVknown
p158
aVconductivity
p159
aVconstraints
p160
aVquantitative
p161
aVconductivity
p162
aVpermittivity
p163
aVestimation
p164
aVusing
p165
aVwaveform
p166
aVinversion
p167
aVground
p168
aVgpr
p169
aVdata
p170
aVestimating
p171
aVsource
p172
aVlocation
p173
aVusing
p174
aVnormalized
p175
aVmagnetic
p176
aVsource
p177
aVstrength
p178
aVcalculated
p179
aVmagnetic
p180
aVgradient
p181
aVtensor
p182
aVdata
p183
aVstrategy
p184
aVautomated
p185
aVanalysis
p186
aVpassive
p187
aVmicroseismic
p188
aVdata
p189
aVbased
p190
aVtransform
p191
aVotsu
p192
aVthresholding
p193
aVhigher
p194
aVorder
p195
aVstatistics
p196
aVrigorous
p197
aVbounds
p198
aVseismic
p199
aVdispersion
p200
aVattenuation
p201
aVwave
p202
aVinduced
p203
aVfluid
p204
aVflow
p205
aVporous
p206
aVrocks
p207
aVstreamline
p208
aVbased
p209
aVintegration
p210
aVtime
p211
aVlapse
p212
aVseismic
p213
aVproduction
p214
aVdata
p215
aVpetroleum
p216
aVreservoir
p217
aVmodels
p218
aVreservoir
p219
aVcharacterization
p220
aVbased
p221
aVseismic
p222
aVspectral
p223
aVvariations
p224
aVavo
p225
aVinversion
p226
aVporoelasticity
p227
aVp
p228
aVwave
p229
aVmoduli
p230
aVgas
p231
aVhydrate
p232
aVfree
p233
aVgas
p234
aVpetroleum
p235
aV3d
p236
aVseismic
p237
aVdata
p238
aVoffshore
p239
aVangola
p240
aVnongeometrically
p241
aVconverted
p242
aVshear
p243
aVwaves
p244
aVmarine
p245
aVstreamer
p246
aVdata
p247
aV4d
p248
aVseismic
p249
aVtying
p250
aVkey
p251
aVstep
p252
aV4d
p253
aVinversion
p254
aVbayesian
p255
aVinversion
p256
aVvsp
p257
aVtraveltimes
p258
aVlinear
p259
aVinhomogeneity
p260
aVelliptical
p261
aVanisotropy
p262
aVquantitative
p263
aVseismic
p264
aVanalysis
p265
aVlayer
p266
aVco2
p267
aVsleipner
p268
aVinjection
p269
aVplume
p270
aVseparation
p271
aVimaging
p272
aVseismic
p273
aVdiffractions
p274
aVusing
p275
aVmigrated
p276
aVdip
p277
aVangle
p278
aVgathers
p279
aVaverage
p280
aVderivative
p281
aVoptimal
p282
aVscheme
p283
aVfrequency
p284
aVdomain
p285
aVscalar
p286
aVwave
p287
aVequation
p288
aVefficient
p289
aVaccurate
p290
aVmodeling
p291
aVocean
p292
aVseismometer
p293
aVdata
p294
aVusing
p295
aVreciprocity
p296
aVmodeling
p297
aVanalysis
p298
aVcompaction
p299
aVinduced
p300
aVtraveltime
p301
aVshifts
p302
aVmulticomponent
p303
aVseismic
p304
aVdata
p305
aVreflector
p306
aVspectrum
p307
aVrelating
p308
aVseismic
p309
aVarrivals
p310
aVreflectors
p311
aVmigration
p312
aVvelocity
p313
aVanalysis
p314
aVti
p315
aVmedia
p316
aVpresence
p317
aVquadratic
p318
aVlateral
p319
aVvelocity
p320
aVvariation
p321
a.