(lp0
VUSA
p1
aVAustralia
p2
aVUSA
p3
aVUnited Arab Emirates
p4
aVUSA
p5
aVUSA
p6
aVUSA
p7
aVUSA
p8
aVSaudi Arabia
p9
aVChina
p10
aVChina
p11
aVChina
p12
aVUSA
p13
aVPoland
p14
aVUSA
p15
aVSpain
p16
aVSpain
p17
aVSpain
p18
aVSpain
p19
aVUSA
p20
aVUSA
p21
aVNigeria
p22
aVUSA
p23
aVChina
p24
aVChina
p25
aVChina
p26
aVUSA
p27
aVUSA
p28
aVUSA
p29
aVUSA
p30
aVUSA
p31
aVFrance
p32
aVAustralia
p33
aVAustralia
p34
aVAustralia
p35
aVAustralia
p36
aVAustralia
p37
aVAustralia
p38
aVSwitzerland
p39
aVDenmark
p40
aVUSA
p41
aVItaly
p42
aVNorway
p43
aVRussia
p44
aVChina
p45
aVSweden
p46
aVGermany
p47
aVScotland
p48
aVCanada
p49
aVGreece
p50
aVUK
p51
aVItaly
p52
aVFrance
p53
aVDenmark
p54
aVUSA
p55
aVFrance
p56
aVUSA
p57
aVFrance
p58
aVUSA
p59
aVUSA
p60
aVGermany
p61
aVGermany
p62
aVGermany
p63
aVGermany
p64
aVGermany
p65
aVGermany
p66
aVGermany
p67
aVAustralia
p68
aVAustralia
p69
aVNorway
p70
aVChina
p71
aVChina
p72
aVChina
p73
aVChina
p74
aVMexico
p75
aVUSA
p76
aVUSA
p77
aVCanada
p78
aVUSA
p79
aVNorway
p80
aVUSA
p81
aVUSA
p82
aVUSA
p83
aVUSA
p84
aVUSA
p85
aVIndia
p86
aVUSA
p87
aVUSA
p88
aVRepublic of Korea
p89
aVFrance
p90
aVRepublic of Korea
p91
aVSaudi Arabia
p92
aVUSA
p93
aVUSA
p94
aVSaudi Arabia
p95
aVNorway
p96
aVUSA
p97
aVUSA
p98
aVFrance
p99
aVUSA
p100
aVUSA
p101
aVNorway
p102
aVNorway
p103
aVKSA
p104
aVUtah
p105
aVKSA
p106
aVGermany
p107
aVRussia
p108
aVRussia
p109
aVNorway
p110
aVNorway
p111
aVUSA
p112
aVNorway
p113
aVUSA
p114
aVUSA
p115
aVChina
p116
aVUSA
p117
aVUSA
p118
aVUSA
p119
aVUSA
p120
aVUSA
p121
aVCanada
p122
aVChina
p123
aVUSA
p124
aVUSA
p125
aVUSA
p126
a.