(lp0
Vissue
p1
aVgeophysics
p2
aVseismic
p3
aVcharacterization
p4
aVfractured
p5
aVreservoirs
p6
aVfocusing
p7
aVgaussian
p8
aVbeams
p9
aVtime
p10
aVlapse
p11
aVimage
p12
aVdomain
p13
aVtomography
p14
aVusing
p15
aVadjoint
p16
aVstate
p17
aVmethods
p18
aVlow
p19
aVfrequency
p20
aVpassive
p21
aVseismic
p22
aVarray
p23
aVexperiment
p24
aVonshore
p25
aVoil
p26
aVfield
p27
aVabu
p28
aVdhabi
p29
aVunited
p30
aVarab
p31
aVemirates
p32
aVgeophysical
p33
aVinvestigation
p34
aVactive
p35
aVhockley
p36
aVfault
p37
aVnear
p38
aVhouston
p39
aVtexas
p40
aVgeophysical
p41
aVcharacterization
p42
aVmenengai
p43
aVvolcano
p44
aVcentral
p45
aVkenya
p46
aVrift
p47
aVanalysis
p48
aVmagnetotelluric
p49
aVgravity
p50
aVdata
p51
aVmodeling
p52
aVpseudoacoustic
p53
aVp
p54
aVwaves
p55
aVorthorhombic
p56
aVmedia
p57
aVlow
p58
aVrank
p59
aVapproximation
p60
aVeffects
p61
aVtool
p62
aVeccentralization
p63
aVcement
p64
aVbond
p65
aVlog
p66
aVmeasurements
p67
aVnumerical
p68
aVexperimental
p69
aVresults
p70
aVfrequency
p71
aVdomain
p72
aVfinite
p73
aVelement
p74
aVsimulations
p75
aV2d
p76
aVsonic
p77
aVwireline
p78
aVborehole
p79
aVmeasurements
p80
aVacquired
p81
aVfractured
p82
aVthinly
p83
aVbedded
p84
aVformations
p85
aVsensitivity
p86
aVanalysis
p87
aVappraisal
p88
aVhydrofractures
p89
aVhorizontal
p90
aVwells
p91
aVborehole
p92
aVresistivity
p93
aVmeasurements
p94
aVorganic
p95
aVmaturity
p96
aVelastic
p97
aVproperties
p98
aVtextural
p99
aVcharacteristics
p100
aVself
p101
aVresourcing
p102
aVreservoirs
p103
aVinverse
p104
aVcorrelations
p105
aVmethane
p106
aVcontent
p107
aVelastic
p108
aVparameters
p109
aVcoal
p110
aVbed
p111
aVmethane
p112
aVreservoirs
p113
aVfracture
p114
aVcompliance
p115
aVestimation
p116
aVusing
p117
aVborehole
p118
aVtube
p119
aVwaves
p120
aVimproved
p121
aVestimation
p122
aVmineral
p123
aVfluid
p124
aVvolumetric
p125
aVconcentrations
p126
aVthinly
p127
aVbedded
p128
aVcarbonate
p129
aVformations
p130
aVcharge
p131
aVaccumulation
p132
aVheterogeneous
p133
aVporous
p134
aVrocks
p135
aVinfluence
p136
aVexternal
p137
aVelectric
p138
aVfield
p139
aVexperimental
p140
aVstudy
p141
aVacoustic
p142
aVresponses
p143
aVinjection
p144
aVsupercritical
p145
aVco2
p146
aVsandstones
p147
aVotway
p148
aVbasin
p149
aVprocessing
p150
aVinversion
p151
aVcommercial
p152
aVhelicopter
p153
aVtime
p154
aVdomain
p155
aVelectromagnetic
p156
aVdata
p157
aVenvironmental
p158
aVassessments
p159
aVgeologic
p160
aVhydrologic
p161
aVmapping
p162
aVlarge
p163
aVscale
p164
aVgauss
p165
aVnewton
p166
aVinversion
p167
aVtransient
p168
aVcontrolled
p169
aVsource
p170
aVelectromagnetic
p171
aVmeasurement
p172
aVdata
p173
aVusing
p174
aVmodel
p175
aVreduction
p176
aVframework
p177
aVvertical
p178
aVelectric
p179
aVsource
p180
aVtransient
p181
aVmarine
p182
aVcsem
p183
aVeffect
p184
aV3d
p185
aVinhomogeneities
p186
aVlate
p187
aVtime
p188
aVresponse
p189
aVtheoretical
p190
aVexperimental
p191
aVexaminations
p192
aVcapacitively
p193
aVcoupled
p194
aVresistivity
p195
aVline
p196
aVantenna
p197
aVmethod
p198
aVinversion
p199
aVslingram
p200
aVelectromagnetic
p201
aVinduction
p202
aVdata
p203
aVusing
p204
aVborn
p205
aVapproximation
p206
aVbackground
p207
aVresistivity
p208
aVmodel
p209
aVseismic
p210
aVvelocities
p211
aVnew
p212
aVcoupled
p213
aVmodel
p214
aVsimulating
p215
aVmapping
p216
aVdense
p217
aVnonaqueous
p218
aVphase
p219
aVliquids
p220
aVusing
p221
aVelectrical
p222
aVresistivity
p223
aVtomography
p224
aVmode
p225
aVmisidentification
p226
aVrayleigh
p227
aVwaves
p228
aVellipticity
p229
aVcause
p230
aVcure
p231
aVhydrogeophysical
p232
aVinvestigations
p233
aV3
p234
aVponds
p235
aVcontaminant
p236
aVplumes
p237
aVoak
p238
aVridge
p239
aVintegrated
p240
aVfield
p241
aVresearch
p242
aVchallenge
p243
aVsite
p244
aVtennessee
p245
aVintegration
p246
aVsurface
p247
aVbased
p248
aVtomographic
p249
aVmodels
p250
aVzonation
p251
aVmultimodel
p252
aVguided
p253
aVextrapolation
p254
aVsparsely
p255
aVknown
p256
aVpetrophysical
p257
aVparameters
p258
aVimproved
p259
aVprediction
p260
aVhydraulic
p261
aVconductivity
p262
aVcoarse
p263
aVgrained
p264
aVunconsolidated
p265
aVmaterial
p266
aVnuclear
p267
aVmagnetic
p268
aVresonance
p269
aVapplication
p270
aVcurvatures
p271
aVairborne
p272
aVgravity
p273
aVgradient
p274
aVdata
p275
aVoil
p276
aVexploration
p277
aVsimultaneous
p278
aVjoint
p279
aVinversion
p280
aVamplitude
p281
aVversus
p282
aVoffset
p283
aVcontrolled
p284
aVsource
p285
aVelectromagnetic
p286
aVdata
p287
aVimplicit
p288
aVrepresentation
p289
aVcommon
p290
aVparameter
p291
aVstructure
p292
aVadaptive
p293
aViterative
p294
aVmethod
p295
aVdownward
p296
aVcontinuation
p297
aVpotential
p298
aVfield
p299
aVdata
p300
aVhorizontal
p301
aVplane
p302
aVnovel
p303
aVapproach
p304
aVsimulating
p305
aVelastic
p306
aVproperties
p307
aVporous
p308
aVrocks
p309
aVincluding
p310
aVcritical
p311
aVporosity
p312
aVphenomena
p313
aVchange
p314
aVeffective
p315
aVbulk
p316
aVmodulus
p317
aVfluid
p318
aVsolid
p319
aVsubstitution
p320
aVcoupling
p321
aVamplitude
p322
aVvariation
p323
aVoffset
p324
aVwiggins
p325
aVapproximation
p326
aVunfaulting
p327
aVunfolding
p328
aV3d
p329
aVseismic
p330
aVimages
p331
aVestimation
p332
aVbubble
p333
aVtime
p334
aVperiod
p335
aVair
p336
aVgun
p337
aVclusters
p338
aVusing
p339
aVpotential
p340
aVisosurfaces
p341
aVenhancing
p342
aVlow
p343
aVfrequency
p344
aVamplitude
p345
aVground
p346
aVforce
p347
aVseismic
p348
aVvibrator
p349
aVreduction
p350
aVharmonic
p351
aVdistortion
p352
aVplane
p353
aVwave
p354
aVbased
p355
aVcrosscorrelation
p356
aVtype
p357
aVseismic
p358
aVinterferometry
p359
aVhigh
p360
aVresolution
p361
aV3d
p362
aVshallow
p363
aVcrustal
p364
aVstructure
p365
aVlong
p366
aVbeach
p367
aVcalifornia
p368
aVapplication
p369
aVambient
p370
aVnoise
p371
aVtomography
p372
aVdense
p373
aVseismic
p374
aVarray
p375
aValgorithm
p376
aV3d
p377
aVacoustic
p378
aVtime
p379
aVlaplace
p380
aVfourier
p381
aVdomain
p382
aVhybrid
p383
aVwaveform
p384
aVinversion
p385
aVlaplace
p386
aVdomain
p387
aVwaveform
p388
aVinversions
p389
aVyield
p390
aVlong
p391
aVwavelength
p392
aVresults
p393
aVplane
p394
aVwave
p395
aVsquares
p396
aVreverse
p397
aVtime
p398
aVmigration
p399
aVautomatic
p400
aVvelocity
p401
aVanalysis
p402
aVreverse
p403
aVtime
p404
aVmigration
p405
aV3d
p406
aVcoupled
p407
aVacoustic
p408
aVelastic
p409
aVmigration
p410
aVtopography
p411
aVbathymetry
p412
aVbased
p413
aVspectral
p414
aVelement
p415
aVadjoint
p416
aVmethods
p417
aVstretch
p418
aVfree
p419
aVmigration
p420
aVimaging
p421
aVcondition
p422
aVkirchhoff
p423
aVmigration
p424
aVusing
p425
aVeikonal
p426
aVbased
p427
aVcomputation
p428
aVtraveltime
p429
aVsource
p430
aVderivatives
p431
aVshot
p432
aVprofile
p433
aVtrue
p434
aVamplitude
p435
aVcrosscorrelation
p436
aVimaging
p437
aVcondition
p438
aVsquares
p439
aVreverse
p440
aVtime
p441
aVmigration
p442
aVmarine
p443
aVdata
p444
aVfrequency
p445
aVselection
p446
aVencoding
p447
aVseismic
p448
aVreflectivity
p449
aVhydraulic
p450
aVfractures
p451
aVapproximated
p452
aVfluid
p453
aVlayers
p454
aVseismic
p455
aVdeghosting
p456
aVusing
p457
aVintegral
p458
aVrepresentation
p459
aVwave
p460
aVequation
p461
aVuse
p462
aVgreen
p463
aVfunctions
p464
aVneumann
p465
aVdirichlet
p466
aVboundary
p467
aVconditions
p468
aVinterface
p469
aVwaves
p470
aVfractures
p471
aVanisotropic
p472
aVmedia
p473
aVglobally
p474
aVoptimal
p475
aVfinite
p476
aVdifference
p477
aVschemes
p478
aVbased
p479
aVsquares
p480
aVfast
p481
aVbutterfly
p482
aValgorithm
p483
aVgeneralized
p484
aVradon
p485
aVtransforms
p486
aVblind
p487
aVsource
p488
aVseparation
p489
aVseismic
p490
aVsignals
p491
aVbased
p492
aVinformation
p493
aVmaximization
p494
aVvector
p495
aVreconstruction
p496
aVmulticomponent
p497
aVseismic
p498
aVdata
p499
aVaccelerated
p500
aVsparse
p501
aVtime
p502
aVinvariant
p503
aVradon
p504
aVtransform
p505
aVmixed
p506
aVfrequency
p507
aVtime
p508
aVdomain
p509
aVbased
p510
aViterative
p511
aV2d
p512
aVmodel
p513
aVshrinkage
p514
aVviterbi
p515
aVsparse
p516
aVspike
p517
aVdetection
p518
a.