(lp0
VCanada
p1
aVUSA
p2
aVCanada
p3
aVAustralia
p4
aVCanada
p5
aVJapan
p6
aVJapan
p7
aVSweden
p8
aVSweden
p9
aVNorway
p10
aVGermany
p11
aVUK
p12
aVUSA
p13
aVChina
p14
aVNorway
p15
aVItaly
p16
aVItaly
p17
aVItaly
p18
aVUSA
p19
aVUSA
p20
aVItaly
p21
aVNorway
p22
aVNorway
p23
aVUSA
p24
aVUSA
p25
aVUSA
p26
aVFrance
p27
aVFrance
p28
aVFrance
p29
aVUSA
p30
aVUSA
p31
aVFrance
p32
aVUSA
p33
aVEgypt
p34
aVUSA
p35
aVUSA
p36
aVFrance
p37
aVFrance
p38
aVUSA
p39
aVRussia
p40
aVCanada
p41
aVUK
p42
aVCanada
p43
aVUSA
p44
aVUSA
p45
aVUSA
p46
aVUSA
p47
aVItaly
p48
aVUSA
p49
aVBrazil
p50
aVBrazil
p51
aVBrazil
p52
aVFrance
p53
aVAustralia
p54
aVAustralia
p55
aVUSA
p56
aVUSA
p57
aVFrance
p58
aVUSA
p59
aVUSA
p60
aVUSA
p61
aVChina
p62
aVCanada
p63
aVChina
p64
aVIran
p65
aVCanada
p66
aVChina
p67
aVChina
p68
aVChina
p69
aVSaudi Arabia
p70
aVChina
p71
aVUSA
p72
aVFrance
p73
aVUSA
p74
aVUSA
p75
aVUSA
p76
aVThe Netherlands
p77
aVChina
p78
aVChina
p79
aVUSA
p80
aVUSA
p81
aVUSA
p82
aVChina
p83
aVUK
p84
aVNorway
p85
aVNorway
p86
aVUK
p87
aVFrance
p88
aVFrance
p89
aVMexico
p90
aVUSA
p91
aVUSA
p92
aVCanada
p93
aVCanada
p94
aVUSA
p95
aVUSA
p96
aVUSA
p97
aVUSA
p98
aVChina
p99
aVChina
p100
aVChina
p101
aVCanada
p102
aVSwitzerland
p103
aVUK
p104
a.