(lp0
Vissue
p1
aVgeophysics
p2
aVblock
p3
aVrow
p4
aVrecursive
p5
aVsquares
p6
aVmigration
p7
aVviscoacoustic
p8
aVmodeling
p9
aVimaging
p10
aVusing
p11
aVlow
p12
aVrank
p13
aVapproximation
p14
aVapplication
p15
aVwaveform
p16
aVtomography
p17
aVcrooked
p18
aVline
p19
aV2d
p20
aVland
p21
aVseismic
p22
aVdata
p23
aVset
p24
aVjoint
p25
aVinversion
p26
aVgravity
p27
aVmagnetic
p28
aVpetrophysical
p29
aVdata
p30
aVcase
p31
aVstudy
p32
aVgabbro
p33
aVintrusion
p34
aVboden
p35
aVsweden
p36
aVvolumetric
p37
aVbounds
p38
aVsubsurface
p39
aVfluid
p40
aVsubstitution
p41
aVusing
p42
aV4d
p43
aVseismic
p44
aVtime
p45
aVshifts
p46
aVapplication
p47
aVsleipner
p48
aVnorth
p49
aVsea
p50
aVanelliptic
p51
aVapproximations
p52
aVqp
p53
aVvelocities
p54
aVtransversely
p55
aVisotropic
p56
aVorthorhombic
p57
aVmedia
p58
aVsimulation
p59
aVborehole
p60
aVquasistatic
p61
aVelectric
p62
aVfield
p63
aVexcited
p64
aVacoustic
p65
aVwave
p66
aVlogging
p67
aVdrilling
p68
aVelectrokinetic
p69
aVeffect
p70
aVaspect
p71
aVratio
p72
aVhistograms
p73
aV3d
p74
aVellipsoids
p75
aV2d
p76
aVellipses
p77
aVanalytical
p78
aVrelations
p79
aVnumerical
p80
aVexamples
p81
aVassessment
p82
aVstructural
p83
aVrepresentativeness
p84
aVsample
p85
aVdata
p86
aVsets
p87
aVmechanical
p88
aVcharacterization
p89
aVdeep
p90
aVformations
p91
aVspatial
p92
aVsensitivity
p93
aVfunctions
p94
aVrapid
p95
aVnumerical
p96
aVsimulation
p97
aVborehole
p98
aVsonic
p99
aVmeasurements
p100
aVvertical
p101
aVwells
p102
aVrock
p103
aVphysics
p104
aVtemplates
p105
aVclay
p106
aVrich
p107
aVsource
p108
aVrocks
p109
aVfast
p110
aVnumerical
p111
aVsimulation
p112
aVlogging
p113
aVdrilling
p114
aVgamma
p115
aVray
p116
aVspectroscopy
p117
aVmeasurements
p118
aVinduced
p119
aVpolarization
p120
aVresponse
p121
aVporous
p122
aVmedia
p123
aVmetallic
p124
aVparticles
p125
aV1
p126
aVtheory
p127
aVdisseminated
p128
aVsemiconductors
p129
aVinduced
p130
aVpolarization
p131
aVresponse
p132
aVporous
p133
aVmedia
p134
aVmetallic
p135
aVparticles
p136
aV2
p137
aVcomparison
p138
aVbroad
p139
aVdatabase
p140
aVexperimental
p141
aVdata
p142
aVindication
p143
aVwettability
p144
aVdielectric
p145
aVmeasurements
p146
aVpartially
p147
aVsaturated
p148
aVrocks
p149
aVusing
p150
aVeffective
p151
aVmedium
p152
aVmodels
p153
aVspectral
p154
aVinduced
p155
aVpolarization
p156
aVlow
p157
aVmoderately
p158
aVpolarizable
p159
aVburied
p160
aVobjects
p161
aVtemporal
p162
aVtrend
p163
aVcompliance
p164
aVmeasurements
p165
aVnear
p166
aVgas
p167
aVhydrate
p168
aVaccumulation
p169
aVnorthern
p170
aVcascadia
p171
aVdetecting
p172
aVclandestine
p173
aVtunnels
p174
aVusing
p175
aVnear
p176
aVsurface
p177
aVseismic
p178
aVtechniques
p179
aVautomated
p180
aVreflection
p181
aVpicking
p182
aVpolarity
p183
aVassessment
p184
aVattribute
p185
aVanalysis
p186
aVtheory
p187
aVapplication
p188
aVsynthetic
p189
aVreal
p190
aVground
p191
aVpenetrating
p192
aVradar
p193
aVdata
p194
aVautomatic
p195
aVsimultaneous
p196
aVmultiple
p197
aVties
p198
aVedge
p199
aVdetection
p200
aVpotential
p201
aVfield
p202
aVsources
p203
aVusing
p204
aVscale
p205
aVspace
p206
aVmonogenic
p207
aVsignal
p208
aVfundamental
p209
aVprinciples
p210
aVexperimental
p211
aVstudy
p212
aVyoung
p213
aVmodulus
p214
aVdispersion
p215
aVattenuation
p216
aVfully
p217
aVsaturated
p218
aVsandstones
p219
aVsimultaneous
p220
aVoptimization
p221
aVmultiple
p222
aVobjective
p223
aVfunctions
p224
aVreservoir
p225
aVmodeling
p226
aV2d
p227
aVjoint
p228
aVinversion
p229
aVgeophysical
p230
aVdata
p231
aVusing
p232
aVpetrophysical
p233
aVclustering
p234
aVfacies
p235
aVdeformation
p236
aVprobabilistic
p237
aVfalsification
p238
aVprior
p239
aVgeologic
p240
aVuncertainty
p241
aVseismic
p242
aVamplitude
p243
aVdata
p244
aVapplication
p245
aVturbidite
p246
aVreservoir
p247
aVcase
p248
aVcharacterization
p249
aVinterbedded
p250
aVbeds
p251
aVusing
p252
aVzero
p253
aVcrossing
p254
aVtime
p255
aVamplitude
p256
aVstratal
p257
aVslices
p258
aVnonlinear
p259
aVmultichannel
p260
aVimpedance
p261
aVinversion
p262
aVtotal
p263
aVvariation
p264
aVregularization
p265
aVefficient
p266
aVpseudo
p267
aVgauss
p268
aVnewton
p269
aVwaveform
p270
aVinversion
p271
aVp
p272
aVdomain
p273
aVjoint
p274
aVpp
p275
aVps
p276
aVava
p277
aVseismic
p278
aVinversion
p279
aVusing
p280
aVexact
p281
aVzoeppritz
p282
aVequations
p283
aVunwrapped
p284
aVphase
p285
aVinversion
p286
aVexponential
p287
aVdamping
p288
aVinversion
p289
aVreservoir
p290
aVporosity
p291
aVsaturation
p292
aVpermeability
p293
aVbased
p294
aVrobust
p295
aVhybrid
p296
aVgenetic
p297
aValgorithm
p298
aVmultiscale
p299
aVadjoint
p300
aVwaveform
p301
aVtomography
p302
aVsurface
p303
aVbody
p304
aVwaves
p305
aVmarchenko
p306
aVimaging
p307
aVimaging
p308
aVprimaries
p309
aVinternal
p310
aVmultiples
p311
aVfree
p312
aVsurface
p313
aVmultiples
p314
aVreverse
p315
aVtime
p316
aVmigration
p317
aVinternal
p318
aVmultiples
p319
aVsubsalt
p320
aVimaging
p321
aVelastic
p322
aVp
p323
aVwave
p324
aVautofocus
p325
aVimaging
p326
aVprimaries
p327
aVinternal
p328
aVmultiples
p329
aVfast
p330
aVcomputation
p331
aVeikonal
p332
aVtransport
p333
aVequations
p334
aVgraphics
p335
aVprocessing
p336
aVunits
p337
aVcomputer
p338
aVarchitectures
p339
aVimmersed
p340
aVfree
p341
aVsurface
p342
aVboundary
p343
aVtreatment
p344
aVseismic
p345
aVwave
p346
aVsimulation
p347
aVvertical
p348
aVseismic
p349
aVprofile
p350
aVmigration
p351
aVvelocity
p352
aVanalysis
p353
aVresidual
p354
aVmoveout
p355
aVreceiver
p356
aVdomain
p357
aVcommon
p358
aVimage
p359
aVgathers
p360
aVefficient
p361
aVmatrix
p362
aVcompletion
p363
aVseismic
p364
aVdata
p365
aVreconstruction
p366
aVadaptive
p367
aVlocal
p368
aVfrequency
p369
aVinterpolation
p370
aVdenoising
p371
aVhigh
p372
aVdimensional
p373
aVseismic
p374
aVdata
p375
aVlearning
p376
aVtight
p377
aVframe
p378
aVbenefit
p379
aVencoded
p380
aVsource
p381
aVsequences
p382
aVsimultaneous
p383
aVsource
p384
aVseparation
p385
a.