(lp0
VUSA
p1
aVUSA
p2
aVCanada
p3
aVUK
p4
aVCanada
p5
aVUSA
p6
aVUSA
p7
aVUSA
p8
aVCzech Republic
p9
aVFrance
p10
aVCanada
p11
aVUAE
p12
aVUSA
p13
aVUSA
p14
aVDenmark
p15
aVUSA
p16
aVUSA
p17
aVUSA
p18
aVChina
p19
aVChina
p20
aVChina
p21
aVChina
p22
aVChina
p23
aVUSA
p24
aVChina
p25
aVFrance
p26
aVDenmark
p27
aVDenmark
p28
aVDenmark
p29
aVKorea
p30
aVKorea
p31
aVChina
p32
aVUSA
p33
aVChina
p34
aVChina
p35
aVFrance
p36
aVSwitzerland
p37
aVBelgium
p38
aVUSA
p39
aVUSA
p40
aVAustralia
p41
aVKorea
p42
aVKorea
p43
aVUSA
p44
aVBrazil
p45
aVAustria
p46
aVUSA
p47
aVUSA
p48
aVChina
p49
aVUSA
p50
aVUSA
p51
aVBrazil
p52
aVUSA
p53
aVAustralia
p54
aVChina
p55
aVChina
p56
aVCanada
p57
aVCanada
p58
aVCanada
p59
aVCanada
p60
aVChina
p61
aVUSA
p62
aVAustralia
p63
aVNorway
p64
aVNorway
p65
aVNorway
p66
aVSwitzerland
p67
aVNorway
p68
aVJapan
p69
aVJapan
p70
aVJapan
p71
aVJapan
p72
aVChina
p73
aVChina
p74
aVUSA
p75
aVUSA
p76
aVSaudi Arabia
p77
aVCanada
p78
aVUSA
p79
aVUSA
p80
aVUSA
p81
aVUSA
p82
aVUSA
p83
aVChina
p84
aVChina
p85
aVBrazil
p86
aVBrazil
p87
aVChina
p88
aVChina
p89
aVChina
p90
aVChina
p91
aVAustralia
p92
aVIran
p93
aVUSA
p94
aVChina
p95
aVUSA
p96
aVChina
p97
aVUSA
p98
aVChina
p99
aVUK
p100
aVGermany
p101
aVChina
p102
aVChina
p103
aVChina
p104
aVChina
p105
aVChina
p106
aVUSA
p107
aVUSA
p108
aVCanada
p109
a.