(lp0
Vissue
p1
aVgeophysics
p2
aVwaveform
p3
aVinversion
p4
aVusing
p5
aVseislet
p6
aVregularization
p7
aVimpact
p8
aVmagnetic
p9
aVviscosity
p10
aVtime
p11
aVdomain
p12
aVelectromagnetic
p13
aVdata
p14
aViron
p15
aVoxide
p16
aVminerals
p17
aVembedded
p18
aVrocks
p19
aVopemiska
p20
aVqu
p21
aVbec
p22
aVcanada
p23
aVseismic
p24
aVcharacterization
p25
aVcarbonate
p26
aVreservoir
p27
aVtarim
p28
aVbasin
p29
aVseismic
p30
aVinversion
p31
aVgeologic
p32
aVfractures
p33
aVfractured
p34
aVmedia
p35
aVelastic
p36
aVwaveform
p37
aVinversion
p38
aVvti
p39
aVmedia
p40
aVsynthetic
p41
aVparameterization
p42
aVstudy
p43
aVreflection
p44
aVmoveout
p45
aVapproximations
p46
aVp
p47
aVwaves
p48
aVmoderately
p49
aVanisotropic
p50
aVhomogeneous
p51
aVtilted
p52
aVtransverse
p53
aVisotropy
p54
aVlayer
p55
aVextraction
p56
aVreflected
p57
aVevents
p58
aVsonic
p59
aVlog
p60
aVwaveforms
p61
aVusing
p62
aVkarhunen
p63
aVlo
p64
aVtransform
p65
aVgeosteering
p66
aVexact
p67
aVinference
p68
aVbayesian
p69
aVnetwork
p70
aVinvestigating
p71
aVeffect
p72
aVinternal
p73
aVgradients
p74
aVstatic
p75
aVgradient
p76
aVnuclear
p77
aVmagnetic
p78
aVresonance
p79
aVdiffusion
p80
aVmeasurements
p81
aVelastic
p82
aVproperties
p83
aVrock
p84
aVsalt
p85
aVlaboratory
p86
aVmeasurements
p87
aVgulf
p88
aVmexico
p89
aVlog
p90
aVanalysis
p91
aVsitu
p92
aVmeasurement
p93
aVvelocity
p94
aVstress
p95
aVsensitivity
p96
aVusing
p97
aVcrosswell
p98
aVcontinuous
p99
aVactive
p100
aVsource
p101
aVseismic
p102
aVmonitoring
p103
aVmicro
p104
aVocean
p105
aVe
p106
aVfield
p107
aVreceiver
p108
aVcorrelation
p109
aVanalysis
p110
aVspread
p111
aVspectrum
p112
aVinduced
p113
aVpolarization
p114
aVsignal
p115
aVprocessing
p116
aVelectromagnetically
p117
aVnoisy
p118
aVenvironments
p119
aVnoise
p120
aVproperties
p121
aVfourier
p122
aVdeconvolution
p123
aVtime
p124
aVdomain
p125
aVelectromagnetic
p126
aVsoundings
p127
aVanalytical
p128
aVexperimental
p129
aVstudies
p130
aVobtain
p131
aVelectrical
p132
aVresistivity
p133
aVsmall
p134
aVscaled
p135
aVlaboratory
p136
aVtest
p137
aVtransient
p138
aVelectromagnetic
p139
aVsearch
p140
aVengine
p141
aVreal
p142
aVtime
p143
aVimaging
p144
aVtransforming
p145
aVtime
p146
aVdomain
p147
aVelectromagnetic
p148
aVsignal
p149
aVfrequency
p150
aVdomain
p151
aVelectromagnetic
p152
aVresponse
p153
aVusing
p154
aVregularization
p155
aVinversion
p156
aVusing
p157
aVresistivity
p158
aVlogarithm
p159
aVresistivity
p160
aVcalculate
p161
aVdepth
p162
aVinvestigation
p163
aVindex
p164
aVassess
p165
aVreliability
p166
aVelectrical
p167
aVresistivity
p168
aVtomography
p169
aVinference
p170
aVmulti
p171
aVgaussian
p172
aVrelative
p173
aVpermittivity
p174
aVfields
p175
aVprobabilistic
p176
aVinversion
p177
aVcrosshole
p178
aVground
p179
aVpenetrating
p180
aVradar
p181
aVdata
p182
aVties
p183
aVseismic
p184
aVsevere
p185
aVstratigraphic
p186
aVfiltering
p187
aVinterpreting
p188
aVpotential
p189
aVfield
p190
aVanomaly
p191
aVisolated
p192
aVsource
p193
aVregular
p194
aVgeometry
p195
aVrevisited
p196
aVnumerical
p197
aVevaluation
p198
aVactive
p199
aVsource
p200
aVmagnetics
p201
aVmethod
p202
aVimaging
p203
aVhigh
p204
aVresolution
p205
aVnear
p206
aVsurface
p207
aVmagnetic
p208
aVheterogeneity
p209
aVlateral
p210
aVvariation
p211
aVcrustal
p212
aVproperties
p213
aVaerogeophysical
p214
aVdata
p215
aVnorthern
p216
aVbrazil
p217
aVmultiple
p218
aVlevel
p219
aVset
p220
aVmethod
p221
aV3d
p222
aVinversion
p223
aVmagnetic
p224
aVdata
p225
aVgeophysical
p226
aVinversions
p227
aVapplied
p228
aV3d
p229
aVgeology
p230
aVcharacterization
p231
aViron
p232
aVoxide
p233
aVcopper
p234
aVgold
p235
aVdeposit
p236
aVbrazil
p237
aVimage
p238
aVdomain
p239
aVvelocity
p240
aVinversion
p241
aVevent
p242
aVlocation
p243
aVmicroseismic
p244
aVmonitoring
p245
aVwaveform
p246
aVbased
p247
aVsource
p248
aVlocation
p249
aVmethod
p250
aVusing
p251
aVsource
p252
aVparameter
p253
aVisolation
p254
aVstrategy
p255
aVpressure
p256
aVtemperature
p257
aVdependence
p258
aVacoustic
p259
aVwave
p260
aVspeeds
p261
aVbitumen
p262
aVsaturated
p263
aVcarbonates
p264
aVimplications
p265
aVseismic
p266
aVmonitoring
p267
aVgrosmont
p268
aVformation
p269
aVdeep
p270
aVseismic
p271
aVreflection
p272
aVdata
p273
aVinterpretation
p274
aVusing
p275
aVbalanced
p276
aVfiltering
p277
aVmethod
p278
aVtransform
p279
aVfourier
p280
aVtransform
p281
aVfrequency
p282
aVspectra
p283
aVbroadband
p284
aVseismic
p285
aVsignals
p286
aVseismic
p287
aVsignature
p288
aVrain
p289
aVbroadband
p290
aVseismic
p291
aVsources
p292
aVdesignature
p293
aVdeghosting
p294
aVinterferometric
p295
aVobs
p296
aVimaging
p297
aVwide
p298
aVangle
p299
aVseismic
p300
aVdata
p301
aVelastic
p302
aVwaveform
p303
aVinversion
p304
aVsurface
p305
aVtopography
p306
aVdiscrepancy
p307
aVbased
p308
aVpenalty
p309
aVmethod
p310
aVextended
p311
aVwaveform
p312
aVinversion
p313
aVwave
p314
aVequation
p315
aVmigration
p316
aVvelocity
p317
aVanalysis
p318
aVusing
p319
aVplane
p320
aVwave
p321
aVcommon
p322
aVimage
p323
aVgathers
p324
aVelastic
p325
aVsquares
p326
aVreverse
p327
aVtime
p328
aVmigration
p329
aVlinearized
p330
aVelastic
p331
aVwaveform
p332
aVinversion
p333
aVpseudo
p334
aVhessian
p335
aVpreconditioning
p336
aVcombining
p337
aVmultidirectional
p338
aVsource
p339
aVvector
p340
aVantitruncation
p341
aVartifact
p342
aVfourier
p343
aVtransform
p344
aVcalculate
p345
aVangle
p346
aVgathers
p347
aVreverse
p348
aVtime
p349
aVmigration
p350
aVsteps
p351
aV3d
p352
aVangle
p353
aVdecomposition
p354
aVelastic
p355
aVreverse
p356
aVtime
p357
aVmigration
p358
aVcascaded
p359
aVwavefield
p360
aVtomography
p361
aVinversion
p362
aVusing
p363
aVextended
p364
aVcommon
p365
aVimage
p366
aVpoint
p367
aVgathers
p368
aVcase
p369
aVstudy
p370
aVtemporal
p371
aVhigh
p372
aVorder
p373
aVstaggered
p374
aVgrid
p375
aVfinite
p376
aVdifference
p377
aVschemes
p378
aVelastic
p379
aVwave
p380
aVpropagation
p381
aVhigh
p382
aVorder
p383
aVfinite
p384
aVdifference
p385
aVapproximations
p386
aVsolve
p387
aVpseudoacoustic
p388
aVequations
p389
aV3d
p390
aVvti
p391
aVmedia
p392
aVtime
p393
aVdomain
p394
aVexplicit
p395
aVfinite
p396
aVdifference
p397
aVmethod
p398
aVbased
p399
aVmixed
p400
aVdomain
p401
aVfunction
p402
aVapproximation
p403
aVacoustic
p404
aVwave
p405
aVequation
p406
aVlow
p407
aVfrequency
p408
aVdeghosting
p409
aVmethod
p410
aVanalysis
p411
aVnumerical
p412
aVtests
p413
aVamplitude
p414
aVvariation
p415
aVoffset
p416
aVfriendly
p417
aVbootstrapped
p418
aVdifferential
p419
aVsemblance
p420
aVmorphological
p421
aVdeconvolution
p422
aVnoise
p423
aVattenuation
p424
aVlow
p425
aVdimensional
p426
aVmanifold
p427
aVgeneralized
p428
aVview
p429
aVnormal
p430
aVmoveout
p431
aVhybrid
p432
aVrank
p433
aVsparsity
p434
aVconstraint
p435
aVmodel
p436
aVsimultaneous
p437
aVreconstruction
p438
aVdenoising
p439
aV3d
p440
aVseismic
p441
aVdata
p442
aVtutorial
p443
aVrotational
p444
aVseismology
p445
aVapplications
p446
aVexploration
p447
aVgeophysics
p448
a.