(lp0
VAustralia
p1
aVChina
p2
aVGermany
p3
aVCanada
p4
aVAustralia
p5
aVAustralia
p6
aVNorway
p7
aVNorway
p8
aVUSA
p9
aVSaudi Arabia
p10
aVAustralia
p11
aVChina
p12
aVChina
p13
aVChina
p14
aVAustralia
p15
aVAustralia
p16
aVAustralia
p17
aVAustralia
p18
aVUSA
p19
aVKingdom of Saudi Arabia
p20
aVChina
p21
aVNorway
p22
aVSaudi Arabia
p23
aVNorway
p24
aVBrazil
p25
aVBrazil
p26
aVUSA
p27
aVUSA
p28
aVUSA
p29
aVUSA
p30
aVUSA
p31
aVItaly
p32
aVUK
p33
aVUSA
p34
aVThailand
p35
aVUSA
p36
aVChina
p37
aVUSA
p38
aVUSA
p39
aVChina
p40
aVUAE
p41
aVChina
p42
aVUSA
p43
aVUSA
p44
aVUSA
p45
aVChina
p46
aVUSA
p47
aVUSA
p48
aVUSA
p49
aVNorway
p50
aVNorway
p51
aVChina
p52
aVUK
p53
aVUSA
p54
aVUSA
p55
aVUSA
p56
aVAustralia
p57
aVGermany
p58
aVAustralia
p59
aVGermany
p60
aVChina
p61
aVAustralia
p62
aVAustralia
p63
aVUSA
p64
aVThe Netherlands
p65
aVSwitzerland
p66
aVThe Netherlands
p67
aVUSA
p68
aVUSA
p69
aVUSA
p70
aVUSA
p71
aVCanada
p72
aVJapan
p73
aVJapan
p74
aVSwitzerland
p75
aVUSA
p76
aVUSA
p77
aVUSA
p78
aVUSA
p79
aVUSA
p80
aVCzech Republic
p81
aVFrance
p82
aVFrance
p83
aVFrance
p84
aVFrance
p85
aVSaudi Arabia
p86
aVSaudi Arabia
p87
aVAustralia
p88
aVAustralia
p89
aVThe Netherlands
p90
aVUSA
p91
aVFrance
p92
aVFrance
p93
aVFrance
p94
aVFrance
p95
aVFrance
p96
aVFrance
p97
aVFrance
p98
aVFrance
p99
aVFrance
p100
aVFrance
p101
aVSwitzerland
p102
aVSpain
p103
aVChina
p104
aVSaudi Arabia
p105
aVUK
p106
aVUK
p107
aVUK
p108
aVUK
p109
aVUSA
p110
aVFrance
p111
aVFrance
p112
aVSaudi Arabia
p113
aVUSA
p114
aVUSA
p115
aVChina
p116
aVWestern Australia
p117
aVAustralia
p118
aVIreland
p119
aVIreland
p120
aVJapan
p121
aVChina
p122
aVUSA
p123
aVUSA
p124
aVChina
p125
aVSaudi Arabia
p126
aVUK
p127
aVUSA
p128
aVChina
p129
aVUSA
p130
aVSwitzerland
p131
aVChina
p132
aVChina
p133
aVChina
p134
aVChina
p135
aVSwitzerland
p136
aVUSA
p137
aVItaly
p138
aVChina
p139
aVChina
p140
aVChina
p141
aVIran
p142
aVArgentina
p143
aVArgentina
p144
aVSwitzerland
p145
aVUK
p146
aVGermany
p147
aVChina
p148
a.