(lp0
Vissue
p1
aVgeophysics
p2
aVmonitoring
p3
aVshale
p4
aVgas
p5
aVresources
p6
aVcooper
p7
aVbasin
p8
aVusing
p9
aVmagnetotellurics
p10
aVrestricted
p11
aVmodel
p12
aVdomain
p13
aVtime
p14
aVradon
p15
aVtransforms
p16
aVcomparing
p17
aVinduced
p18
aVpolarization
p19
aVresponses
p20
aVairborne
p21
aVinductive
p22
aVgalvanic
p23
aVground
p24
aVsystems
p25
aVlewis
p26
aVponds
p27
aVnew
p28
aVsouth
p29
aVwales
p30
aVcharacterizing
p31
aVborehole
p32
aVplumbing
p33
aVusing
p34
aVwaveform
p35
aVultrasonic
p36
aVdata
p37
aVapplication
p38
aVdata
p39
aVnorth
p40
aVsea
p41
aVwavefront
p42
aVpicking
p43
aV3d
p44
aVtomography
p45
aVwaveform
p46
aVinversion
p47
aVfitting
p48
aVsuperparamagnetic
p49
aVdistributed
p50
aVcole
p51
aVcole
p52
aVparameters
p53
aVairborne
p54
aVelectromagnetic
p55
aVdata
p56
aVcase
p57
aVhistory
p58
aVquebec
p59
aVuse
p60
aVnonlinear
p61
aVchaos
p62
aVinversion
p63
aVpredicting
p64
aVdeep
p65
aVlithologic
p66
aVhydrocarbon
p67
aVreservoirs
p68
aVcase
p69
aVstudy
p70
aVtazhong
p71
aVoil
p72
aVfield
p73
aVtarim
p74
aVbasin
p75
aVchina
p76
aVestimation
p77
aVrock
p78
aVframe
p79
aVweakening
p80
aVusing
p81
aVtime
p82
aVlapse
p83
aVcrosswell
p84
aVfrio
p85
aVbrine
p86
aVpilot
p87
aVproject
p88
aVelastic
p89
aVorthorhombic
p90
aVanisotropic
p91
aVparameter
p92
aVinversion
p93
aVanalysis
p94
aVparameterization
p95
aVseparating
p96
aVquasi
p97
aVp
p98
aVwave
p99
aVtransversely
p100
aVisotropic
p101
aVmedia
p102
aVvertical
p103
aVsymmetry
p104
aVaxis
p105
aVsynthesized
p106
aVpressure
p107
aVapplied
p108
aVocean
p109
aVseismic
p110
aVdata
p111
aVelastic
p112
aVreverse
p113
aVtime
p114
aVmigration
p115
aVapplication
p116
aVperturbation
p117
aVtheory
p118
aVp
p119
aVwave
p120
aVeikonal
p121
aVequation
p122
aVorthorhombic
p123
aVmedia
p124
aVnormal
p125
aVmoveout
p126
aVvelocity
p127
aVellipse
p128
aVtilted
p129
aVorthorhombic
p130
aVmedia
p131
aVseparable
p132
aVstrong
p133
aVanisotropy
p134
aVapproximation
p135
aVpure
p136
aVqp
p137
aVwave
p138
aVpropagation
p139
aVtransversely
p140
aVisotropic
p141
aVmedia
p142
aVmicroscale
p143
aVheterogeneity
p144
aVgranular
p145
aVmedia
p146
aVimpact
p147
aVelastic
p148
aVproperty
p149
aVestimation
p150
aVeffective
p151
aVfluid
p152
aVgrain
p153
aVbulk
p154
aVmoduli
p155
aVheterogeneous
p156
aVthinly
p157
aVlayered
p158
aVporoelastic
p159
aVmedia
p160
aVdual
p161
aVwavefields
p162
aVdistributed
p163
aVacoustic
p164
aVsensing
p165
aVmeasurements
p166
aVfluid
p167
aVsubstitution
p168
aVthinly
p169
aVinterbedded
p170
aVsand
p171
aVshale
p172
aVsequences
p173
aVusing
p174
aVmesh
p175
aVmethod
p176
aVinvestigation
p177
aVcollar
p178
aVproperties
p179
aVdata
p180
aVacquisition
p181
aVscheme
p182
aVacoustic
p183
aVlogging
p184
aVdrilling
p185
aVbayesian
p186
aVlinearized
p187
aVrock
p188
aVphysics
p189
aVinversion
p190
aVelectrical
p191
aVresistivity
p192
aVchemical
p193
aVproperties
p194
aVkerogen
p195
aVisolated
p196
aVorganic
p197
aVrich
p198
aVmudrocks
p199
aVderiving
p200
aVbiot
p201
aVgassmann
p202
aVrelationship
p203
aVinclusion
p204
aVbased
p205
aVmethod
p206
aV3d
p207
aVprinted
p208
aVrock
p209
aVmodels
p210
aVelastic
p211
aVproperties
p212
aVeffects
p213
aVpenny
p214
aVshaped
p215
aVinclusions
p216
aVfluid
p217
aVsubstitution
p218
aVanalysis
p219
aVouter
p220
aVcasing
p221
aVechoes
p222
aVsimulations
p223
aVultrasonic
p224
aVpulse
p225
aVecho
p226
aVtubing
p227
aVlogging
p228
aV3d
p229
aVinversion
p230
aVmultipulse
p231
aVairborne
p232
aVtransient
p233
aVelectromagnetic
p234
aVdata
p235
aVhydrogeologic
p236
aVinformation
p237
aVcross
p238
aVborehole
p239
aVcomplex
p240
aVconductivity
p241
aVdata
p242
aVunconsolidated
p243
aVconglomeratic
p244
aVsedimentary
p245
aVaquifer
p246
aVmagnetotelluric
p247
aVmonitoring
p248
aVcoal
p249
aVseam
p250
aVgas
p251
aVdepressurization
p252
aVquantitative
p253
aVestimation
p254
aVintrinsic
p255
aVinduced
p256
aVpolarization
p257
aVsuperparamagnetic
p258
aVparameters
p259
aVairborne
p260
aVelectromagnetic
p261
aVdata
p262
aVevaluation
p263
aVrapid
p264
aVhybrid
p265
aVspectral
p266
aVspatial
p267
aVdomain
p268
aV3d
p269
aVforward
p270
aVmodeling
p271
aVapproach
p272
aVloop
p273
aVloop
p274
aVelectromagnetic
p275
aVinduction
p276
aVquadrature
p277
aVdata
p278
aVacquired
p279
aVlow
p280
aVinduction
p281
aVnumber
p282
aVenvironments
p283
aVdiscussion
p284
aVperformance
p285
aVseven
p286
aVexisting
p287
aVmodels
p288
aVproposed
p289
aVinduced
p290
aVpolarization
p291
aVcomparing
p292
aVinduced
p293
aVpolarization
p294
aVresponses
p295
aVairborne
p296
aVinductive
p297
aVgalvanic
p298
aVground
p299
aVsystems
p300
aVtasmania
p301
aVtransient
p302
aVelectromagnetic
p303
aVfields
p304
aVburied
p305
aVhorizontal
p306
aVmagnetic
p307
aVdipole
p308
aVwet
p309
aVgassy
p310
aVzones
p311
aVmunicipal
p312
aVlandfill
p313
aVp
p314
aVwave
p315
aVvelocity
p316
aVfields
p317
aVdetecting
p318
aVquantifying
p319
aVorganic
p320
aVcontaminants
p321
aVsediments
p322
aVnuclear
p323
aVmagnetic
p324
aVresonance
p325
aVjoint
p326
aVinversion
p327
aVgravity
p328
aVtraveltime
p329
aVdata
p330
aVusing
p331
aVlevel
p332
aVset
p333
aVbased
p334
aVstructural
p335
aVparameterization
p336
aVmethods
p337
aVcompute
p338
aVsalt
p339
aVlikelihoods
p340
aVextract
p341
aVsalt
p342
aVboundaries
p343
aV3d
p344
aVseismic
p345
aVimages
p346
aVattributes
p347
aVmagnetic
p348
aVfield
p349
aVanalytic
p350
aVsignal
p351
aVmonogenic
p352
aVsignal
p353
aVgravity
p354
aVmagnetic
p355
aVinterpretation
p356
aVphysics
p357
aVbased
p358
aVseismic
p359
aVevaluation
p360
aVmethod
p361
aVevaluating
p362
aVpossible
p363
aVseismic
p364
aVmoment
p365
aVbased
p366
aVmicroseismic
p367
aVinformation
p368
aVfluid
p369
aVstimulation
p370
aVdense
p371
aVsurface
p372
aVseismic
p373
aVdata
p374
aVconfirm
p375
aVnon
p376
aVdouble
p377
aVcouple
p378
aVsource
p379
aVmechanisms
p380
aVinduced
p381
aVhydraulic
p382
aVfracturing
p383
aVsingle
p384
aVmoment
p385
aVtensor
p386
aVinversion
p387
aVtensile
p388
aVmicroseismic
p389
aVevents
p390
aVextraction
p391
aVphase
p392
aVgroup
p393
aVvelocities
p394
aVambient
p395
aVsurface
p396
aVnoise
p397
aVpatch
p398
aVarray
p399
aVconfiguration
p400
aVsobel
p401
aVfilter
p402
aVedge
p403
aVdetection
p404
aVhexagonally
p405
aVsampled
p406
aV3d
p407
aVseismic
p408
aVdata
p409
aVsurvey
p410
aVdesign
p411
aVcoal
p412
aVscale
p413
aV3d
p414
aVps
p415
aVseismic
p416
aVreflection
p417
aVinterferometric
p418
aVidentification
p419
aVsurface
p420
aVrelated
p421
aVmultiples
p422
aVwaveform
p423
aVinversion
p424
aVextrapolated
p425
aVlow
p426
aVfrequency
p427
aVdata
p428
aVwavefield
p429
aVreconstruction
p430
aVattenuating
p431
aVmedia
p432
aVcheckpointing
p433
aVassisted
p434
aVreverse
p435
aVforward
p436
aVsimulation
p437
aVmethod
p438
aVfast
p439
aV3d
p440
aVfrequency
p441
aVdomain
p442
aVwaveform
p443
aVinversion
p444
aVparallel
p445
aVblock
p446
aVlow
p447
aVrank
p448
aVmultifrontal
p449
aVdirect
p450
aVsolver
p451
aVapplication
p452
aVobc
p453
aVdata
p454
aVnorth
p455
aVsea
p456
aVwavefield
p457
aVcompression
p458
aVadjoint
p459
aVmethods
p460
aVwaveform
p461
aVinversion
p462
aVsimultaneous
p463
aVestimation
p464
aVvelocity
p465
aVdensity
p466
aVacoustic
p467
aVmultiparameter
p468
aVwaveform
p469
aVinversion
p470
aVusing
p471
aVimproved
p472
aVscattering
p473
aVintegral
p474
aVapproach
p475
aVmultiscattering
p476
aVinversion
p477
aVlow
p478
aVmodel
p479
aVwavenumbers
p480
aVadaptive
p481
aVwaveform
p482
aVinversion
p483
aVtheory
p484
aVelastic
p485
aVwavefield
p486
aVtomography
p487
aVphysical
p488
aVmodel
p489
aVconstraints
p490
aVwaveform
p491
aVinversion
p492
aVbased
p493
aVwavefield
p494
aVdecomposition
p495
aVwave
p496
aVequation
p497
aVq
p498
aVtomography
p499
aVtime
p500
aVlapse
p501
aVinverse
p502
aVtheory
p503
aVapplications
p504
aVdiffraction
p505
aVimaging
p506
aVmethod
p507
aVmahalanobis
p508
aVbased
p509
aVamplitude
p510
aVdamping
p511
aVoriented
p512
aVprestack
p513
aVtime
p514
aVmigration
p515
aVusing
p516
aVlocal
p517
aVslopes
p518
aVpredictive
p519
aVpainting
p520
aVcommon
p521
aVsource
p522
aVdomain
p523
aVplanar
p524
aVreflectors
p525
aVtilted
p526
aVtransverse
p527
aVisotropic
p528
aVreverse
p529
aVtime
p530
aVmigration
p531
aVangle
p532
aVgathers
p533
aVimplementation
p534
aVefficiency
p535
aVreflector
p536
aVimaging
p537
aVusing
p538
aVtrial
p539
aVreflector
p540
aVcrosscorrelation
p541
aVapplication
p542
aVfracture
p543
aVimaging
p544
aVsonic
p545
aVdata
p546
aVwave
p547
aVseismic
p548
aVillumination
p549
aVresolution
p550
aVanalyses
p551
aVpoynting
p552
aVvector
p553
aVbased
p554
aVmethod
p555
aVimaging
p556
aVdiffractors
p557
aVusing
p558
aVwave
p559
aVequation
p560
aVmigration
p561
aVattenuating
p562
aVmultiple
p563
aVrelated
p564
aVimaging
p565
aVartifacts
p566
aVusing
p567
aVcombined
p568
aVimaging
p569
aVconditions
p570
aVkinematic
p571
aVartifacts
p572
aVsubsurface
p573
aVoffset
p574
aVextended
p575
aVimage
p576
aVelimination
p577
aVdip
p578
aVdomain
p579
aVspecularity
p580
aVfilter
p581
aVsquares
p582
aVreverse
p583
aVtime
p584
aVmigration
p585
aVpresence
p586
aVdensity
p587
aVvariations
p588
aVreverse
p589
aVtime
p590
aVmigration
p591
aVangle
p592
aVgathers
p593
aVusing
p594
aVpoynting
p595
aVvectors
p596
aVlaboratory
p597
aVevidence
p598
aVkrauklis
p599
aVwave
p600
aVresonance
p601
aVfractures
p602
aVimplications
p603
aVseismic
p604
aVcoda
p605
aVwave
p606
aVanalysis
p607
aVsplitting
p608
aValgorithms
p609
aVhigh
p610
aVorder
p611
aVcompact
p612
aVfinite
p613
aVdifference
p614
aVschemes
p615
aVwave
p616
aVequation
p617
aVmodeling
p618
aVexact
p619
aVwavefield
p620
aVreconstruction
p621
aVfinite
p622
aVdifference
p623
aVgrids
p624
aVminimal
p625
aVmemory
p626
aVrequirements
p627
aVimproved
p628
aVimmersed
p629
aVboundary
p630
aVfinite
p631
aVdifference
p632
aVmethod
p633
aVseismic
p634
aVwave
p635
aVpropagation
p636
aVmodeling
p637
aVarbitrary
p638
aVsurface
p639
aVtopography
p640
aVcomplementarity
p641
aVh
p642
aVv
p643
aVdispersion
p644
aVcurves
p645
aVmodeling
p646
aVfrequency
p647
aVdomain
p648
aVelastic
p649
aVwave
p650
aVequation
p651
aVaverage
p652
aVderivative
p653
aVoptimal
p654
aVmethod
p655
aVp
p656
aVwave
p657
aVenergy
p658
aVflux
p659
aVdensity
p660
aVvectors
p661
aVnonhyperbolic
p662
aVstretch
p663
aVfree
p664
aVnormal
p665
aVmoveout
p666
aVcorrection
p667
aVsimple
p668
aVmethod
p669
aVinspired
p670
aVempirical
p671
aVmode
p672
aVdecomposition
p673
aVdenoising
p674
aVseismic
p675
aVdata
p676
aVoptimizing
p677
aVnear
p678
aVorthogonal
p679
aVair
p680
aVgun
p681
aVfiring
p682
aVsequences
p683
aVmarine
p684
aVsimultaneous
p685
aVsource
p686
aVseparation
p687
aVasymmetric
p688
aVchirplet
p689
aVtransform
p690
aV2
p691
aVphase
p692
aVfrequency
p693
aVchirp
p694
aVrate
p695
a.