(lp0
VCanada
p1
aVCanada
p2
aVUK
p3
aVChina
p4
aVAustralia
p5
aVUSA
p6
aVUSA
p7
aVUSA
p8
aVUSA
p9
aVUSA
p10
aVUSA
p11
aVThailand
p12
aVUSA
p13
aVRussia
p14
aVUSA
p15
aVAustralia
p16
aVCanada
p17
aVCanada
p18
aVAustralia
p19
aVAustralia
p20
aVAustralia
p21
aVAustralia
p22
aVAustralia
p23
aVNorway
p24
aVChina
p25
aVChina
p26
aVChina
p27
aVChina
p28
aVUSA
p29
aVUSA
p30
aVNorway
p31
aVUSA
p32
aVChina
p33
aVUSA
p34
aVChina
p35
aVUSA
p36
aVUSA
p37
aVUSA
p38
aVUSA
p39
aVSingapore
p40
aVNorway
p41
aVNorway
p42
aVBrazil
p43
aVCanada
p44
aVCanada
p45
aVCanada
p46
aVGermany
p47
aVFrance
p48
aVFrance
p49
aVJapan
p50
aVJapan
p51
aVJapan
p52
aVJapan
p53
aVJapan
p54
aVThe Netherlands
p55
aVThe Netherlands
p56
aVThe Netherlands
p57
aVJapan
p58
aVSweden
p59
aVSweden
p60
aVSweden
p61
aVThe Netherlands
p62
aVUSA
p63
aVSouth Korea
p64
aVUSA
p65
aVUSA
p66
aVAustralia
p67
aVUSA
p68
aVChina
p69
aVChina
p70
aVChina
p71
aVChina
p72
aVChina
p73
aVSouth Africa
p74
aVTurkey
p75
aVTurkey
p76
aVGermany
p77
aVGermany
p78
aVCzech Republic
p79
aVUSA
p80
aVSaudi Arabia
p81
aVUSA
p82
aVUSA
p83
aVThe Netherlands
p84
aVThe Netherlands
p85
aVSouth Korea
p86
aVSouth Korea
p87
aVSouth Korea
p88
aVUK
p89
aVDenmark
p90
aVDenmark
p91
aVDenmark
p92
aVChina
p93
aVUSA
p94
aVChina
p95
aVChina
p96
aVUSA
p97
aVChina
p98
aVBrazil
p99
aVBrazil
p100
aVBrazil
p101
aVBrazil
p102
aVUK
p103
aVSaudi Arabia
p104
aVUK
p105
aVUK
p106
aVChina
p107
aVCanada
p108
aVCanada
p109
aVCanada
p110
aVNorway
p111
aVSaudi Arabia
p112
aVChina
p113
aVChina
p114
aVChina
p115
aVChina
p116
aVCanada
p117
aVChina
p118
aVUK
p119
aVUSA
p120
aVUK
p121
aVSingapore
p122
a.