(lp0
Vinstructions
p1
aVauthors
p2
aVissue
p3
aVgeophysics
p4
aVregional
p5
aVseismicity
p6
aVpotential
p7
aVpitfall
p8
aVidentification
p9
aVlong
p10
aVperiod
p11
aVlong
p12
aVduration
p13
aVevents
p14
aVinternal
p15
aVmultiple
p16
aVprediction
p17
aVremoval
p18
aVusing
p19
aVmarchenko
p20
aVautofocusing
p21
aVseismic
p22
aVinterferometry
p23
aVeliminating
p24
aVazimuth
p25
aVambiguity
p26
aVsingle
p27
aVimaging
p28
aVusing
p29
aV3c
p30
aVsonic
p31
aVdata
p32
aVrobust
p33
aVexperimental
p34
aVdetermination
p35
aVthomsen
p36
aVparameter
p37
aVelectrical
p38
aVresistivity
p39
aVimaging
p40
aVlong
p41
aVterm
p42
aVautonomous
p43
aVmonitoring
p44
aVhydrocarbon
p45
aVdegradation
p46
aVlessons
p47
aVdeepwater
p48
aVhorizon
p49
aVoil
p50
aVspill
p51
aVshear
p52
aVwave
p53
aVgroup
p54
aVvelocity
p55
aVsurfaces
p56
aVlow
p57
aVsymmetry
p58
aVanisotropic
p59
aVmedia
p60
aVlinking
p61
aVpreferred
p62
aVorientations
p63
aVelastic
p64
aVanisotropy
p65
aVmuderong
p66
aVshale
p67
aVaustralia
p68
aVazimuthal
p69
aVamplitude
p70
aVvariation
p71
aVoffset
p72
aVanalysis
p73
aVphysical
p74
aVmodeling
p75
aVdata
p76
aVacquired
p77
aVazimuthally
p78
aVanisotropic
p79
aVmedium
p80
aVprediction
p81
aVsonic
p82
aVvelocities
p83
aVshale
p84
aVporosity
p85
aVclay
p86
aVfraction
p87
aVobtained
p88
aVlogs
p89
aVnorth
p90
aVsea
p91
aVcase
p92
aVstudy
p93
aVdetermination
p94
aVnuclear
p95
aVmagnetic
p96
aVresonance
p97
aVt2
p98
aVcutoff
p99
aVvalue
p100
aVbased
p101
aVmultifractal
p102
aVtheory
p103
aVapplication
p104
aVsandstone
p105
aVcomplex
p106
aVpore
p107
aVstructure
p108
aVelastic
p109
aVanisotropy
p110
aVmiddle
p111
aVbakken
p112
aVformation
p113
aVdiffusional
p114
aVcoupling
p115
aVmicrofractures
p116
aVpore
p117
aVstructure
p118
aVimpact
p119
aVnuclear
p120
aVmagnetic
p121
aVresonance
p122
aVmeasurements
p123
aVmultiple
p124
aVporosity
p125
aVsystems
p126
aVpermeability
p127
aVvariation
p128
aVporosity
p129
aVpore
p130
aVspace
p131
aVgeometry
p132
aVcement
p133
aVtype
p134
aVcase
p135
aVhistory
p136
aVsn
p137
aVhvit
p138
aVfield
p139
aVbarents
p140
aVsea
p141
aVpore
p142
aVscale
p143
aVmodeling
p144
aVelastic
p145
aVwave
p146
aVpropagation
p147
aVcarbonate
p148
aVrocks
p149
aVdynamic
p150
aVeffective
p151
aVpressure
p152
aVcoefficient
p153
aVcalibration
p154
aVinvestigation
p155
aVborehole
p156
aVcross
p157
aVdipole
p158
aVflexural
p159
aVdispersion
p160
aVcrossover
p161
aVnumerical
p162
aVmodeling
p163
aVrock
p164
aVproperties
p165
aVsmectite
p166
aVooze
p167
aVrich
p168
aVclaystones
p169
aVprocedure
p170
aVcollecting
p171
aVelectromagnetic
p172
aVdata
p173
aVusing
p174
aVmultiple
p175
aVtransmitters
p176
aVreceivers
p177
aVcapable
p178
aVdeep
p179
aVfocused
p180
aVexploration
p181
aVinversion
p182
aVground
p183
aVconstant
p184
aVoffset
p185
aVloop
p186
aVloop
p187
aVelectromagnetic
p188
aVdata
p189
aVlarge
p190
aVrange
p191
aVinduction
p192
aVnumbers
p193
aVcharacteristics
p194
aVhorizontal
p195
aVcomponent
p196
aVrayleigh
p197
aVwaves
p198
aVmultimode
p199
aVanalysis
p200
aVsurface
p201
aVwaves
p202
aVcharacterization
p203
aVheterogeneous
p204
aVlandfill
p205
aVusing
p206
aVseismic
p207
aVelectrical
p208
aVresistivity
p209
aVdata
p210
aVdimensional
p211
aVshallow
p212
aVsoil
p213
aVprofiling
p214
aVusing
p215
aVtime
p216
aVdomain
p217
aVwaveform
p218
aVinversion
p219
aVjoint
p220
aVinversion
p221
aVseismic
p222
aVrefraction
p223
aVresistivity
p224
aVdata
p225
aVusing
p226
aVlayered
p227
aVmodels
p228
aVapplications
p229
aVgroundwater
p230
aVinvestigation
p231
aVelectromagnetic
p232
aVresponse
p233
aVlayered
p234
aVvertical
p235
aVtransverse
p236
aVisotropic
p237
aVmedium
p238
aVnew
p239
aVlook
p240
aVold
p241
aVproblem
p242
aVadvantages
p243
aVborehole
p244
aVvector
p245
aVgravity
p246
aVdensity
p247
aVimaging
p248
aVcurvature
p249
aVgeometric
p250
aVsurface
p251
aVcurvature
p252
aVgravity
p253
aVmagnetic
p254
aVanomalies
p255
aVsearchlights
p256
aVgravity
p257
aVmagnetics
p258
aVlocal
p259
aVlevel
p260
aVset
p261
aVmethod
p262
aV3d
p263
aVinversion
p264
aVgravity
p265
aVgradient
p266
aVdata
p267
aVfrequency
p268
aVtrend
p269
aVattribute
p270
aVanalysis
p271
aVstratigraphic
p272
aVdivision
p273
aVcorrelation
p274
aVusing
p275
aVanalytic
p276
aVsignal
p277
aVamplitude
p278
aVdetermine
p279
aVlocation
p280
aVdepth
p281
aVdikes
p282
aVmagnetic
p283
aVdata
p284
aVedge
p285
aVenhancement
p286
aVmagnetic
p287
aVdata
p288
aVusing
p289
aVfractional
p290
aVorder
p291
aVderivative
p292
aVfilters
p293
aVsimultaneous
p294
aVmicroseismic
p295
aVevent
p296
aVlocalization
p297
aVsource
p298
aVmechanism
p299
aVdetermination
p300
aVreservoir
p301
aVcharacterization
p302
aVbased
p303
aVonset
p304
aVtime
p305
aVlapse
p306
aVamplitude
p307
aVchanges
p308
aVamplitude
p309
aVphase
p310
aVversus
p311
aVangle
p312
aVelastic
p313
aVwide
p314
aVangle
p315
aVreflections
p316
aVp
p317
aVdomain
p318
aVstudying
p319
aVco2
p320
aVstorage
p321
aVambient
p322
aVnoise
p323
aVseismic
p324
aVinterferometry
p325
aVcombined
p326
aVnumerical
p327
aVfeasibility
p328
aVstudy
p329
aVfield
p330
aVdata
p331
aVexample
p332
aVketzin
p333
aVgermany
p334
aV3d
p335
aVlaplace
p336
aVdomain
p337
aVwaveform
p338
aVinversion
p339
aVusing
p340
aVlow
p341
aVfrequency
p342
aVtime
p343
aVdomain
p344
aVmodeling
p345
aValgorithm
p346
aV4d
p347
aVpropagated
p348
aVlayer
p349
aVbased
p350
aVinversion
p351
aVmonte
p352
aVcarlo
p353
aVreservoir
p354
aVanalysis
p355
aVcombining
p356
aVseismic
p357
aVreflection
p358
aVdata
p359
aVinformed
p360
aVpriors
p361
aVapproximate
p362
aVsolution
p363
aVnonlinear
p364
aVdouble
p365
aVscattering
p366
aVinversion
p367
aVtrue
p368
aVamplitude
p369
aVimaging
p370
aVwavefield
p371
aVtomography
p372
aVusing
p373
aVreverse
p374
aVtime
p375
aVmigration
p376
aVbackscattering
p377
aVways
p378
aVavoid
p379
aVstoring
p380
aVsource
p381
aVwavefield
p382
aVsnapshots
p383
aV2d
p384
aVelastic
p385
aVprestack
p386
aVreverse
p387
aVtime
p388
aVmigration
p389
aV3d
p390
aVweak
p391
aVdispersion
p392
aVreverse
p393
aVtime
p394
aVmigration
p395
aVusing
p396
aVstereo
p397
aVmodeling
p398
aVoperator
p399
aVreduction
p400
aVcrosstalk
p401
aVblended
p402
aVshot
p403
aVmigration
p404
aVtrue
p405
aVamplitude
p406
aVvector
p407
aVacoustic
p408
aVimaging
p409
aVapplication
p410
aVgaussian
p411
aVbeams
p412
aVhigher
p413
aVorder
p414
aVperfectly
p415
aVmatched
p416
aVlayer
p417
aVformulation
p418
aVfinite
p419
aVdifference
p420
aVtime
p421
aVdomain
p422
aVseismic
p423
aVwave
p424
aVmodeling
p425
aVacoustic
p426
aVelastic
p427
aVmodeling
p428
aVoptimal
p429
aVtime
p430
aVspace
p431
aVdomain
p432
aVstaggered
p433
aVgrid
p434
aVfinite
p435
aVdifference
p436
aVschemes
p437
aVtaxonomy
p438
aVq
p439
aVoffset
p440
aVmidpoint
p441
aVtraveltime
p442
aVpyramid
p443
aV3d
p444
aVtransversely
p445
aVisotropic
p446
aVmedia
p447
aVhorizontal
p448
aVsymmetry
p449
aVaxis
p450
aVefficient
p451
aVseismic
p452
aVmodeling
p453
aVviscoelastic
p454
aVisotropic
p455
aVmedia
p456
aVrobust
p457
aVreduced
p458
aVrank
p459
aVfiltering
p460
aVerratic
p461
aVseismic
p462
aVnoise
p463
aVattenuation
p464
aVadaptive
p465
aVprediction
p466
aVfiltering
p467
aVx
p468
aVdomain
p469
aVrandom
p470
aVnoise
p471
aVattenuation
p472
aVusing
p473
aVregularized
p474
aVnonstationary
p475
aVautoregression
p476
aVstable
p477
aVpractical
p478
aVimplementation
p479
aVsquares
p480
aVreverse
p481
aVtime
p482
aVmigration
p483
a.