(lp0
VU. K
p1
aVCanada
p2
aVChina
p3
aVChina
p4
aVAustralia
p5
aVAustralia
p6
aVAustralia
p7
aVFrance
p8
aVItaly
p9
aVFrance
p10
aVUSA
p11
aVUSA
p12
aVUSA
p13
aVUSA
p14
aVUSA
p15
aVUSA
p16
aVNew Zealand
p17
aVUSA
p18
aVNew Zealand
p19
aVUSA
p20
aVUSA
p21
aVUSA
p22
aVIran
p23
aVUSA
p24
aVUSA
p25
aVUSA
p26
aVUSA
p27
aVUSA
p28
aVUSA
p29
aVCanada
p30
aVThe Netherlands
p31
aVUSA
p32
aVUSA
p33
aVUSA
p34
aVUSA
p35
aVUSA
p36
aVCanada
p37
aVSwitzerland
p38
aVUSA
p39
aVSwitzerland
p40
aVFrance
p41
aVFrance
p42
aVU. K
p43
aVCanada
p44
aVAustralia
p45
aVNorway
p46
aVBrazil
p47
aVUSA
p48
aVCanada
p49
aVUSA
p50
aVUSA
p51
aVUSA
p52
aVUSA
p53
aVNorway
p54
aVSaudi Arabia
p55
aVThe Netherlands
p56
aVJapan
p57
aVJapan
p58
aVThe Netherlands
p59
aVNorway
p60
aVCanada
p61
aVThe Netherlands
p62
aVThe Netherlands
p63
aVCanada
p64
aVBrazil
p65
aVBrazil
p66
aVBrazil
p67
aVBrazil
p68
aVUK
p69
aVCanada
p70
aVUSA
p71
aVThe Netherlands
p72
aVThe Netherlands
p73
aVThe Netherlands
p74
aVChina
p75
aVUSA
p76
aVUSA
p77
aVFrance
p78
aVBrazil
p79
aVNorway
p80
aVBrazil
p81
aVUSA
p82
aVUSA
p83
aVDenmark
p84
aVNorway
p85
aVAustralia
p86
aVUSA
p87
aVIndia
p88
aVU.S.A
p89
aVU.S.A
p90
aVPoland
p91
aVCanada
p92
aVCanada
p93
aVCanada
p94
aVCanada
p95
aVCanada
p96
aVCanada
p97
aVAustralia
p98
aVUSA
p99
aVCanada
p100
aVUSA
p101
aVUSA
p102
aVUSA
p103
aVAustralia
p104
aVFrance
p105
aVGermany
p106
aVUSA
p107
a.