(lp0
Vissue
p1
aVgeophysics
p2
aVtaper
p3
aVdesign
p4
aVblock
p5
aVprocessing
p6
aVseismic
p7
aVdata
p8
aVcombined
p9
aVsurface
p10
aVborehole
p11
aVseismic
p12
aVimaging
p13
aVhard
p14
aVrock
p15
aVterrain
p16
aVfield
p17
aVtest
p18
aVseismic
p19
aVinterferometry
p20
aVmineral
p21
aVexploration
p22
aVusing
p23
aVcsamt
p24
aVdata
p25
aVapplication
p26
aVlongmen
p27
aVregion
p28
aVmetallogenic
p29
aVbelt
p30
aVguangdong
p31
aVprovince
p32
aVchina
p33
aVtime
p34
aVlapse
p35
aVmagnetotelluric
p36
aVmonitoring
p37
aVenhanced
p38
aVgeothermal
p39
aVlocalizing
p40
aVco2
p41
aVsleipner
p42
aVseismic
p43
aVimages
p44
aVversus
p45
aVp
p46
aVwave
p47
aVvelocities
p48
aVwaveform
p49
aVinversion
p50
aVconvolutional
p51
aVtime
p52
aVlapse
p53
aVseismic
p54
aVmodeling
p55
aVco2
p56
aVsequestration
p57
aVdickman
p58
aVoilfield
p59
aVness
p60
aVcounty
p61
aVkansas
p62
aVnoncontacting
p63
aVbenchtop
p64
aVmeasurements
p65
aVelastic
p66
aVproperties
p67
aVshales
p68
aVevaluation
p69
aVknown
p70
aVboundary
p71
aVresistivity
p72
aVconstraints
p73
aVimproving
p74
aVcross
p75
aVborehole
p76
aVdc
p77
aVelectrical
p78
aVresistivity
p79
aVimaging
p80
aVdiscrete
p81
aVfractures
p82
aVfracture
p83
aVparameter
p84
aVestimation
p85
aVlog
p86
aVdata
p87
aVeffect
p88
aVconfining
p89
aVpressure
p90
aVelastic
p91
aVwave
p92
aVvelocities
p93
aVdynamic
p94
aVstatic
p95
aVyoung
p96
aVmodulus
p97
aVratio
p98
aVapproach
p99
aVpredicting
p100
aVstress
p101
aVinduced
p102
aVanisotropy
p103
aVborehole
p104
aVfast
p105
aVmodeling
p106
aVborehole
p107
aVneutron
p108
aVporosity
p109
aVmeasurements
p110
aVnew
p111
aVspatial
p112
aVtransport
p113
aVdiffusion
p114
aVapproximation
p115
aVcharacterization
p116
aVelastic
p117
aVproperties
p118
aVnear
p119
aVsurface
p120
aVsubsurface
p121
aVdeepwater
p122
aVhydrate
p123
aVbearing
p124
aVsediments
p125
aVuse
p126
aVwavelet
p127
aVtransforms
p128
aVimproved
p129
aVinterpretation
p130
aVairborne
p131
aVtransient
p132
aVelectromagnetic
p133
aVdata
p134
aVdenoising
p135
aVmulticomponent
p136
aVcsem
p137
aVdata
p138
aVequivalent
p139
aVsource
p140
aVprocessing
p141
aVtechniques
p142
aVelectromagnetic
p143
aVinterferometry
p144
aVwavenumber
p145
aVspace
p146
aVdomains
p147
aVlayered
p148
aVearth
p149
aVusing
p150
aVisostatic
p151
aVgravity
p152
aVanomalies
p153
aVspherical
p154
aVharmonic
p155
aVmodels
p156
aVelastic
p157
aVplate
p158
aVcompensation
p159
aVinterpret
p160
aVlithosphere
p161
aVbolivian
p162
aVandes
p163
aVdynamics
p164
aVnavigation
p165
aVautonomous
p166
aVunderwater
p167
aVvehicles
p168
aVsubmarine
p169
aVgravity
p170
aVsurveying
p171
aVforward
p172
aVmodeling
p173
aVgravity
p174
aVdata
p175
aVusing
p176
aVfinite
p177
aVvolume
p178
aVfinite
p179
aVelement
p180
aVmethods
p181
aVunstructured
p182
aVgrids
p183
aVstructure
p184
aVcoupled
p185
aVjoint
p186
aVinversion
p187
aVgeophysical
p188
aVhydrological
p189
aVdata
p190
aVdeep
p191
aVtow
p192
aV3c
p193
aVmagnetic
p194
aVmeasurement
p195
aVsolutions
p196
aVcalibration
p197
aVinterpretation
p198
aVmitigating
p199
aVremanent
p200
aVmagnetization
p201
aVeffects
p202
aVmagnetic
p203
aVdata
p204
aVusing
p205
aVnormalized
p206
aVsource
p207
aVstrength
p208
aVenhancement
p209
aVtotal
p210
aVhorizontal
p211
aVgradient
p212
aVmagnetic
p213
aVanomalies
p214
aVusing
p215
aVtilt
p216
aVangle
p217
aVgeometrical
p218
aVconsiderations
p219
aVacquisition
p220
aVborehole
p221
aVinterferometric
p222
aVdata
p223
aVimaging
p224
aVnear
p225
aVvertical
p226
aVfeatures
p227
aVdesign
p228
aVfield
p229
aVexperiments
p230
aVanalytic
p231
aVsolutions
p232
aVjoint
p233
aVestimation
p234
aVmicroseismic
p235
aVevent
p236
aVlocations
p237
aVeffective
p238
aVvelocity
p239
aVmodel
p240
aVestimating
p241
aVbrown
p242
aVkorringa
p243
aVconstants
p244
aVfluid
p245
aVsubstitution
p246
aVmultimineralic
p247
aVrocks
p248
aVrelaxation
p249
aVshift
p250
aVrocks
p251
aVcontaining
p252
aVviscoelastic
p253
aVpore
p254
aVfluids
p255
aVanalysis
p256
aVavo
p257
aVinversion
p258
aVpostcritical
p259
aVoffsets
p260
aVhti
p261
aVmedia
p262
aVsingular
p263
aVvalue
p264
aVdecomposition
p265
aVanalysis
p266
aVsource
p267
aVillumination
p268
aVseismic
p269
aVinterferometry
p270
aVmultidimensional
p271
aVdeconvolution
p272
aVnew
p273
aVoptimization
p274
aVapproach
p275
aVsource
p276
aVencoding
p277
aVwaveform
p278
aVinversion
p279
aVrobust
p280
aVestimation
p281
aVprimaries
p282
aVsparse
p283
aVinversion
p284
aVnorm
p285
aVminimization
p286
aVmigration
p287
aVvelocity
p288
aVanalysis
p289
aVusing
p290
aVresidual
p291
aVdiffraction
p292
aVmoveout
p293
aVpoststack
p294
aVdepth
p295
aVdomain
p296
aVnonlinear
p297
aVscattering
p298
aVbased
p299
aVimaging
p300
aVelastic
p301
aVmedia
p302
aVtheory
p303
aVtheorems
p304
aVimaging
p305
aVconditions
p306
aVspatial
p307
aVsampling
p308
aVmigration
p309
aValiasing
p310
aVmigrated
p311
aVamplitudes
p312
aVapplication
p313
aVsobolev
p314
aVgradient
p315
aVtechniques
p316
aVpoint
p317
aVray
p318
aVtracing
p319
aVlocal
p320
aVtime
p321
aVstepping
p322
aVdiscontinuous
p323
aVgalerkin
p324
aVmethod
p325
aVwave
p326
aVpropagation
p327
aV3d
p328
aVheterogeneous
p329
aVmedia
p330
aVnoise
p331
aVreduction
p332
aVvector
p333
aVmedian
p334
aVfiltering
p335
aVgeophysical
p336
aVsignal
p337
aVprocessing
p338
aVusing
p339
aVsequential
p340
aVbayesian
p341
aVtechniques
p342
aVdouble
p343
aVbeamforming
p344
aVprocessing
p345
aVseismic
p346
aVprospecting
p347
aVcontext
p348
aVdynamic
p349
aVestimation
p350
aVreflectivity
p351
aVminimum
p352
aVdelay
p353
aVseismic
p354
aVtrace
p355
aVdecomposition
p356
aVbackus
p357
aVgilbert
p358
aVmethod
p359
aVminimum
p360
aVnorm
p361
aVsolution
p362
aVassessing
p363
aVuncertainty
p364
aVgeophysical
p365
aVproblems
p366
aVintroduction
p367
aVinterpretation
p368
aVself
p369
aVpotential
p370
aVanomaly
p371
aV2d
p372
aVinclined
p373
aVstructure
p374
aVusing
p375
aVfast
p376
aVsimulated
p377
aVannealing
p378
aVglobal
p379
aVoptimization
p380
aVinsight
p381
aVambiguity
p382
aVoptimal
p383
aVnonlinear
p384
aVdesign
p385
aVmarine
p386
aVborehole
p387
aVseismic
p388
aVsurveys
p389
aVuncertainty
p390
aVlayered
p391
aVmodels
p392
aVwide
p393
aVangle
p394
aVseismic
p395
aVdata
p396
aVuncertainty
p397
aVlinear
p398
aVearthquake
p399
aVsite
p400
aVamplification
p401
aVbayesian
p402
aVinversion
p403
aVsurface
p404
aVseismic
p405
aVdata
p406
aVtransdimensional
p407
aVinversion
p408
aVambient
p409
aVseismic
p410
aVnoise
p411
aV3d
p412
aVshear
p413
aVvelocity
p414
aVstructure
p415
aVtasmanian
p416
aVcrust
p417
aVtransdimensional
p418
aVuncertainty
p419
aVestimation
p420
aVdispersive
p421
aVseabed
p422
aVsediments
p423
aVglobal
p424
aVsensitivity
p425
aVanalysis
p426
aVcrosswell
p427
aVseismic
p428
aVneutron
p429
aVcapture
p430
aVmeasurements
p431
aVco2
p432
aVstorage
p433
aVprojects
p434
aVtransdimensional
p435
aVchange
p436
aVpoint
p437
aVmodeling
p438
aVtool
p439
aVinvestigate
p440
aVuncertainty
p441
aVapplied
p442
aVgeophysical
p443
aVinference
p444
aVexample
p445
aVusing
p446
aVborehole
p447
aVgeophysical
p448
aVlogs
p449
aVquantification
p450
aVuncertainty
p451
aVmultistage
p452
aVmultiparameter
p453
aVmodeling
p454
aVworkflow
p455
aVpore
p456
aVpressure
p457
aVgeophysical
p458
aVlogs
p459
a.