(lp0
Vn
p1
aVh
p2
aVr
p3
aVc
p4
aVl
p5
aVe
p6
ag2
ag6
aVe
p7
ag3
aVf
p8
aVg
p9
ag6
aVp
p10
ag2
ag4
ag10
ag3
aVv
p11
ag6
ag1
ag11
ag6
ag3
ag11
ag6
aVw
p12
ag8
ag5
ag5
ag6
ag4
ag2
ag1
ag4
ag5
ag3
ag4
ag5
ag6
ag1
ag2
aVu
p13
ag6
ag8
ag2
ag6
aVj
p14
ag13
ag3
ag1
ag5
ag1
ag1
ag6
ag4
ag10
ag3
ag4
ag6
ag1
aVg
p15
ag10
ag10
ag5
ag4
ag1
ag13
ag4
ag2
ag8
ag5
ag6
ag3
ag1
ag15
ag1
ag1
ag6
ag3
ag10
ag5
ag1
ag2
ag6
ag1
ag10
ag13
ag10
ag3
ag1
ag6
ag1
ag5
ag5
ag11
ag6
ag3
ag5
ag10
ag10
ag1
ag15
aVb
p16
ag5
ag4
aVk
p17
ag2
ag3
ag6
ag10
ag3
ag4
ag6
ag6
ag6
ag10
ag3
ag6
ag5
ag1
ag2
ag6
ag1
ag6
ag3
ag15
ag6
ag4
ag1
ag3
ag13
ag4
ag2
ag6
ag8
ag1
ag5
ag13
ag10
ag13
ag10
ag6
ag3
ag1
ag15
ag2
ag6
ag8
ag8
ag6
ag3
ag6
ag1
ag16
ag5
ag4
ag17
ag16
ag6
ag8
ag3
ag6
ag6
ag3
ag15
ag1
ag15
ag1
ag6
ag4
ag4
ag13
ag1
ag8
ag3
ag2
ag6
ag11
ag6
ag3
ag5
ag10
ag1
ag11
ag11
ag16
ag5
ag6
ag3
ag6
ag8
ag4
ag3
ag6
ag5
ag6
ag2
ag6
ag10
ag3
ag1
ag8
ag2
ag6
ag16
ag5
ag4
ag17
ag1
ag15
aVw
p18
ag2
ag5
ag6
ag10
ag6
ag3
ag1
ag15
ag10
ag3
ag1
ag2
ag6
ag6
ag15
ag1
ag8
ag16
ag5
ag4
ag17
ag1
ag15
ag10
ag6
ag3
ag8
ag6
ag1
ag1
ag6
ag1
ag10
ag5
ag4
ag12
ag10
ag3
ag10
ag6
ag6
ag2
ag6
ag15
ag1
ag1
aVn
p19
ag6
ag1
ag1
ag16
ag5
ag4
ag17
ag1
ag15
ag10
ag6
ag3
ag12
ag2
ag1
ag13
ag1
ag8
ag11
ag6
ag3
ag5
ag10
ag2
ag6
ag10
ag3
ag10
ag6
ag10
ag6
ag3
ag2
ag2
ag6
ag10
ag3
ag10
ag6
ag3
ag2
ag15
ag15
ag3
ag6
ag15
ag6
ag13
ag4
ag3
ag2
ag6
ag6
ag4
ag1
ag1
ag6
ag2
ag13
ag8
ag5
ag4
ag10
ag13
ag1
ag1
ag1
ag3
ag5
aVz
p20
ag1
ag11
ag6
ag1
ag1
ag2
ag6
ag10
ag6
ag3
ag2
ag6
ag13
ag6
ag8
ag13
ag5
ag10
ag6
ag4
ag3
ag5
ag8
ag6
ag13
ag3
ag6
ag4
ag1
ag5
ag16
ag6
ag13
ag6
ag10
ag3
ag6
aVf
p21
ag13
ag3
ag6
ag3
ag3
ag1
ag8
ag3
ag1
ag10
ag6
ag3
ag12
ag2
ag6
ag1
ag2
ag6
ag10
ag3
ag4
ag6
ag1
ag15
ag1
ag11
ag5
ag11
ag6
ag13
ag4
ag2
ag3
ag1
ag8
ag3
ag1
ag6
ag4
ag15
ag6
ag3
ag6
ag1
ag2
ag6
ag3
ag6
ag1
ag5
ag3
ag6
ag4
ag1
ag5
ag5
ag16
ag6
ag16
ag2
ag6
ag13
ag3
ag4
ag6
ag3
ag6
ag4
ag6
ag11
ag6
ag3
ag15
ag6
ag6
ag3
ag2
ag3
ag6
ag4
ag1
ag5
ag16
ag10
ag3
ag4
ag13
ag5
ag3
ag5
ag10
ag3
ag16
ag5
ag6
ag4
ag8
ag3
ag6
ag4
ag15
ag1
ag15
ag1
ag2
ag3
ag3
ag4
ag17
ag6
ag3
ag3
ag1
ag12
ag2
ag6
ag3
ag6
ag3
ag13
ag4
ag13
ag3
ag5
ag10
ag2
ag11
ag6
ag1
ag3
ag6
ag1
ag1
ag12
ag2
ag3
ag6
ag10
ag6
ag4
ag2
ag6
ag13
ag3
ag8
ag4
ag6
aVw
p22
ag6
ag6
ag6
ag6
ag4
ag2
ag1
aVq
p23
ag13
ag6
ag8
ag3
ag10
ag3
ag5
ag5
ag15
ag1
ag15
ag3
ag6
ag4
ag1
ag5
ag16
ag16
ag4
ag16
ag1
ag1
ag15
ag13
ag3
ag8
ag4
ag6
ag1
ag16
ag3
ag6
ag2
ag5
ag6
ag6
ag4
ag1
ag6
ag11
ag5
ag13
ag6
ag2
ag6
ag3
ag6
ag13
ag5
ag8
ag8
ag3
ag8
ag6
ag5
ag6
ag8
ag2
ag6
ag6
ag4
ag2
ag1
ag23
ag13
ag6
ag1
ag2
ag6
ag4
ag2
ag1
ag23
ag13
ag6
ag13
ag3
ag8
ag4
ag6
ag4
ag23
ag13
ag3
ag6
ag13
ag1
ag15
ag1
ag3
aV2
p24
ag4
ag23
ag13
ag1
ag10
ag3
ag4
ag6
ag13
ag3
ag6
ag12
ag6
ag3
ag6
ag4
ag16
ag1
ag6
ag12
ag2
ag16
ag3
ag6
ag2
ag5
ag6
ag6
ag3
ag11
ag6
ag8
ag3
ag12
ag5
ag17
ag12
ag11
ag6
ag3
ag4
ag5
ag6
ag4
ag10
ag3
ag8
ag5
ag6
aVv
p25
aVp
p26
ag2
ag6
aVv
p27
aVp
p28
ag12
ag6
ag3
ag6
ag3
ag1
ag8
ag3
ag6
ag1
ag2
ag6
ag16
ag3
ag6
ag2
ag5
ag6
ag13
ag13
ag1
ag15
ag6
ag4
ag1
ag6
ag3
ag8
ag6
ag3
ag6
ag3
ag2
ag6
ag1
ag6
ag3
ag8
ag6
ag3
ag6
ag3
ag4
ag3
ag6
ag6
ag11
ag3
ag13
ag5
ag2
ag3
ag6
ag4
ag3
ag4
ag10
ag3
ag1
ag15
ag13
ag3
ag4
ag6
ag1
ag3
ag6
ag4
ag6
ag11
ag6
ag3
ag1
ag2
ag6
ag16
ag3
ag6
ag2
ag5
ag6
ag2
ag6
ag11
ag3
ag13
ag5
ag2
ag3
ag6
ag4
ag3
ag12
ag6
ag3
ag6
ag2
ag6
ag1
ag10
ag3
ag4
ag6
ag6
ag13
ag1
ag15
ag1
ag3
ag4
ag1
ag10
ag1
ag6
ag4
ag2
ag1
ag23
ag13
ag6
ag3
ag6
ag13
ag5
ag1
ag15
ag1
ag1
ag15
ag6
ag8
ag3
ag2
ag6
ag16
ag3
ag6
ag2
ag5
ag6
ag13
ag2
ag6
ag4
ag16
ag1
ag1
ag8
ag2
ag6
ag13
ag3
ag8
ag4
ag6
ag1
ag16
ag3
ag6
ag2
ag5
ag6
ag1
ag4
ag3
ag6
ag6
ag2
ag6
ag3
ag1
ag15
ag6
ag8
ag5
ag5
ag13
ag1
ag1
ag1
ag15
ag5
ag6
ag3
ag4
ag1
ag3
ag5
ag5
ag6
ag13
ag3
ag4
ag6
ag13
ag8
ag3
ag6
ag23
ag13
ag6
ag1
ag4
ag15
ag1
ag6
ag6
ag5
ag5
ag13
ag3
ag4
aVc
p29
ag13
ag3
ag11
ag6
ag2
ag16
ag6
ag6
ag1
ag4
ag3
ag3
ag6
ag13
ag1
ag11
ag6
ag15
ag6
ag10
ag6
ag1
ag5
ag3
ag1
aVf
p30
ag6
ag1
ag10
ag5
ag6
ag5
ag5
ag4
aVp
p31
ag16
aVz
p32
ag1
aVc
p33
ag13
ag6
ag10
ag1
aVl
p34
ag1
ag15
ag6
ag1
ag3
ag6
ag15
ag1
ag12
ag2
ag4
ag2
ag1
ag6
ag8
ag2
ag6
ag1
ag6
ag5
ag5
ag15
ag6
ag1
ag4
ag16
ag6
ag5
ag1
ag13
ag2
ag6
ag3
ag1
aVc
p35
ag2
ag1
aVc
p36
ag1
ag13
ag4
ag1
ag15
ag15
ag6
ag10
ag2
ag4
ag5
ag13
ag3
ag11
ag6
ag1
ag2
ag3
ag6
ag23
ag13
ag6
ag8
ag8
ag4
ag13
ag5
ag13
ag6
ag13
ag1
ag1
ag13
ag6
ag3
ag3
ag1
ag6
ag1
ag6
ag8
ag3
ag6
ag1
ag2
ag4
ag17
ag11
ag6
ag15
ag6
ag1
ag4
ag11
ag6
ag3
ag5
ag8
aV5
p37
aV6
p38
aV0
p39
aVc
p40
ag13
ag1
ag1
ag15
ag12
ag6
ag3
ag6
ag3
ag6
ag4
ag3
ag6
ag5
ag1
ag15
ag12
ag6
ag5
ag11
ag6
ag13
ag3
ag11
ag6
ag1
ag15
ag5
ag1
ag6
ag12
ag6
ag1
ag1
ag5
ag4
ag4
ag1
ag11
ag6
ag3
ag1
ag4
ag2
ag6
ag6
ag12
ag13
ag6
ag1
ag6
ag3
ag10
ag3
ag6
ag2
ag6
ag6
aVc
p41
ag2
ag6
ag3
ag6
ag13
ag5
ag1
ag15
ag6
ag5
ag6
ag4
ag3
ag4
ag3
ag6
ag11
ag6
ag5
ag2
ag12
ag6
ag2
ag2
ag3
ag6
ag6
ag5
ag3
ag15
ag6
ag4
ag5
ag6
ag2
ag15
ag2
ag5
ag4
ag1
ag13
ag4
ag11
ag6
ag16
ag6
ag6
aVx
p42
ag12
ag2
ag1
ag2
ag6
ag13
ag3
ag11
ag6
ag1
ag15
ag3
ag6
aVb
p43
ag1
ag6
ag15
ag3
ag6
ag1
ag6
ag3
ag10
ag3
ag6
ag1
ag4
ag16
ag1
ag6
ag12
ag2
ag11
ag5
ag16
ag5
ag6
ag15
ag6
ag5
ag15
ag4
ag15
ag6
ag10
ag2
ag4
ag5
ag1
ag15
ag6
ag4
ag2
ag6
ag4
ag5
ag1
ag2
ag3
ag6
ag2
ag3
ag6
ag6
ag10
ag3
ag10
ag6
ag4
ag11
ag6
ag1
ag6
ag3
ag5
ag6
ag10
ag12
ag6
ag3
ag6
ag6
ag3
ag4
ag6
aVb
p44
ag6
ag1
ag2
ag6
aVc
p45
ag3
ag6
ag13
ag5
ag16
ag3
ag6
ag2
ag5
ag6
ag10
ag6
ag1
ag6
ag3
ag1
ag15
ag10
ag10
ag3
ag42
ag6
ag5
ag24
ag37
ag39
ag6
ag10
ag2
ag12
ag3
ag5
ag5
ag6
ag2
ag6
ag5
ag4
ag1
ag8
aV4
p46
aV7
p47
ag39
ag2
ag6
ag1
ag3
ag2
ag12
ag6
ag6
ag1
ag8
ag5
ag1
ag6
ag39
ag38
ag6
ag8
ag1
ag6
ag12
ag2
ag11
ag6
ag10
ag3
ag6
ag8
ag3
ag2
ag6
ag6
aVr
p48
ag6
ag5
ag20
ag1
ag8
ag6
ag1
ag2
ag1
ag4
ag6
ag15
ag6
ag2
ag6
ag3
ag5
ag6
aVe
p49
aVg
p50
ag10
ag3
ag6
ag4
ag3
ag16
ag6
ag2
ag6
ag1
ag6
ag6
ag8
ag3
ag1
ag11
ag6
ag5
ag6
ag2
ag1
ag3
ag13
ag16
ag13
ag3
ag8
ag4
ag6
ag8
ag3
ag4
ag13
ag3
ag6
ag4
ag1
ag1
ag6
ag4
ag11
ag1
ag8
ag5
ag13
ag3
ag16
ag13
ag1
ag15
ag1
ag6
ag6
ag5
ag5
ag13
ag3
ag4
ag10
ag11
ag6
ag6
ag5
ag6
ag4
ag3
ag15
ag1
ag6
ag4
aVe
p51
ag6
ag2
ag6
ag1
ag11
ag6
ag6
ag5
ag6
ag4
ag3
ag4
ag5
ag4
ag1
ag13
ag4
ag11
ag4
ag1
ag3
ag8
ag13
ag1
ag4
ag1
ag8
ag6
ag10
ag2
ag10
ag6
ag4
ag8
ag4
ag5
ag5
ag2
ag5
ag1
ag6
ag8
ag5
ag13
ag1
ag3
ag6
ag11
ag6
ag10
ag3
ag13
ag6
ag1
aVj
p52
ag13
ag5
ag24
ag39
aV1
p53
ag53
ag1
aVe
p54
aVg
p55
ag8
ag5
ag13
ag1
ag14
ag6
ag4
ag1
aV3
p56
ag38
ag17
ag6
ag10
ag2
ag1
ag6
ag3
aVp
p57
ag3
ag5
ag1
ag13
ag2
ag13
ag3
ag5
ag12
ag1
ag3
ag6
ag16
ag4
ag10
ag3
ag1
ag15
ag3
ag6
ag10
ag6
ag6
ag13
ag3
ag11
ag6
ag16
ag6
ag8
ag3
ag6
ag1
ag8
ag6
ag3
ag2
ag3
ag13
ag5
ag4
ag13
ag5
ag1
ag1
ag16
ag6
ag3
ag11
ag16
ag5
ag6
ag4
ag2
ag6
ag3
ag6
ag1
ag4
ag2
ag1
ag15
ag6
ag16
ag11
ag6
ag6
ag13
ag3
ag6
ag6
ag1
ag6
ag3
ag3
ag3
ag1
ag2
ag6
ag3
ag6
ag10
ag1
ag6
ag12
ag10
ag3
ag6
ag6
ag1
ag1
ag4
ag13
ag5
ag1
ag2
ag11
ag3
ag1
ag1
ag10
ag2
ag6
ag10
ag3
ag6
ag4
ag11
ag3
ag1
ag1
ag10
ag10
ag3
ag6
ag1
ag3
ag6
ag11
aVp
p58
ag2
ag6
ag6
ag1
ag3
ag3
ag6
ag13
ag5
ag10
ag3
ag11
ag6
ag2
ag6
ag13
ag6
ag8
ag13
ag5
ag3
ag6
ag10
ag3
ag6
ag6
ag1
ag1
ag8
ag3
ag4
ag2
ag3
ag4
ag6
ag3
ag20
ag1
ag15
ag5
ag6
ag3
ag1
ag1
ag13
ag16
ag13
ag3
ag8
ag4
ag6
ag3
ag6
ag11
ag3
ag13
ag4
ag13
ag3
ag6
ag12
ag2
ag6
ag3
ag6
ag3
ag6
ag11
ag6
ag1
ag3
ag3
ag6
ag13
ag5
ag6
ag1
ag6
ag6
ag3
ag1
ag1
ag15
ag2
ag6
ag15
ag1
ag1
ag10
ag5
ag13
ag6
ag8
ag3
ag6
ag11
ag11
ag3
ag1
ag2
ag6
ag6
ag12
ag6
ag1
ag3
ag3
ag6
ag10
ag3
ag6
ag6
ag1
ag1
ag8
ag2
ag6
ag3
ag6
ag13
ag5
ag3
ag6
ag10
ag1
ag6
ag13
ag15
ag15
ag6
ag6
ag8
ag5
ag13
ag15
ag3
ag2
ag6
ag10
ag3
ag6
ag6
ag1
ag4
ag6
ag8
ag1
ag14
ag6
ag4
ag6
aVc
p59
ag24
ag1
ag2
ag6
aVu
p60
ag3
ag1
ag2
ag6
ag5
ag6
ag10
ag1
ag6
ag3
ag6
aVn
p61
ag3
ag12
ag4
ag6
ag12
ag2
ag2
ag15
ag2
ag1
ag6
ag15
ag11
ag6
aVp
p62
ag12
ag11
ag6
ag11
ag6
ag5
ag4
ag1
ag5
ag2
ag5
ag12
ag10
ag1
ag14
ag6
ag4
ag1
ag11
ag6
ag5
ag4
ag1
ag3
ag1
ag15
ag6
ag4
ag3
ag6
ag10
ag1
ag6
ag6
ag5
ag10
ag6
ag6
ag4
ag15
ag1
ag15
ag8
aVc
p63
ag24
ag1
ag14
ag6
ag4
ag1
ag5
ag6
ag10
ag1
ag6
ag3
ag2
ag13
ag11
ag16
ag5
ag6
ag1
ag3
ag1
ag15
ag5
ag8
ag2
ag6
ag1
ag14
ag6
ag4
ag6
aVc
p64
ag24
ag2
ag6
ag12
ag3
ag17
ag8
ag5
ag12
ag13
ag13
ag5
ag5
ag1
ag11
ag5
ag11
ag6
ag4
ag1
ag11
ag6
ag1
ag1
ag5
ag6
ag4
ag10
ag3
ag4
ag6
ag1
ag15
ag1
ag4
ag5
ag13
ag1
ag15
ag4
ag17
ag1
ag15
ag1
ag3
ag6
ag13
ag5
ag1
ag6
ag4
ag15
ag6
ag13
ag5
ag10
ag5
ag6
ag3
ag6
ag8
ag5
ag6
ag4
ag1
ag1
ag6
ag3
ag8
ag6
ag3
ag6
ag1
ag4
ag6
ag6
ag8
ag8
ag6
ag4
ag13
ag4
ag2
ag13
ag1
ag1
ag15
ag1
ag2
ag6
ag11
ag6
ag5
ag4
ag10
ag13
ag2
ag12
ag1
ag6
ag8
ag8
ag6
ag4
ag13
ag6
aVc
p65
ag24
ag1
ag14
ag6
ag4
ag1
ag3
ag6
ag1
ag6
ag3
ag2
ag6
ag6
ag6
ag4
ag15
ag6
ag16
ag15
ag13
ag13
ag1
ag6
ag3
ag8
ag2
ag6
ag5
ag4
ag5
ag20
ag1
ag1
ag2
ag6
ag23
ag13
ag1
ag8
ag4
ag1
ag8
ag2
ag6
aVc
p66
ag24
ag1
ag2
ag6
aVu
p67
ag3
ag1
aVn
p68
ag1
ag6
ag2
ag6
ag5
ag6
ag6
ag4
ag15
ag6
ag8
ag6
ag1
ag8
ag3
ag2
ag6
ag16
ag8
ag3
ag1
ag5
ag6
ag2
ag23
ag13
ag1
ag8
ag2
ag6
ag1
ag14
ag6
ag4
ag6
aVc
p69
ag24
aVw
p70
ag6
ag6
ag10
ag5
ag6
ag6
ag5
ag4
ag24
ag8
ag13
ag5
ag5
ag12
ag11
ag6
ag8
ag3
ag1
ag11
ag6
ag3
ag1
ag1
ag11
ag6
ag3
ag10
ag3
ag6
ag4
ag17
ag6
ag4
ag5
ag6
ag10
ag1
ag6
ag3
ag8
ag3
ag10
ag3
ag6
ag1
ag14
ag6
ag4
ag1
ag53
aV9
p71
ag71
ag46
ag1
ag10
ag1
ag14
ag6
ag4
ag1
ag53
ag71
ag71
ag71
ag1
ag4
ag10
ag3
ag6
ag2
ag6
ag3
ag6
ag13
ag5
ag1
ag15
ag10
ag1
ag14
ag6
ag4
ag1
aVp
p72
ag12
ag11
ag6
ag11
ag6
ag5
ag4
ag6
ag5
ag12
ag2
ag2
ag6
ag4
ag3
ag3
ag6
ag10
ag1
ag1
ag15
ag6
ag4
ag15
ag6
aVw
p73
ag6
ag8
ag13
ag6
ag5
ag10
ag6
ag6
ag4
ag6
ag5
ag1
ag15
ag3
ag13
ag1
ag6
ag5
ag13
ag6
ag6
ag6
ag4
ag2
ag6
ag6
ag8
ag2
ag3
ag4
ag3
ag16
ag1
ag3
ag6
ag6
ag3
ag11
ag3
ag10
ag6
ag3
ag4
ag6
ag1
ag6
ag3
ag11
ag5
ag2
ag6
ag4
ag17
ag1
ag8
ag6
ag5
ag5
ag4
ag6
ag1
ag2
ag6
aVu
p74
ag4
ag1
ag1
ag6
ag1
ag10
ag3
ag11
ag6
ag12
ag10
ag16
ag5
ag6
aVc
p75
ag24
ag6
ag23
ag13
ag6
ag3
ag1
ag3
ag15
ag6
ag3
ag6
ag15
ag1
ag5
ag6
ag6
ag10
ag5
ag1
ag6
ag3
ag6
ag6
ag3
ag11
ag3
ag2
ag6
ag10
ag3
ag3
ag16
ag14
ag6
ag4
ag11
ag6
ag1
ag2
ag5
ag5
ag12
ag6
ag3
ag13
ag3
ag6
ag6
ag10
ag5
ag6
ag6
ag5
ag3
ag6
ag6
ag3
ag11
ag3
ag6
ag4
ag1
ag3
ag16
ag14
ag6
ag4
ag11
ag6
ag2
ag6
ag15
ag5
ag8
ag2
ag12
ag3
ag17
ag4
ag2
ag3
ag4
ag6
ag3
ag20
ag6
ag1
ag13
ag5
ag6
ag1
ag3
ag1
ag15
ag8
ag2
ag6
aVc
p76
ag24
ag11
ag6
ag6
ag1
ag16
ag6
ag8
ag3
ag6
ag13
ag3
ag1
ag15
ag1
ag8
ag6
ag3
ag1
ag14
ag6
ag4
ag1
ag1
ag2
ag6
ag6
ag6
ag23
ag13
ag6
ag3
ag1
ag3
ag15
ag6
ag1
ag4
ag5
ag13
ag1
ag15
ag8
ag5
ag13
ag8
ag5
ag12
ag10
ag2
ag3
ag6
ag6
ag3
ag11
ag3
ag10
ag3
ag10
ag6
ag3
ag4
ag2
ag1
ag15
ag6
aVc
p77
ag24
ag4
ag1
ag1
ag6
ag1
ag1
ag10
ag1
ag14
ag6
ag4
ag1
ag16
ag5
ag6
ag4
ag15
ag6
ag16
ag6
ag8
ag3
ag6
ag13
ag3
ag1
ag15
ag1
ag8
ag6
ag3
ag1
ag14
ag6
ag4
ag1
ag12
ag13
ag5
ag10
ag3
ag11
ag6
ag13
ag1
ag6
ag3
ag1
ag1
ag15
ag8
ag2
ag6
ag4
ag3
ag16
ag1
ag6
ag6
ag23
ag13
ag6
ag3
ag1
ag10
ag3
ag4
ag6
ag1
ag1
ag15
ag6
ag6
ag1
ag13
ag3
ag6
ag4
ag13
ag5
ag1
ag8
ag3
ag6
ag5
ag10
ag6
aVc
p78
ag24
ag1
ag3
ag1
ag15
ag12
ag16
ag6
ag1
ag8
ag5
ag12
ag13
ag5
ag3
ag13
ag10
ag13
ag11
ag6
ag3
ag24
ag37
ag39
ag6
ag3
ag1
ag14
ag6
ag4
ag1
ag1
ag13
ag5
ag1
ag10
ag6
ag3
ag2
ag6
ag6
ag4
ag3
ag6
ag10
ag1
ag6
ag12
ag4
ag4
ag10
ag5
ag2
ag6
ag11
ag4
ag1
ag11
ag5
ag13
ag1
ag5
ag53
ag8
ag3
ag12
ag3
ag6
ag5
ag1
ag15
ag2
ag12
ag3
ag17
ag12
ag5
ag5
ag10
ag3
ag11
ag6
ag1
ag6
ag11
ag5
ag13
ag1
ag8
ag3
ag2
ag6
ag6
ag8
aVw
p79
ag6
ag6
ag11
ag5
ag13
ag6
ag5
ag6
ag3
ag16
ag6
ag1
ag1
ag4
ag1
ag4
ag1
ag15
ag6
ag2
ag6
ag13
ag3
ag6
ag2
ag6
ag6
ag5
ag4
ag1
ag3
ag10
ag8
ag2
ag3
ag20
ag1
ag5
ag2
ag5
ag6
ag4
ag3
ag6
aVw
p80
ag2
ag6
ag3
ag6
ag4
ag1
ag11
ag6
ag1
ag1
ag5
ag3
ag1
ag13
ag4
ag6
ag3
ag4
ag1
ag1
ag6
ag1
ag16
ag15
ag13
ag16
ag6
ag12
ag6
ag6
ag1
ag10
ag2
ag6
ag1
ag15
ag3
ag13
ag10
ag11
ag6
ag5
ag4
ag6
ag13
ag3
ag6
ag6
ag1
ag5
ag5
ag5
ag6
ag3
ag13
ag3
ag4
ag6
ag1
ag3
ag6
ag4
ag6
ag11
ag6
ag3
ag8
ag10
ag3
ag1
ag1
ag10
ag4
ag5
ag4
ag3
ag6
ag10
ag5
ag6
ag6
ag1
ag13
ag3
ag6
ag15
ag3
ag13
ag10
ag11
ag6
ag5
ag4
ag1
ag8
ag3
ag1
ag1
ag13
ag3
ag5
ag16
ag3
ag3
ag6
ag13
ag3
ag6
ag6
ag1
aVw
p81
ag2
ag1
ag15
ag5
ag6
ag6
ag1
ag6
ag4
ag23
ag13
ag1
ag8
ag15
ag3
ag13
ag10
ag11
ag6
ag5
ag4
ag11
ag6
ag3
ag13
ag15
ag3
ag13
ag10
ag1
ag15
ag5
ag6
ag1
ag2
ag3
ag20
ag1
ag5
ag4
ag3
ag6
ag12
ag6
ag6
ag6
ag2
ag6
ag6
ag5
ag4
ag4
ag1
ag1
ag4
ag53
ag53
ag4
ag56
ag56
ag1
ag4
ag37
ag37
ag3
ag6
ag4
ag5
ag8
ag3
ag13
ag5
ag3
ag1
ag4
ag12
ag11
ag6
ag8
ag3
ag1
ag4
ag53
ag56
ag8
ag3
ag5
ag6
ag23
ag13
ag3
ag6
ag8
ag8
ag6
ag5
ag6
ag6
ag13
ag3
ag6
ag15
ag3
ag13
ag10
ag11
ag6
ag5
ag4
ag6
ag2
ag6
ag16
ag6
ag3
ag11
ag6
ag15
ag1
ag8
ag4
ag1
aVp
p82
ag12
ag11
ag6
ag11
ag6
ag5
ag4
ag1
ag6
ag1
ag13
ag1
ag1
ag3
ag10
ag1
ag2
ag6
ag6
ag3
ag2
ag5
ag6
ag12
ag6
ag3
ag6
ag5
ag13
ag3
ag6
ag5
ag6
ag42
ag15
ag15
ag6
ag3
ag6
ag16
ag6
ag5
ag1
ag1
ag8
ag4
ag5
ag10
ag5
ag6
ag5
ag6
ag1
ag4
ag3
ag8
ag3
ag4
ag13
ag3
ag1
ag15
ag16
ag13
ag10
ag3
ag11
ag6
ag1
ag5
ag5
ag13
ag3
ag1
ag8
ag2
ag6
ag1
ag6
ag12
ag5
ag16
ag3
ag3
ag6
ag13
ag3
ag6
ag6
ag1
ag6
ag4
ag2
ag1
ag23
ag13
ag6
ag5
ag2
ag13
ag15
ag2
ag4
ag2
ag5
ag5
ag6
ag1
ag15
ag6
ag5
ag2
ag6
ag6
ag13
ag3
ag6
ag10
ag3
ag6
ag6
ag3
ag11
ag6
ag2
ag5
ag6
ag1
ag13
ag4
ag1
ag1
ag1
ag2
ag6
ag5
ag16
ag12
ag6
ag6
ag11
ag5
ag13
ag6
ag2
ag6
ag8
ag13
ag1
ag6
ag1
ag5
ag11
ag1
ag15
ag6
ag8
ag2
ag6
ag10
ag3
ag10
ag6
ag6
ag2
ag11
ag6
ag3
ag2
ag6
ag3
ag6
ag1
ag6
ag6
ag16
ag6
ag6
ag3
ag4
ag2
ag3
ag4
ag6
ag3
ag20
ag6
ag4
ag3
ag6
ag6
ag8
ag3
ag4
ag13
ag3
ag6
ag1
ag4
ag1
ag1
ag6
ag2
ag3
ag3
ag4
ag17
ag23
ag13
ag8
ag6
ag3
ag6
ag6
ag3
ag1
ag6
ag2
ag6
ag8
ag6
ag8
ag3
ag6
ag6
ag1
ag1
ag14
ag6
ag4
ag1
ag12
ag8
ag3
ag16
ag3
ag6
ag2
ag5
ag6
ag1
ag5
ag6
ag11
ag5
ag13
ag6
ag2
ag3
ag13
ag5
ag4
ag8
ag3
ag4
ag13
ag3
ag1
ag15
ag10
ag6
ag3
ag8
ag3
ag1
ag4
ag6
ag1
ag2
ag6
ag4
ag4
ag3
ag16
ag3
ag6
ag2
ag5
ag6
ag6
ag5
ag6
ag4
ag3
ag4
ag5
ag3
ag6
ag11
ag13
ag12
ag4
ag1
ag13
ag4
ag6
ag13
ag1
ag15
ag4
ag3
ag6
ag6
ag8
ag3
ag4
ag13
ag3
ag6
ag6
ag5
ag8
ag1
ag6
ag42
ag1
ag15
ag4
ag1
ag1
ag6
ag6
ag12
ag2
ag17
ag1
ag12
ag1
ag8
ag3
ag4
ag13
ag3
ag6
ag5
ag4
ag1
aVf
p83
ag13
ag3
ag16
ag3
ag6
ag2
ag5
ag6
ag1
ag12
ag4
ag3
ag6
ag6
ag8
ag3
ag4
ag13
ag3
ag6
ag20
ag1
ag6
ag13
ag6
ag16
ag6
ag2
ag6
ag1
ag1
ag6
ag5
ag6
ag4
ag3
ag4
ag5
ag1
ag2
ag3
ag13
ag5
ag4
ag5
ag5
ag4
ag1
ag13
ag4
ag11
ag6
ag10
ag2
ag12
ag12
ag6
ag3
ag6
ag6
ag42
ag10
ag5
ag4
ag5
ag6
ag5
ag6
ag12
ag2
ag1
ag1
ag13
ag1
ag3
ag13
ag4
ag13
ag3
ag6
ag6
ag3
ag2
ag6
ag3
ag5
ag6
ag2
aVw
p84
ag6
ag8
ag3
ag6
ag11
ag5
ag13
ag6
ag8
ag8
ag6
ag3
ag6
ag1
ag3
ag6
ag15
ag13
ag5
ag3
ag20
ag1
ag4
ag1
ag3
ag1
ag3
ag1
ag15
ag12
ag2
ag1
ag13
ag1
ag1
ag8
ag3
ag6
ag2
ag1
ag6
ag4
ag1
ag3
ag1
ag6
ag1
ag11
ag6
ag3
ag1
ag12
ag2
ag4
ag2
ag10
ag3
ag3
ag1
ag8
ag3
ag1
ag12
ag1
ag4
ag3
ag6
ag6
ag1
ag5
ag5
ag6
aVw
p85
ag6
ag8
ag13
ag1
ag14
ag3
ag10
ag3
ag11
ag6
ag6
ag1
ag12
ag2
ag6
ag1
ag53
ag2
ag1
ag6
ag3
ag6
ag15
ag13
ag5
ag3
ag20
ag1
ag4
ag1
ag3
ag1
ag12
ag6
ag3
ag6
ag3
ag6
ag5
ag42
ag6
ag3
ag4
ag1
ag1
ag6
ag4
ag6
ag5
ag1
ag15
ag16
ag3
ag6
ag2
ag5
ag6
ag1
ag8
ag3
ag4
ag13
ag3
ag6
ag24
ag2
ag15
ag6
ag1
ag6
ag13
ag4
ag1
ag13
ag4
ag11
ag12
ag13
ag6
ag5
ag1
ag15
ag16
ag3
ag6
ag2
ag5
ag6
ag1
ag56
ag16
ag3
ag6
ag2
ag5
ag6
ag4
ag1
ag13
ag4
ag11
ag4
ag1
ag3
ag1
ag2
ag4
ag13
ag5
ag16
ag6
ag6
ag6
ag3
ag1
ag6
aVw
p86
ag6
ag6
ag11
ag5
ag13
ag6
ag6
ag2
ag8
ag6
ag3
ag11
ag1
ag15
ag6
ag4
ag8
ag3
ag4
ag13
ag3
ag6
ag10
ag3
ag6
ag6
ag3
ag8
ag3
ag11
ag6
ag3
ag4
ag5
ag12
ag6
ag5
ag5
ag5
ag15
ag12
ag2
ag2
ag6
ag13
ag10
ag1
ag2
ag2
ag6
ag8
ag3
ag4
ag13
ag3
ag6
ag6
ag13
ag3
ag1
ag11
ag6
ag3
ag6
ag5
ag3
ag10
ag4
ag12
ag2
ag2
ag3
ag20
ag1
ag5
ag42
ag8
ag6
ag3
aVh
p87
ag1
ag6
ag10
ag10
ag3
ag42
ag1
ag12
ag6
ag13
ag6
ag2
ag2
ag6
ag16
ag6
ag3
ag11
ag6
ag11
ag6
ag3
ag4
ag5
aVp
p88
ag12
ag11
ag6
ag11
ag6
ag5
ag4
ag2
ag6
ag6
ag2
ag6
ag16
ag4
ag17
ag15
ag3
ag13
ag1
ag3
ag10
ag4
aVp
p89
ag12
ag11
ag6
ag11
ag6
ag5
ag4
ag8
ag2
ag6
aVh
p90
ag6
ag13
ag1
ag2
ag6
ag3
ag13
ag10
ag1
ag12
ag2
ag2
ag6
ag8
ag3
ag4
ag13
ag3
ag6
ag1
ag4
ag3
ag4
ag17
ag3
ag6
ag1
ag1
ag1
ag6
ag3
ag4
ag11
ag6
ag1
ag10
ag6
ag1
ag1
ag2
ag10
ag6
aVu
p91
ag1
ag15
ag2
ag6
ag6
ag10
ag10
ag3
ag42
ag1
ag12
ag6
ag15
ag6
ag1
ag6
ag3
ag6
ag2
ag6
ag8
ag3
ag4
ag13
ag3
ag6
ag4
ag10
ag5
ag1
ag4
ag6
ag3
ag42
ag8
ag3
ag6
ag4
ag2
ag5
ag6
ag3
aVf
p92
ag3
ag4
ag13
ag3
ag6
ag10
ag3
ag6
ag6
ag3
ag12
ag6
ag3
ag6
ag2
ag6
ag1
ag6
ag3
ag11
ag6
ag16
ag4
ag1
ag3
ag13
ag4
ag1
ag15
ag2
ag6
aVh
p93
ag8
ag8
ag1
ag6
ag3
ag42
ag8
ag3
ag2
ag6
ag5
ag6
ag3
aVw
p94
ag6
ag6
ag6
ag13
ag3
ag6
ag2
ag13
ag1
ag15
ag11
ag6
ag3
ag4
ag5
ag12
ag6
ag5
ag5
ag5
ag15
ag8
ag3
ag15
ag2
ag1
ag3
ag6
ag6
ag3
ag11
ag3
ag1
aVc
p95
ag5
ag3
aVu
p96
ag2
ag6
ag1
ag5
ag6
ag10
ag3
ag6
ag6
ag3
ag12
ag6
ag3
ag6
ag6
ag3
ag11
ag6
ag1
ag15
ag8
ag5
ag5
ag6
ag8
ag3
ag4
ag13
ag3
ag6
ag12
ag6
ag3
ag6
ag6
ag1
ag8
ag6
ag1
ag2
ag5
ag15
ag2
ag6
ag6
ag1
ag8
ag6
ag15
ag8
ag5
ag5
ag6
ag8
ag3
ag4
ag13
ag3
ag6
ag12
ag6
ag3
ag6
ag4
ag10
ag3
ag6
ag2
ag6
ag10
ag3
ag13
ag4
ag1
ag5
ag15
ag2
ag6
ag8
ag3
ag4
ag13
ag3
ag6
ag6
ag1
ag12
ag5
ag16
ag1
ag6
ag2
ag6
ag12
ag6
ag5
ag5
ag5
ag4
ag1
ag12
ag2
ag1
ag2
ag6
ag6
ag10
ag2
ag8
ag1
ag6
ag3
ag6
aVw
p97
ag6
ag5
ag8
ag13
ag1
ag6
ag10
ag3
ag16
ag5
ag6
aVw
p98
ag6
ag4
ag3
ag3
ag6
ag13
ag5
ag16
ag3
ag3
ag6
ag42
ag10
ag6
ag3
ag6
ag1
ag13
ag1
ag6
ag3
ag3
ag4
ag1
ag1
ag1
ag5
ag6
ag1
ag6
ag4
ag3
ag6
ag10
ag6
ag4
ag6
ag1
ag8
ag3
ag11
ag17
ag8
ag3
ag1
ag16
ag1
ag6
ag8
ag3
ag1
ag5
ag12
ag6
ag5
ag5
ag1
ag2
ag6
ag13
ag2
ag12
ag6
ag8
ag3
ag1
ag13
ag3
ag16
ag14
ag6
ag4
ag11
ag6
ag12
ag13
ag2
ag6
ag6
ag8
ag8
ag6
ag4
ag8
ag4
ag1
ag8
ag1
ag1
ag15
ag10
ag3
ag6
ag13
ag3
ag6
ag1
ag2
ag6
ag4
ag10
ag3
ag6
ag1
ag5
ag1
ag2
ag6
ag3
ag12
ag11
ag6
ag11
ag6
ag5
ag4
ag6
aVv
p99
aVp
p100
aVv
p101
ag1
ag1
ag2
ag6
ag1
ag4
ag4
ag13
ag1
ag15
ag13
ag5
ag13
ag3
aVe
p102
aVe
p103
aVf
p104
ag13
ag3
ag2
ag6
ag3
ag3
ag6
ag12
ag6
ag6
ag6
ag10
ag10
ag3
ag6
ag4
aVv
p105
aVp
p106
ag1
aVv
p107
ag10
ag2
ag6
ag3
ag4
ag10
ag3
ag6
ag13
ag3
ag6
ag16
ag6
ag1
ag2
ag6
ag6
ag11
ag6
ag5
ag4
ag6
ag11
ag3
ag13
ag4
ag1
ag8
ag1
ag1
ag15
ag10
ag3
ag6
ag13
ag3
ag6
ag2
ag6
ag6
ag1
ag5
ag6
ag3
ag6
ag11
ag6
ag5
ag6
ag2
ag16
ag6
ag5
ag12
ag4
ag3
ag4
ag5
ag10
ag3
ag6
ag13
ag3
ag6
ag12
ag2
ag1
ag1
ag4
ag3
ag6
ag6
ag1
ag4
ag1
ag8
ag1
ag6
ag6
ag1
aVv
p108
aVp
p109
ag1
aVv
p110
ag1
ag4
ag3
ag6
ag6
ag6
ag42
ag10
ag1
ag6
ag1
ag5
ag5
ag3
ag6
ag10
ag3
ag6
ag6
ag1
ag1
ag15
ag10
ag3
ag6
ag5
ag4
ag3
ag6
ag15
ag6
ag16
ag11
ag6
ag4
ag3
ag4
ag5
ag10
ag3
ag6
ag13
ag3
ag6
ag2
ag12
ag6
ag11
ag6
ag3
ag2
ag6
ag3
ag6
ag1
ag12
ag5
ag1
ag6
ag3
aVl
p111
ag17
ag6
ag12
ag6
ag12
ag6
ag16
ag6
ag3
ag11
ag6
ag2
ag12
ag2
ag1
ag1
ag4
ag3
ag6
ag6
ag1
ag4
ag1
ag8
ag1
ag6
ag6
ag1
aVe
p112
aVe
p113
ag1
ag5
ag5
ag6
ag4
ag3
ag6
ag6
ag6
ag42
ag10
ag1
ag6
ag1
ag5
ag5
ag8
ag5
ag5
ag12
ag6
ag16
ag5
ag1
ag6
ag3
ag6
ag4
ag3
ag6
ag1
ag15
ag3
ag6
ag1
ag16
ag11
ag6
ag2
ag6
ag4
ag3
ag4
ag5
ag10
ag3
ag6
ag13
ag3
ag6
ag2
ag1
ag4
ag6
ag2
aVe
p114
ag3
ag6
ag3
ag6
ag10
ag1
ag11
ag6
ag2
ag1
aVe
p115
ag4
ag4
ag3
ag1
ag15
ag5
ag2
ag6
ag6
ag16
ag6
ag3
ag11
ag1
ag1
ag8
ag6
ag3
ag2
ag10
ag16
ag5
ag6
ag10
ag3
ag6
ag4
aVe
p116
ag16
ag6
ag1
aVe
p117
ag8
ag8
ag6
ag3
ag6
ag1
ag4
ag1
ag8
ag1
ag1
aVf
p118
ag3
ag1
ag6
ag5
ag4
ag10
ag3
ag10
ag6
ag3
ag6
ag1
ag6
ag3
ag16
ag3
ag6
ag2
ag5
ag6
ag16
ag6
ag5
ag6
ag3
ag6
ag8
ag3
ag2
ag6
ag3
ag3
ag15
ag1
ag5
ag6
ag13
ag6
ag2
ag6
ag3
ag6
ag4
ag1
ag4
ag6
ag1
ag3
ag1
ag3
ag13
ag1
ag2
ag6
ag16
ag3
ag6
ag2
ag5
ag6
ag2
ag4
ag13
ag5
ag3
ag6
ag13
ag5
ag1
ag16
ag6
ag6
ag1
ag8
ag8
ag3
ag1
ag10
ag3
ag10
ag6
ag3
ag6
ag16
ag13
ag4
ag13
ag5
ag10
ag3
ag11
ag6
ag6
ag1
ag6
ag6
ag1
ag13
ag3
ag6
ag8
ag3
ag1
ag4
ag5
ag15
ag15
ag1
ag15
ag10
ag3
ag10
ag6
ag3
ag5
ag4
ag4
ag13
ag1
ag8
ag3
ag2
ag6
ag8
ag3
ag1
ag10
ag3
ag10
ag6
ag3
ag5
ag6
ag3
ag1
ag12
ag6
ag10
ag3
ag10
ag6
ag1
ag6
ag3
ag11
ag6
ag1
ag13
ag6
ag3
ag4
ag5
ag10
ag10
ag3
ag4
ag2
ag4
ag5
ag4
ag13
ag5
ag6
ag3
ag6
ag1
ag13
ag4
ag6
ag1
ag3
ag10
ag3
ag13
ag1
ag16
ag3
ag6
ag2
ag5
ag6
ag16
ag4
ag16
ag1
ag1
ag15
ag3
ag4
ag17
ag10
ag2
ag4
ag6
ag5
ag1
ag8
ag1
ag6
ag6
ag5
ag6
ag6
ag1
ag6
ag2
aVw
p119
ag6
ag6
ag6
ag2
ag6
ag11
ag5
ag1
ag4
ag4
ag13
ag3
ag4
ag8
ag13
ag3
ag10
ag10
ag3
ag4
ag2
ag16
ag4
ag10
ag3
ag1
ag15
ag1
ag13
ag6
ag3
ag4
ag5
ag3
ag6
ag13
ag5
ag5
ag16
ag3
ag3
ag6
ag13
ag3
ag6
ag6
ag1
ag8
ag2
ag6
ag3
ag6
ag3
ag1
ag3
ag6
ag5
ag1
ag8
ag10
ag5
ag6
ag8
aVb
p120
ag6
ag3
ag6
ag1
ag1
ag6
ag12
ag2
ag4
ag2
ag4
ag1
ag1
ag16
ag3
ag6
ag2
ag5
ag6
ag1
ag13
ag16
ag14
ag6
ag4
ag6
ag13
ag1
ag42
ag5
ag3
ag6
ag5
ag1
ag15
ag13
ag3
ag6
ag3
ag11
ag6
ag10
ag10
ag3
ag4
ag2
ag4
ag1
ag11
ag6
ag3
ag15
ag6
ag11
ag6
ag3
ag8
ag1
ag4
ag1
ag16
ag6
ag10
ag10
ag5
ag6
ag4
ag5
ag4
ag13
ag5
ag6
ag2
ag6
ag10
ag5
ag5
ag11
ag3
ag1
ag15
ag8
ag8
ag1
ag6
ag6
ag1
ag3
ag8
ag2
ag6
ag8
ag3
ag1
ag3
ag13
ag1
ag16
ag3
ag6
ag2
ag5
ag6
ag8
ag3
ag1
ag15
ag11
ag6
ag1
ag3
ag6
ag6
ag2
ag6
ag23
ag13
ag1
ag11
ag6
ag1
ag6
ag15
ag3
ag1
ag8
ag1
ag13
ag4
ag5
ag6
ag3
ag6
ag13
ag3
ag6
ag6
ag1
ag1
ag2
ag6
ag1
ag13
ag10
ag6
ag3
ag10
ag2
ag4
ag5
ag1
ag15
ag6
ag10
ag2
ag4
ag5
ag6
ag11
ag5
ag13
ag1
ag8
ag3
ag4
ag17
ag8
ag3
ag1
ag2
ag16
ag6
ag6
ag1
ag6
ag5
ag13
ag11
ag6
ag16
ag6
ag4
ag13
ag6
ag8
ag2
ag6
ag5
ag4
ag17
ag8
ag6
ag8
ag8
ag4
ag6
ag1
ag5
ag15
ag3
ag2
ag13
ag5
ag6
ag2
ag6
aVw
p121
ag6
ag4
ag11
ag6
ag3
ag6
ag1
ag6
ag12
ag6
ag2
ag8
ag3
ag3
ag10
ag1
ag13
ag6
ag3
ag4
ag5
ag13
ag5
ag1
ag8
ag16
ag3
ag6
ag2
ag5
ag6
ag1
ag6
ag13
ag3
ag1
ag6
ag13
ag3
ag6
ag6
ag1
ag13
ag1
ag15
ag1
ag6
aVc
p122
ag3
ag5
aVc
p123
ag6
ag3
ag11
ag6
ag10
ag5
ag8
ag5
ag13
ag42
ag6
ag1
ag11
ag8
ag13
ag1
ag4
ag1
aVf
p124
aVf
p125
ag1
ag8
ag8
ag13
ag1
ag8
ag5
ag13
ag42
ag8
ag8
ag6
ag3
ag6
ag1
ag4
ag6
aVf
p126
ag10
ag10
ag3
ag42
ag1
ag2
ag6
ag6
ag2
ag4
ag5
ag4
ag13
ag5
ag6
ag10
ag5
ag6
ag1
ag11
ag8
ag5
ag13
ag42
ag10
ag6
ag3
ag13
ag3
ag16
ag1
ag13
ag1
ag15
ag8
ag5
ag13
ag42
ag8
ag8
ag6
ag3
ag6
ag1
ag4
ag6
ag10
ag10
ag3
ag42
ag1
ag8
ag1
ag6
ag15
ag3
ag13
ag10
ag1
ag6
ag13
ag3
ag1
ag8
ag8
ag13
ag1
ag6
ag5
aVb
p127
ag1
ag11
ag17
ag1
ag15
ag10
ag10
ag3
ag10
ag3
ag6
ag16
ag13
ag1
ag3
ag4
ag1
ag1
ag2
ag6
ag1
ag6
ag15
ag3
ag13
ag10
ag6
ag1
ag6
ag10
ag6
ag1
ag6
ag1
ag1
ag6
ag13
ag3
ag1
ag8
ag8
ag13
ag1
ag5
ag13
ag1
ag10
ag5
ag6
ag6
ag1
ag6
ag8
ag3
ag1
ag1
ag13
ag5
ag10
ag5
ag1
ag15
ag6
ag1
ag24
ag1
ag56
ag4
ag5
ag1
ag3
ag4
ag5
ag4
ag3
ag1
ag6
ag2
ag6
ag5
ag13
ag1
ag8
ag8
ag6
ag3
ag6
ag1
ag6
ag12
ag2
ag3
ag6
ag10
ag6
ag4
ag2
ag6
ag1
ag6
ag13
ag3
ag1
ag4
ag3
ag6
ag4
ag1
ag16
ag1
ag1
ag6
ag42
ag10
ag3
ag6
ag1
ag8
ag3
ag8
ag5
ag13
ag42
ag8
ag8
ag6
ag3
ag6
ag1
ag4
ag6
ag13
ag6
ag4
ag3
ag6
ag4
ag1
ag10
ag6
ag3
ag13
ag3
ag16
ag1
aVc
p128
ag1
ag1
ag3
ag1
ag10
ag3
ag4
ag3
ag3
ag6
ag4
ag1
ag4
ag6
ag8
ag8
ag4
ag6
ag1
ag8
ag3
ag4
ag3
ag6
ag4
ag1
ag10
ag3
ag6
ag6
ag3
ag3
ag6
ag4
ag5
ag4
ag13
ag5
ag6
ag12
ag2
ag8
ag5
ag13
ag42
ag8
ag1
ag15
ag6
ag2
aVh
p129
ag3
ag6
ag16
ag6
ag3
ag1
ag15
ag1
ag1
ag2
ag5
ag5
ag12
ag1
ag13
ag5
ag3
ag2
ag3
ag6
ag3
ag6
ag10
ag6
ag1
ag5
ag6
ag1
ag6
ag3
ag15
ag3
ag6
ag13
ag3
ag4
ag6
ag1
ag15
ag6
ag2
ag20
ag3
ag1
ag2
ag6
ag16
ag2
ag1
ag6
ag6
ag16
ag6
ag16
ag6
ag6
ag3
ag13
ag1
ag6
ag3
ag1
ag6
ag1
ag8
ag6
ag2
ag6
ag3
ag6
ag8
ag3
ag6
ag13
ag6
ag8
ag13
ag5
ag6
ag11
ag6
ag5
ag10
ag6
ag2
ag5
ag15
ag6
ag8
ag3
ag6
ag5
ag1
ag15
ag1
ag13
ag5
ag1
ag15
ag6
ag5
ag4
ag4
ag1
ag1
ag8
ag2
ag6
ag6
ag2
ag3
ag6
ag16
ag6
ag3
ag1
ag15
ag6
ag6
ag1
ag15
ag2
ag3
ag6
ag3
ag4
ag17
ag10
ag2
ag4
ag6
ag5
ag16
ag6
ag1
ag2
ag6
ag6
ag8
ag8
ag6
ag4
ag11
ag6
ag6
ag13
ag2
ag6
ag3
ag12
ag13
ag4
ag4
ag6
ag8
ag13
ag5
ag5
ag10
ag10
ag5
ag6
ag3
ag3
ag4
ag17
ag12
ag6
ag3
ag13
ag3
ag6
ag3
ag4
ag17
ag1
ag2
ag3
ag6
ag16
ag6
ag3
ag1
ag15
ag3
ag4
ag17
ag2
ag6
ag6
ag5
ag12
ag13
ag6
ag1
ag11
ag6
ag15
ag6
ag2
ag6
ag6
ag4
ag1
ag6
ag3
ag10
ag3
ag6
ag1
ag4
ag10
ag16
ag5
ag8
ag2
ag3
ag6
ag16
ag6
ag3
ag1
ag15
ag6
ag6
ag1
ag1
ag2
ag6
aVg
p130
ag13
ag5
ag8
ag8
ag6
ag42
ag4
ag16
ag4
ag10
ag13
ag1
ag15
ag6
ag5
ag4
ag4
ag1
ag1
ag5
ag17
ag1
ag12
ag1
ag6
ag4
ag3
ag16
ag13
ag6
ag1
ag6
ag3
ag8
ag6
ag4
ag1
ag6
ag3
ag10
ag3
ag6
ag1
ag1
ag4
ag5
ag13
ag1
ag15
ag2
ag6
ag1
ag3
ag5
ag1
ag4
ag6
ag1
ag3
ag6
ag8
ag5
ag6
ag4
ag11
aVn
p131
aVp
p132
ag1
ag3
aVp
p133
aVr
p134
aVp
p135
ag12
ag11
ag6
ag11
ag6
ag5
ag4
aVv
p136
aVp
p137
ag12
ag11
ag6
ag11
ag6
ag5
ag4
aVv
p138
ag1
ag6
ag1
ag2
ag6
ag13
ag8
ag2
ag6
ag6
ag5
ag12
ag4
ag1
ag4
ag6
ag3
ag1
ag6
ag12
ag2
ag2
ag6
ag8
ag3
ag1
ag8
ag15
ag2
ag3
ag6
ag1
ag2
ag6
ag3
ag6
ag8
ag3
ag6
ag2
ag3
ag6
ag16
ag6
ag3
ag1
ag15
ag6
ag6
ag1
ag12
ag6
ag3
ag6
ag11
ag6
ag1
ag2
ag3
ag6
ag16
ag6
ag3
ag1
ag15
ag1
ag2
ag3
ag6
ag16
ag6
ag3
ag1
ag15
ag1
ag12
ag2
ag8
ag3
ag6
ag6
ag15
ag1
ag2
ag6
ag10
ag3
ag6
ag10
ag4
ag6
ag1
ag2
ag2
ag6
ag4
ag1
ag1
ag13
ag13
ag12
ag11
ag6
ag5
ag6
ag3
ag1
ag8
ag3
aVc
p139
aVw
p140
ag13
ag6
ag4
ag3
ag6
ag6
ag10
ag8
ag1
ag1
ag10
ag5
ag4
ag5
ag6
ag1
ag3
ag16
ag3
ag1
ag6
ag3
ag1
ag6
ag1
ag6
ag5
ag6
ag4
ag3
ag15
ag1
ag6
ag4
aVe
p141
ag6
ag6
ag1
ag8
ag4
ag13
ag5
ag13
ag3
ag5
ag1
ag6
ag1
ag10
ag15
ag3
ag10
ag2
ag4
ag8
ag6
ag13
ag3
ag6
ag2
ag6
ag1
ag3
ag13
ag4
ag6
ag10
ag10
ag3
ag4
ag2
ag10
ag10
ag5
ag6
ag3
ag6
ag4
ag5
aVe
p142
ag1
ag6
ag1
ag3
ag6
ag23
ag13
ag3
ag6
ag2
ag6
ag6
ag13
ag3
ag6
ag6
ag1
ag16
ag6
ag1
ag11
ag6
ag3
ag6
ag2
ag13
ag15
ag2
ag4
ag1
ag6
ag5
ag16
ag6
ag10
ag10
ag5
ag6
ag1
ag1
ag11
ag6
ag3
ag6
ag6
ag5
aVf
p143
ag3
ag2
ag13
ag3
ag11
ag6
ag12
ag6
ag10
ag10
ag5
ag2
ag6
aVc
p144
aVw
p145
ag10
ag5
ag5
aVb
p146
ag8
ag6
ag5
ag1
aVb
p147
aVe
p148
ag4
ag5
ag5
ag6
ag4
ag6
ag1
ag2
ag6
aVe
p149
ag1
ag1
aVc
p150
ag5
ag15
ag3
aVc
p151
ag3
ag3
ag3
ag8
ag13
ag2
ag6
ag3
ag1
ag5
ag16
ag6
ag3
ag2
ag6
ag11
ag6
ag3
ag15
ag6
ag12
ag11
ag6
ag5
ag6
ag10
ag12
ag6
ag3
ag16
ag1
ag1
ag6
ag11
ag6
ag3
ag8
ag13
ag3
ag3
ag1
ag15
ag6
ag8
ag10
ag5
ag4
ag5
ag6
ag1
ag4
ag1
ag11
ag6
ag3
ag6
ag24
ag10
ag8
ag1
ag3
ag5
ag20
ag6
ag10
ag12
ag6
ag3
ag12
ag2
ag1
ag6
ag4
ag2
ag16
ag1
ag2
ag6
ag1
ag5
ag8
ag10
ag10
ag3
ag42
ag6
ag5
ag24
ag5
ag5
ag1
ag13
ag1
ag1
ag15
ag2
ag17
ag6
ag13
ag10
ag2
ag6
ag13
ag3
ag11
ag6
ag4
ag1
ag16
ag6
ag3
ag13
ag1
ag1
ag2
ag6
ag3
ag6
ag3
ag8
ag1
ag13
ag6
ag1
ag24
ag46
aVg
p152
aVh
p153
ag20
ag1
ag6
ag5
ag10
ag3
ag4
ag6
ag3
aVw
p154
ag6
ag10
ag6
ag3
ag8
ag3
ag2
ag6
ag6
aVc
p155
aVw
p156
ag1
ag5
ag1
ag10
ag8
ag13
ag3
ag8
ag4
ag6
ag1
ag16
ag6
ag3
ag4
ag17
ag10
ag15
ag3
ag10
ag2
ag1
ag5
ag4
ag10
ag3
ag6
aVe
p157
ag3
ag6
ag13
ag5
ag10
ag8
ag1
ag8
ag3
ag3
ag13
ag4
ag13
ag3
ag6
ag1
ag2
ag6
ag3
ag6
ag15
ag1
aVw
p158
ag6
ag8
ag1
ag2
ag5
ag1
ag6
ag3
ag8
ag6
ag13
ag3
ag6
ag6
ag1
ag8
ag6
ag1
ag10
ag12
ag6
ag3
ag10
ag2
ag8
ag8
ag6
ag3
ag15
ag1
ag8
ag4
ag1
ag5
ag16
ag6
ag12
ag6
ag6
ag1
aVb
p159
ag8
ag6
ag5
aVf
p160
ag3
ag6
ag23
ag13
ag6
ag1
ag4
ag1
ag4
ag1
ag3
ag5
ag5
ag6
ag13
ag3
ag4
ag6
ag6
ag5
ag6
ag4
ag3
ag15
ag1
ag6
ag4
ag13
ag3
ag11
ag6
ag4
ag1
ag16
ag6
ag1
ag6
ag15
ag11
ag6
ag5
ag8
ag8
ag6
ag4
ag6
ag16
ag1
ag6
ag3
ag13
ag3
ag8
ag4
ag6
ag15
ag6
ag5
ag15
ag4
ag8
ag6
ag13
ag3
ag6
ag3
ag6
ag13
ag5
ag1
ag15
ag1
ag4
ag2
ag8
ag1
ag2
ag6
ag16
ag6
ag3
ag11
ag6
ag6
ag5
ag6
ag4
ag3
ag4
ag8
ag6
ag5
ag10
ag5
ag13
ag6
aVw
p161
ag6
ag10
ag3
ag10
ag6
ag13
ag1
ag15
ag1
ag6
ag23
ag13
ag11
ag5
ag6
ag1
ag13
ag3
ag4
ag6
ag6
ag2
ag6
ag1
ag6
ag6
ag5
ag6
ag4
ag3
ag4
ag8
ag6
ag5
ag8
ag3
ag8
ag3
ag6
ag23
ag13
ag6
ag1
ag4
ag1
ag4
ag1
ag3
ag5
ag5
ag6
ag13
ag3
ag4
ag6
ag6
ag5
ag6
ag4
ag3
ag15
ag1
ag6
ag4
aVc
p162
aVe
p163
ag13
ag3
ag11
ag6
ag2
ag6
ag6
ag23
ag13
ag11
ag5
ag6
ag1
ag13
ag3
ag4
ag6
ag6
ag2
ag4
ag1
ag6
ag2
ag6
ag3
ag16
ag6
ag10
ag10
ag5
ag6
ag1
ag11
ag13
ag5
ag5
ag8
ag3
ag6
ag4
ag2
ag6
ag13
ag3
ag6
ag8
ag3
ag6
ag23
ag13
ag6
ag1
ag4
ag3
ag13
ag5
ag1
ag6
ag13
ag5
ag8
ag3
ag5
ag5
ag8
ag3
ag6
ag23
ag13
ag6
ag1
ag4
ag6
ag6
ag13
ag3
ag6
aVw
p164
ag6
ag6
ag1
ag3
ag6
ag2
ag6
ag6
ag8
ag8
ag6
ag4
ag11
ag6
ag1
ag6
ag8
ag2
ag6
ag6
ag2
ag16
ag6
ag1
ag1
ag15
ag1
ag1
ag11
ag13
ag5
ag1
ag2
ag6
ag4
aVc
p165
aVe
p166
ag13
ag3
ag11
ag6
ag12
ag2
ag4
ag1
ag1
ag6
ag12
ag2
ag1
ag6
ag8
ag3
ag1
ag6
ag3
ag13
ag3
ag8
ag4
ag6
ag4
ag1
ag13
ag4
ag11
ag6
ag16
ag6
ag12
ag6
ag5
ag5
ag1
ag2
ag6
ag4
ag6
ag5
ag10
ag6
ag13
ag3
ag11
ag6
ag3
ag6
ag10
ag3
ag6
ag6
ag1
ag1
ag15
ag3
ag6
ag11
ag4
ag2
ag1
ag15
ag6
ag1
ag3
ag15
ag6
ag13
ag6
ag8
ag3
ag1
ag1
ag4
ag6
aVc
p167
ag24
ag6
ag23
ag13
ag6
ag3
ag1
aVw
p168
ag6
ag5
ag10
ag10
ag5
ag2
ag6
ag6
ag23
ag13
ag11
ag5
ag6
ag1
ag13
ag3
ag4
ag6
ag6
ag2
ag6
ag1
ag6
ag6
ag8
ag4
ag1
ag3
ag5
ag5
ag6
ag13
ag3
ag4
ag6
ag13
ag15
ag1
ag6
ag6
ag5
ag5
ag13
ag3
ag4
ag8
ag8
ag6
ag4
ag6
ag16
ag4
ag2
ag8
ag8
ag3
ag8
ag6
ag5
ag13
ag3
ag11
ag6
ag1
ag12
ag6
ag6
ag3
ag1
aVc
p169
ag2
ag1
aVw
p170
ag2
ag1
ag6
ag3
ag8
ag6
ag3
ag6
ag3
ag10
ag10
ag5
ag6
ag4
ag1
ag3
ag5
ag5
ag6
ag13
ag3
ag4
ag6
ag6
ag5
ag6
ag4
ag3
ag15
ag1
ag6
ag4
ag2
ag6
ag3
ag6
ag4
ag8
ag6
ag5
ag1
ag2
ag6
ag3
ag12
ag11
ag6
ag1
ag5
ag5
ag2
ag6
ag3
ag6
ag8
ag8
ag6
ag4
ag3
ag6
ag5
ag6
ag2
ag6
ag3
ag12
ag6
ag3
ag1
ag6
ag3
ag8
ag4
ag6
ag4
ag1
ag16
ag6
ag13
ag10
ag10
ag3
ag6
ag6
ag1
ag3
ag11
ag6
ag1
ag12
ag1
ag6
ag3
ag8
ag6
ag3
ag6
ag3
ag5
ag5
ag12
ag8
ag3
ag3
ag6
ag3
ag6
ag11
ag5
ag8
ag2
ag6
ag4
ag6
ag3
ag6
ag8
ag6
ag5
aVg
p171
ag3
ag6
ag6
ag1
ag8
ag13
ag1
ag4
ag1
ag8
ag2
ag6
ag13
ag16
ag13
ag3
ag8
ag4
ag6
ag3
ag1
ag2
ag6
ag3
ag12
ag3
ag2
ag6
ag13
ag16
ag13
ag3
ag8
ag4
ag6
ag3
ag6
ag8
ag5
ag6
ag4
ag1
ag3
ag6
ag10
ag1
ag6
ag2
ag3
ag6
ag8
ag5
ag6
ag4
ag1
ag3
ag6
ag10
ag1
ag6
ag4
ag1
ag2
ag6
ag1
ag16
ag6
ag8
ag13
ag3
ag2
ag6
ag3
ag13
ag6
ag1
ag11
ag6
ag3
ag8
ag3
ag2
ag6
ag13
ag16
ag13
ag3
ag8
ag4
ag6
ag4
ag1
ag13
ag4
ag11
ag3
ag16
ag13
ag1
ag10
ag6
ag3
ag8
ag3
ag1
ag6
ag3
ag8
ag6
ag3
ag6
ag3
ag1
ag56
ag6
ag13
ag3
ag6
ag6
ag1
ag1
ag1
ag3
ag6
ag5
ag15
ag3
ag3
ag6
ag1
ag6
ag4
ag6
ag3
aVw
p172
ag6
ag4
ag13
ag56
ag1
ag6
ag3
ag8
ag6
ag3
ag6
ag3
ag16
ag13
ag5
ag6
ag1
ag1
ag5
ag6
ag4
ag1
ag11
ag5
ag13
ag1
ag1
ag2
ag6
ag8
ag3
ag6
ag23
ag13
ag6
ag1
ag4
ag12
ag11
ag6
ag1
ag13
ag16
ag6
ag3
ag1
ag1
ag2
ag6
ag8
ag3
ag6
ag23
ag13
ag6
ag1
ag4
ag10
ag4
ag6
ag1
ag1
ag10
ag3
ag11
ag6
ag6
ag42
ag10
ag5
ag6
ag8
ag3
ag5
ag6
ag3
ag6
ag6
ag3
ag2
ag6
ag5
aVw
p173
ag6
ag13
ag6
ag2
ag6
ag1
ag2
ag6
ag4
ag10
ag6
ag3
ag13
ag3
ag6
ag13
ag3
ag4
ag6
ag4
ag1
ag4
ag6
ag10
ag10
ag2
ag6
ag15
ag1
ag5
ag2
ag15
ag2
ag12
ag11
ag6
ag1
ag13
ag16
ag6
ag3
ag5
ag5
ag12
ag5
ag3
ag15
ag6
ag3
ag6
ag4
ag6
ag11
ag6
ag3
ag10
ag5
ag1
ag15
ag1
ag4
ag6
ag1
ag6
ag3
ag8
ag6
ag3
ag6
ag3
ag1
ag6
ag6
ag1
ag4
ag3
ag6
ag6
ag2
ag6
ag6
ag6
ag4
ag16
ag5
ag8
ag13
ag16
ag13
ag3
ag8
ag4
ag6
ag3
ag6
ag6
ag3
ag11
ag3
aVf
p174
ag1
ag5
ag5
ag12
ag6
ag4
ag13
ag2
ag6
ag6
ag10
ag6
ag1
ag6
ag1
ag4
ag8
ag2
ag6
ag4
ag4
ag13
ag3
ag4
ag8
ag2
ag6
ag3
ag6
ag3
ag6
ag11
ag6
ag3
ag6
ag8
ag5
ag6
ag4
ag1
ag3
ag6
ag10
ag1
ag6
ag1
ag2
ag6
ag12
aVw
p175
ag6
ag2
ag11
ag6
ag6
ag6
ag3
ag1
ag6
ag8
ag3
ag2
ag6
aVb
p176
ag5
ag11
ag1
ag1
ag6
ag2
ag2
ag6
ag1
ag6
ag12
ag15
ag5
ag16
ag5
ag15
ag3
ag11
ag6
ag5
ag6
ag3
ag11
ag6
ag8
ag3
ag2
ag6
aVg
p177
ag3
ag11
ag8
ag6
ag5
ag1
ag6
ag6
ag4
ag6
ag1
aVc
p178
ag3
ag4
ag13
ag5
ag1
aVe
p179
ag42
ag10
ag5
ag3
ag6
ag3
aVg
p180
aVc
p181
aVe
p182
ag6
ag5
ag5
ag6
ag1
ag16
ag6
ag13
ag6
ag3
ag6
ag4
ag5
ag13
ag5
ag2
ag10
ag2
ag6
ag3
ag4
ag3
ag13
ag4
ag13
ag3
ag6
ag12
ag3
ag2
ag6
ag1
ag12
ag6
ag2
ag11
ag6
ag8
ag3
ag13
ag5
ag6
aVb
p183
ag13
ag15
ag13
ag6
ag3
ag1
ag4
ag15
ag3
ag11
ag1
ag5
ag6
ag1
ag10
ag2
ag6
ag3
ag4
ag5
ag10
ag10
ag3
ag42
ag1
ag3
ag2
ag6
ag3
ag2
ag1
ag1
ag2
ag6
ag13
ag13
ag5
ag10
ag5
ag1
ag3
ag10
ag10
ag3
ag4
ag2
ag13
ag1
ag15
ag10
ag2
ag6
ag3
ag4
ag5
ag2
ag3
ag1
ag4
ag6
ag3
ag6
ag4
ag1
ag6
ag1
ag12
ag2
ag2
ag6
ag6
ag5
ag5
ag6
ag6
ag3
ag11
ag6
ag15
ag3
ag11
ag1
ag5
ag6
ag5
aVf
p184
ag3
ag2
ag6
ag10
ag10
ag3
ag42
ag6
ag6
ag23
ag13
ag11
ag5
ag6
ag1
ag4
ag8
ag10
ag15
ag3
ag10
ag2
ag4
ag6
ag1
ag13
ag3
ag8
ag4
ag6
ag6
ag1
ag5
ag6
ag3
ag13
ag1
ag15
ag2
ag6
aVh
p185
ag6
ag5
ag6
ag3
ag4
ag1
ag6
ag1
ag1
ag6
ag2
ag12
ag6
ag8
ag13
ag3
ag2
ag6
ag3
ag6
ag3
ag11
ag6
ag1
ag13
ag6
ag3
ag10
ag4
ag3
ag1
ag8
ag6
ag3
ag3
ag6
ag5
ag1
ag16
ag6
ag12
ag6
ag6
ag1
ag2
ag6
ag10
ag2
ag6
ag3
ag4
ag5
ag10
ag6
ag4
ag3
ag8
ag10
ag15
ag3
ag10
ag2
ag4
ag5
ag1
ag6
ag5
ag4
ag10
ag2
ag6
ag3
ag4
ag5
ag2
ag6
ag5
ag5
ag6
ag8
ag5
ag6
ag4
ag1
ag12
ag2
ag6
ag3
ag6
ag2
ag6
ag3
ag4
ag4
ag10
ag6
ag1
ag1
ag2
ag6
ag10
ag6
ag4
ag5
ag4
ag6
ag8
ag1
ag8
ag5
ag6
ag42
ag13
ag3
ag5
ag3
ag15
ag1
ag13
ag6
ag3
ag4
ag5
ag4
ag10
ag3
ag1
ag8
ag2
ag6
ag6
ag10
ag2
ag6
ag3
ag4
ag5
ag2
ag3
ag1
ag4
ag6
ag5
ag4
ag1
ag11
ag6
ag1
ag1
ag5
ag2
ag3
ag6
ag6
ag6
ag1
ag1
ag5
ag6
ag5
ag1
ag15
ag16
ag6
ag1
ag10
ag15
ag3
ag10
ag2
ag4
ag1
ag1
ag6
ag12
ag5
ag4
ag23
ag13
ag3
ag6
ag13
ag3
ag8
ag4
ag6
ag15
ag3
ag11
ag1
aVb
p186
ag5
ag11
ag4
ag1
ag8
ag3
ag6
ag2
ag6
aVw
p187
ag6
ag1
ag11
ag6
ag15
ag6
ag2
ag6
ag6
ag8
ag8
ag6
ag4
ag8
ag13
ag1
ag13
ag13
ag1
ag6
ag3
ag12
ag6
ag3
ag11
ag6
ag2
ag4
ag5
ag6
aVu
p188
aVv
p189
ag1
ag4
ag1
ag1
ag11
ag15
ag1
ag1
ag13
ag1
ag6
ag3
ag12
ag13
ag16
ag3
ag1
ag6
ag15
ag3
ag11
ag6
ag3
ag13
ag3
ag3
ag6
ag6
ag3
ag4
ag2
ag12
ag11
ag6
ag16
ag2
ag6
ag1
ag6
ag6
ag16
ag1
ag10
ag5
ag5
ag6
ag1
ag6
ag3
ag1
ag6
ag15
ag3
ag11
ag6
ag13
ag3
ag6
ag6
ag1
ag4
ag5
ag6
ag2
ag6
ag13
ag3
ag4
ag6
ag8
ag13
ag16
ag17
ag5
ag6
ag6
ag3
ag4
ag5
ag6
ag15
ag6
ag5
ag15
ag4
ag8
ag6
ag13
ag3
ag6
ag1
ag2
ag6
ag2
ag5
ag5
ag12
ag4
ag6
ag1
ag4
ag4
ag3
ag13
ag13
ag4
ag2
ag6
ag13
ag3
ag6
ag6
ag1
ag2
ag11
ag6
ag16
ag6
ag6
ag1
ag10
ag3
ag6
ag11
ag13
ag5
ag16
ag1
ag6
ag8
ag3
ag1
ag1
ag4
ag6
ag12
ag2
ag10
ag5
ag6
ag13
ag16
ag3
ag1
ag6
ag1
ag12
ag6
ag5
ag6
ag2
ag12
ag6
ag11
ag6
ag3
ag2
ag6
ag2
ag15
ag2
ag4
ag1
ag1
ag2
ag6
ag4
ag6
ag8
ag1
ag16
ag6
ag13
ag3
ag6
ag6
ag1
ag10
ag3
ag10
ag5
ag10
ag5
ag1
ag15
ag10
ag3
ag6
ag4
ag5
ag13
ag6
ag3
ag13
ag1
ag6
ag4
ag23
ag13
ag1
ag8
ag2
ag6
ag6
ag6
ag13
ag3
ag6
ag6
ag1
aVc
p190
ag1
ag1
ag13
ag13
ag13
ag1
ag6
ag3
ag12
ag15
ag3
ag11
ag13
ag3
ag11
ag6
ag12
ag2
aVu
p191
aVv
p192
ag4
ag10
ag6
ag5
ag5
ag1
ag15
ag4
ag6
ag8
ag8
ag6
ag4
ag11
ag6
ag10
ag1
ag16
ag13
ag2
ag6
ag2
ag3
ag6
ag23
ag13
ag3
ag6
ag6
ag10
ag3
ag1
ag15
ag2
ag6
aVu
p193
aVv
p194
ag4
ag4
ag6
ag5
ag6
ag3
ag1
ag8
ag3
ag2
ag6
ag6
ag13
ag3
ag6
ag15
ag3
ag11
aVw
p195
ag6
ag2
ag12
ag2
aVu
p196
aVv
p197
ag12
ag2
ag5
ag3
ag15
ag6
ag1
ag4
ag6
ag16
ag6
ag12
ag6
ag6
ag1
ag2
ag6
ag4
ag6
ag1
ag6
ag3
ag8
ag16
ag13
ag1
ag4
ag1
ag2
ag6
ag4
ag6
ag1
ag6
ag3
ag8
ag15
ag3
ag11
ag2
ag11
ag6
ag5
ag12
ag6
ag3
ag11
ag6
ag3
ag4
ag5
ag4
ag4
ag6
ag5
ag6
ag3
ag1
ag2
ag1
ag3
ag10
ag6
ag2
ag10
ag6
aVu
p198
aVv
p199
ag1
ag4
ag1
ag6
ag23
ag13
ag6
ag1
ag5
ag5
ag3
ag6
ag16
ag6
ag6
ag3
ag13
ag6
ag8
ag3
ag13
ag1
ag6
ag3
ag12
ag15
ag3
ag11
ag13
ag3
ag11
ag6
aVf
p200
ag13
ag3
ag2
ag6
ag3
ag3
ag6
ag6
ag6
ag3
ag12
ag2
ag4
ag2
ag4
ag16
ag1
ag6
ag6
ag1
ag3
ag6
ag13
ag3
ag6
ag6
ag1
ag1
ag1
ag13
ag3
ag13
ag4
ag13
ag3
ag6
ag1
ag11
ag6
ag3
ag1
ag1
ag6
ag8
ag2
ag6
ag6
ag8
ag8
ag6
ag4
ag11
ag6
ag5
ag8
ag3
ag2
ag6
ag1
ag11
ag6
ag3
ag1
ag8
ag15
ag3
ag11
aVh
p201
ag12
ag6
ag11
ag6
ag3
ag2
ag6
ag1
ag3
aVg
p202
ag13
aVn
p203
ag6
ag12
ag1
ag5
ag15
ag3
ag2
ag2
ag3
ag6
ag4
ag1
ag5
ag13
ag6
ag8
ag3
ag2
ag6
ag1
ag20
ag1
ag10
ag3
ag4
ag6
ag13
ag3
ag6
ag1
ag2
ag6
ag10
ag5
ag8
ag3
ag12
ag3
ag5
ag11
ag6
ag3
ag16
ag6
ag1
ag1
ag5
ag4
ag8
ag3
ag13
ag5
ag3
ag6
ag23
ag13
ag3
ag6
ag5
ag3
ag15
ag6
ag6
ag3
ag3
ag15
ag6
ag8
ag3
ag2
ag6
ag8
ag3
ag1
ag1
ag1
ag11
ag6
ag3
ag1
ag8
ag2
ag6
ag1
ag11
ag5
ag11
ag6
ag3
ag4
ag6
ag1
ag5
ag6
ag3
ag1
ag11
ag6
ag2
ag6
ag1
ag5
ag4
ag5
ag5
ag11
ag6
ag3
ag3
ag6
ag1
ag13
ag6
ag3
ag4
ag5
ag1
ag6
ag2
ag3
ag6
ag13
ag5
ag1
ag10
ag3
ag6
ag3
ag4
ag6
ag2
ag10
ag3
ag13
ag15
ag3
ag6
ag1
ag16
ag6
ag1
ag20
ag1
ag6
ag2
ag2
ag11
ag2
ag6
ag6
ag42
ag10
ag5
ag4
ag8
ag3
ag1
ag8
ag2
ag6
ag1
ag11
ag6
ag3
ag1
ag3
ag4
ag6
ag1
ag2
ag5
ag11
ag6
ag2
ag6
ag6
ag8
ag6
ag23
ag13
ag1
ag13
ag1
ag15
ag6
ag3
ag6
ag8
ag8
ag4
ag6
ag1
ag6
ag3
ag11
ag6
ag6
ag4
ag2
ag1
ag23
ag13
ag6
aVw
p204
ag6
ag2
ag11
ag6
ag6
ag11
ag6
ag5
ag10
ag6
ag6
ag11
ag6
ag3
ag5
ag1
ag13
ag6
ag3
ag4
ag5
ag4
ag2
ag6
ag6
ag8
ag3
ag2
ag6
ag8
ag3
ag12
ag3
ag6
ag5
ag1
ag15
ag8
ag15
ag3
ag11
ag13
ag1
ag15
ag2
ag6
ag8
ag1
ag6
ag6
ag5
ag6
ag6
ag1
ag1
ag8
ag1
ag6
ag11
ag5
ag13
ag6
ag6
ag2
ag1
ag13
ag1
ag3
ag13
ag4
ag13
ag3
ag6
ag15
ag3
ag1
ag2
ag6
ag8
ag1
ag6
ag11
ag5
ag13
ag6
ag6
ag2
ag6
ag5
ag13
ag1
ag6
ag3
ag2
ag6
ag3
ag5
ag15
ag3
ag1
ag13
ag5
aVv
p205
ag3
ag1
ag15
ag3
ag3
ag6
ag13
ag6
ag8
ag1
ag2
ag6
ag10
ag3
ag3
ag5
ag13
ag1
ag6
ag15
ag3
ag11
ag1
ag5
ag10
ag6
ag1
ag5
ag2
ag6
ag4
ag6
ag1
ag6
ag3
ag1
ag11
ag6
ag3
ag4
ag6
ag8
ag2
ag6
ag6
ag3
ag2
ag6
ag3
ag3
ag6
ag10
ag6
ag4
ag11
ag6
ag5
ag4
ag6
ag5
ag1
ag15
ag3
ag13
ag1
ag12
ag6
ag3
ag2
ag3
ag5
ag15
ag15
ag6
ag10
ag2
ag4
ag5
ag15
ag1
ag15
ag2
ag5
ag4
ag1
ag6
ag3
ag16
ag5
ag6
ag10
ag3
ag6
ag8
ag3
ag10
ag3
ag11
ag1
ag15
ag10
ag3
ag6
ag6
ag3
ag6
ag1
ag13
ag6
ag2
ag6
ag15
ag6
ag1
ag6
ag3
ag5
ag5
ag2
ag15
ag2
ag3
ag6
ag5
ag13
ag1
ag1
ag10
ag5
ag4
ag11
ag6
ag3
ag15
ag6
ag8
ag15
ag6
ag10
ag2
ag4
ag5
aVh
p206
ag12
ag6
ag11
ag6
ag3
ag1
ag11
ag6
ag3
ag1
ag8
ag15
ag6
ag10
ag2
ag4
ag5
ag5
ag1
ag6
ag4
ag1
ag1
ag13
ag1
ag11
ag6
ag5
ag2
ag6
ag3
ag16
ag13
ag1
ag8
ag2
ag3
ag13
ag5
ag4
ag4
ag1
ag13
ag4
ag11
aVj
p207
ag1
ag5
ag1
ag11
ag6
ag3
ag1
ag15
ag15
ag6
ag10
ag2
ag4
ag5
ag1
ag2
ag3
ag5
ag15
ag4
ag5
ag5
ag5
ag12
ag13
ag16
ag6
ag1
ag6
ag8
ag8
ag3
ag2
ag6
ag11
ag1
ag15
ag6
ag8
ag15
ag6
ag10
ag2
ag4
ag5
ag15
ag1
ag15
ag1
ag2
ag6
ag6
ag6
ag3
ag6
ag4
ag11
ag6
ag3
ag2
ag6
ag2
ag3
ag5
ag15
ag4
ag5
ag10
ag3
ag6
ag6
ag3
ag8
ag1
ag6
ag3
ag6
aVw
p208
ag6
ag2
ag11
ag6
ag10
ag10
ag5
ag6
ag4
ag13
ag10
ag5
ag1
ag15
ag3
ag6
ag15
ag16
ag6
ag12
ag6
ag6
ag1
ag15
ag6
ag10
ag2
ag4
ag5
ag1
ag2
ag3
ag5
ag15
ag4
ag5
ag6
ag5
ag2
ag16
ag6
ag1
ag3
ag13
ag4
ag13
ag3
ag5
ag5
ag3
ag4
ag1
ag3
ag1
ag6
ag5
ag4
ag16
ag1
ag1
ag8
ag3
ag12
ag2
ag4
ag2
ag2
ag6
ag10
ag5
ag15
ag3
ag6
ag1
ag8
ag2
ag6
ag1
ag8
ag6
ag3
ag3
ag6
ag10
ag3
ag6
ag6
ag3
ag8
ag6
ag5
ag3
ag6
ag1
ag5
ag15
ag1
ag6
ag1
ag10
ag3
ag5
ag5
ag6
ag5
ag3
ag6
ag10
ag6
ag1
ag5
ag20
ag6
ag1
ag2
ag6
ag1
ag11
ag6
ag3
ag1
ag2
ag3
ag13
ag4
ag13
ag3
ag5
ag4
ag13
ag10
ag5
ag1
ag15
ag6
ag1
ag3
ag6
ag23
ag13
ag3
ag6
ag1
ag3
ag13
ag4
ag1
ag15
ag10
ag6
ag1
ag5
ag5
ag12
ag6
ag17
ag13
ag1
ag17
ag1
ag12
ag1
ag1
ag1
ag1
ag1
ag3
ag10
ag6
ag3
ag10
ag2
ag4
ag5
ag3
ag6
ag5
ag1
ag5
ag1
ag17
ag2
ag6
ag6
ag5
ag2
ag6
ag6
ag2
ag12
ag8
ag3
ag6
ag6
ag1
ag1
ag2
ag6
ag4
ag6
ag1
ag2
ag6
ag1
ag10
ag10
ag5
ag6
ag12
ag4
ag16
ag1
ag1
ag8
ag15
ag6
ag10
ag2
ag4
ag5
ag2
ag3
ag5
ag15
ag12
ag1
ag10
ag3
ag16
ag5
ag6
ag3
ag6
ag6
ag1
ag4
ag13
ag1
ag6
ag3
ag6
ag1
ag6
ag6
ag10
ag12
ag56
aVc
p209
ag15
ag1
ag6
ag4
ag13
ag3
ag11
ag6
ag2
ag6
ag8
ag3
ag10
ag3
ag16
ag5
ag6
ag3
ag6
ag5
ag6
ag1
ag3
ag13
ag6
ag1
ag5
ag6
ag3
ag3
ag3
ag13
ag6
ag2
ag6
ag1
ag13
ag8
ag4
ag13
ag3
ag1
ag15
ag8
ag2
ag6
ag6
ag1
ag3
ag1
ag6
ag15
ag3
ag1
ag1
ag2
ag6
ag12
ag6
ag8
ag2
ag3
ag13
ag4
ag13
ag3
ag6
ag1
ag2
ag6
ag15
ag1
ag6
ag20
ag1
ag8
ag2
ag6
ag11
ag6
ag2
ag4
ag5
ag6
ag4
ag3
ag3
ag1
ag15
ag2
ag6
ag15
ag1
ag6
ag6
ag6
ag3
ag2
ag6
ag6
ag4
ag1
ag3
ag6
ag5
ag6
ag2
ag6
ag11
ag3
ag1
ag1
ag5
ag13
ag6
ag8
ag2
ag6
ag1
ag3
ag13
ag6
ag1
ag13
ag3
ag1
ag15
ag2
ag6
ag11
ag6
aVw
p210
ag6
ag6
ag11
ag5
ag13
ag6
ag1
ag6
ag12
ag10
ag6
ag8
ag4
ag5
ag16
ag3
ag1
ag10
ag10
ag3
ag4
ag2
ag8
ag3
ag6
ag6
ag10
ag12
ag8
ag5
ag13
ag42
ag15
ag6
ag15
ag1
ag6
ag6
ag6
ag3
aVw
p211
ag6
ag8
ag13
ag1
ag2
ag2
ag6
ag15
ag1
ag6
ag6
ag6
ag3
ag4
ag1
ag16
ag6
ag4
ag5
ag16
ag3
ag6
ag12
ag2
ag1
ag3
ag6
ag4
ag13
ag3
ag6
ag2
ag6
ag11
ag6
ag2
ag4
ag5
ag6
ag13
ag6
ag10
ag4
ag2
ag3
ag5
ag5
ag1
ag2
ag6
ag1
ag15
ag13
ag13
ag5
ag5
ag4
ag2
ag6
ag11
ag6
ag16
ag13
ag1
ag5
ag13
ag1
ag15
ag2
ag6
ag2
ag3
ag6
ag6
ag4
ag10
ag1
ag6
ag1
ag3
ag6
ag4
ag3
ag6
ag16
ag2
ag6
ag15
ag1
ag6
ag6
ag6
ag3
ag1
ag1
ag10
ag10
ag3
ag42
ag1
ag8
ag2
ag6
ag4
ag5
ag3
ag1
ag6
ag1
ag8
ag2
ag6
ag6
ag3
ag2
ag15
ag1
ag6
ag4
ag8
ag6
ag5
ag2
ag6
ag2
ag4
ag5
ag5
ag6
ag4
ag5
ag3
ag4
ag5
ag16
ag3
ag1
ag5
ag5
ag12
ag6
ag13
ag6
ag5
ag1
ag6
ag2
ag6
ag1
ag3
ag1
ag4
ag1
ag3
ag13
ag6
ag1
ag5
ag6
ag3
ag3
ag3
ag12
ag6
ag5
ag5
ag2
ag6
ag15
ag1
ag6
ag20
ag1
ag6
ag8
ag8
ag6
ag4
ag8
ag2
ag6
ag12
ag11
ag6
ag2
ag4
ag5
ag6
ag2
ag13
ag6
ag10
ag6
ag2
ag6
ag5
ag12
ag1
ag6
ag13
ag11
ag6
ag3
ag16
ag5
ag8
ag2
ag6
ag12
ag6
ag8
ag2
ag13
ag3
ag1
ag15
ag2
ag6
ag4
ag5
ag16
ag3
ag1
ag6
ag42
ag10
ag6
ag3
ag6
ag1
ag12
ag6
ag4
ag11
ag6
ag3
ag6
ag15
ag1
ag8
ag4
ag1
ag10
ag3
ag11
ag6
ag6
ag1
ag1
aVw
p212
ag6
ag2
ag11
ag6
ag6
ag11
ag6
ag5
ag10
ag6
ag1
ag10
ag10
ag3
ag4
ag2
ag8
ag3
ag2
ag6
ag1
ag6
ag3
ag10
ag3
ag6
ag1
ag8
ag15
ag1
ag6
ag4
ag8
ag6
ag5
ag2
ag4
ag1
ag16
ag6
ag13
ag6
ag12
ag2
ag6
ag1
ag6
ag13
ag3
ag6
ag1
ag5
ag6
ag3
ag6
ag8
ag8
ag6
ag4
ag6
ag16
ag15
ag1
ag8
ag4
ag1
ag3
ag6
ag1
ag6
ag1
ag15
ag1
ag6
ag20
ag1
ag4
ag10
ag1
ag6
ag1
ag2
ag6
ag6
ag2
ag6
ag5
ag12
ag2
ag3
ag6
ag1
ag6
ag1
ag6
ag8
ag8
ag6
ag4
ag16
ag13
ag1
ag15
ag2
ag6
ag1
ag3
ag5
ag20
ag6
ag13
ag3
ag4
ag6
ag3
ag6
ag1
ag15
ag2
aVn
p213
ag23
ag13
ag1
ag4
ag5
ag4
ag13
ag5
ag6
ag8
ag3
ag2
ag6
ag6
ag15
ag6
ag1
ag11
ag6
ag4
ag3
ag8
ag2
ag6
ag15
ag1
ag6
ag4
ag15
ag3
ag6
ag1
ag6
ag1
ag3
ag2
ag6
aVn
p214
ag1
ag5
ag5
ag8
ag8
ag6
ag4
ag6
ag16
ag2
ag6
ag3
ag6
ag4
ag1
ag8
ag3
ag6
ag1
ag6
ag1
ag15
ag1
ag6
ag20
ag1
ag10
ag3
ag6
ag6
ag1
ag1
ag4
ag10
ag3
ag6
ag12
ag6
ag5
ag5
ag12
ag2
ag2
ag6
ag3
ag3
ag1
ag8
ag3
ag1
ag8
ag2
ag6
ag15
ag1
ag6
ag4
ag8
ag6
ag5
ag2
ag3
ag6
ag13
ag6
ag8
ag3
ag2
ag6
ag6
ag10
ag13
ag3
ag10
ag6
ag2
ag6
ag3
ag6
ag8
ag3
ag6
ag8
ag8
ag6
ag3
ag12
ag8
ag1
ag11
ag6
ag3
ag1
ag15
ag15
ag1
ag6
ag4
ag4
ag1
ag1
ag1
ag15
ag2
ag6
ag6
ag8
ag8
ag6
ag4
ag8
ag3
ag6
ag1
ag6
ag1
ag15
ag1
ag6
ag20
ag1
ag10
ag3
ag4
ag13
ag5
ag3
ag5
ag12
ag2
ag6
ag1
ag2
ag6
ag6
ag3
ag6
ag13
ag1
ag17
ag1
ag12
ag1
ag1
ag3
ag6
ag10
ag16
ag5
ag11
ag3
ag1
ag15
ag12
ag2
ag1
ag15
ag11
ag6
ag1
ag6
aVw
p215
ag6
ag13
ag6
ag1
ag3
ag56
ag1
ag11
ag6
ag3
ag1
ag5
ag15
ag3
ag2
ag1
ag11
ag6
ag3
aVn
p216
ag8
ag3
ag1
ag3
ag6
ag12
ag2
ag6
ag3
ag6
ag11
ag3
ag1
ag15
ag3
ag6
ag1
ag6
ag1
ag4
ag6
ag3
ag6
ag4
ag1
ag3
ag6
ag10
ag10
ag3
ag6
ag1
ag3
ag6
ag13
ag5
ag1
ag15
ag1
ag3
ag6
ag3
ag6
ag5
ag16
ag5
ag6
ag15
ag6
ag8
ag2
ag6
ag13
ag16
ag13
ag3
ag8
ag4
ag6
ag15
ag1
ag6
ag20
ag1
ag3
ag16
ag13
ag1
ag2
ag1
ag10
ag16
ag5
ag6
ag13
ag1
ag15
ag2
ag6
ag16
ag6
ag3
ag11
ag6
ag15
ag1
ag6
ag4
ag8
ag6
ag5
ag3
ag6
ag4
ag5
ag15
ag1
ag6
ag4
ag1
ag5
ag10
ag3
ag6
ag8
ag5
ag6
ag4
ag2
ag6
ag10
ag5
ag3
ag16
ag13
ag1
ag8
ag15
ag1
ag6
ag4
ag13
ag3
ag4
ag6
ag12
ag2
ag4
ag2
ag16
ag6
ag5
ag4
ag6
ag8
ag8
ag6
ag3
ag6
ag1
ag6
ag10
ag2
ag1
ag2
ag11
ag6
ag15
ag1
ag8
ag4
ag1
ag5
ag8
ag8
ag6
ag3
ag6
ag1
ag10
ag2
ag4
ag5
ag1
ag15
ag6
ag6
ag3
ag4
ag5
ag10
ag3
ag10
ag6
ag3
ag6
ag4
ag10
ag5
ag4
ag1
ag15
ag2
ag6
ag6
ag1
ag8
ag4
ag1
ag8
ag2
ag6
ag4
ag3
ag3
ag6
ag10
ag1
ag1
ag15
ag15
ag6
ag5
ag15
ag4
ag3
ag13
ag4
ag13
ag3
ag6
aVf
p217
ag5
ag6
ag3
ag1
ag15
ag6
ag4
ag2
ag1
ag23
ag13
ag6
ag3
ag6
ag8
ag3
ag6
ag23
ag13
ag6
ag1
ag5
ag13
ag6
ag16
ag5
ag1
ag4
ag6
ag1
ag5
ag6
ag8
ag3
ag2
ag5
ag5
ag12
ag1
ag6
ag6
ag10
ag13
ag3
ag4
ag6
ag1
ag6
ag1
ag2
ag1
ag4
ag6
ag4
ag6
ag3
ag1
ag8
ag6
ag13
ag3
ag6
ag8
ag1
ag6
ag3
ag6
ag13
ag4
ag2
ag2
ag6
ag6
ag15
ag6
ag8
ag2
ag6
ag4
ag13
ag11
ag6
ag16
ag6
ag6
ag2
ag13
ag6
ag8
ag3
ag6
ag1
ag2
ag1
ag4
ag1
ag15
ag15
ag1
ag6
ag4
ag3
ag6
ag16
ag6
ag1
ag11
ag6
ag3
ag4
ag5
ag3
ag2
ag3
ag20
ag1
ag5
ag6
ag3
ag11
ag11
ag6
ag8
ag2
ag6
ag15
ag1
ag6
ag4
ag1
ag5
ag6
ag3
ag4
ag16
ag1
ag1
ag8
ag2
ag6
ag1
ag2
ag6
ag6
ag15
ag6
ag3
ag4
ag6
ag1
ag6
ag3
ag8
ag2
ag6
ag13
ag3
ag4
ag6
ag3
ag6
ag6
ag1
ag8
ag6
ag16
ag42
ag1
ag3
ag1
ag13
ag5
ag5
ag11
ag5
ag13
ag6
ag1
ag2
ag6
ag3
ag1
ag8
ag3
ag6
aVn
p218
ag3
ag5
ag20
ag6
ag6
ag3
ag11
ag11
ag6
ag6
ag2
ag3
ag6
ag13
ag6
ag6
ag23
ag13
ag5
ag20
ag6
ag15
ag1
ag5
ag8
ag3
ag13
ag3
ag4
ag6
ag16
ag13
ag3
ag6
ag8
ag8
ag6
ag3
ag6
ag1
ag6
ag10
ag2
aVw
p219
ag6
ag10
ag3
ag6
ag6
ag1
ag1
ag6
ag15
ag6
ag6
ag6
ag4
ag3
ag6
ag2
ag8
ag3
ag2
ag6
ag6
ag1
ag2
ag1
ag4
ag6
ag6
ag1
ag8
ag15
ag1
ag6
ag4
ag1
ag5
ag6
ag12
ag2
ag4
ag2
ag16
ag6
ag1
ag2
ag6
ag5
ag1
ag15
ag5
ag6
ag8
ag2
ag6
ag5
ag2
ag3
ag20
ag1
ag5
ag15
ag3
ag6
ag1
ag2
ag6
ag1
ag16
ag5
ag6
ag8
ag6
ag13
ag3
ag6
ag8
ag2
ag6
ag2
ag3
ag6
ag2
ag10
ag3
ag13
ag4
ag6
ag10
ag5
ag13
ag6
ag4
ag1
ag6
ag3
ag8
ag6
ag3
ag6
ag3
ag10
ag10
ag5
ag6
ag12
ag5
ag17
ag12
ag11
ag6
ag3
ag4
ag5
ag6
ag4
ag10
ag3
ag8
ag5
ag6
ag2
ag15
ag1
ag8
ag4
ag1
ag10
ag6
ag1
ag5
ag8
ag3
ag15
ag1
ag15
ag2
ag6
ag6
ag6
ag10
ag5
ag10
ag10
ag1
ag15
ag3
ag13
ag4
ag13
ag3
ag6
ag8
ag6
ag1
ag6
ag1
ag4
ag13
ag1
ag6
ag3
ag6
ag1
ag2
ag3
ag3
ag4
ag17
ag1
ag6
ag3
ag5
ag6
ag42
ag10
ag5
ag3
ag1
aVu
p220
ag1
ag15
ag2
ag6
ag1
ag6
ag3
ag8
ag6
ag3
ag6
ag3
ag10
ag3
ag4
ag6
ag13
ag3
ag8
ag4
ag6
ag2
ag4
ag1
ag16
ag6
ag3
ag6
ag13
ag6
ag2
ag6
ag16
ag3
ag6
ag2
ag5
ag6
ag3
ag6
ag4
ag6
ag11
ag6
ag3
ag3
ag6
ag13
ag5
ag1
ag15
ag1
ag11
ag3
ag13
ag5
ag2
ag15
ag2
ag6
ag3
ag2
ag6
ag11
ag3
ag13
ag5
ag2
ag15
ag2
ag6
ag3
ag4
ag1
ag2
ag6
ag1
ag16
ag6
ag10
ag3
ag4
ag6
ag6
ag13
ag1
ag15
ag1
ag3
ag4
ag1
ag10
ag1
aVc
p221
aVp
p222
ag10
ag3
ag4
ag6
ag1
ag15
ag8
ag5
ag12
aVc
p223
ag3
ag3
ag1
ag15
ag13
ag2
ag10
ag3
ag4
ag6
ag13
ag3
ag6
ag8
ag3
ag13
ag16
ag11
ag6
ag3
ag4
ag5
ag16
ag3
ag6
ag2
ag5
ag6
ag3
ag6
ag13
ag5
ag1
ag15
ag6
ag6
ag3
ag2
ag10
ag5
ag8
ag3
ag15
ag1
ag15
ag3
ag13
ag4
ag13
ag3
ag6
ag2
ag3
ag6
ag1
ag6
ag3
ag11
ag6
ag3
ag4
ag5
aVf
p224
ag6
ag5
ag4
ag23
ag13
ag1
ag10
ag3
ag6
ag6
ag3
ag10
ag5
ag4
ag3
ag4
ag5
ag3
ag5
ag6
ag1
ag3
ag6
ag4
ag11
ag6
ag3
ag1
ag15
ag3
ag6
ag5
ag16
ag5
ag6
ag11
ag3
ag13
ag5
ag13
ag3
ag4
ag6
ag15
ag6
aVw
p225
ag6
ag6
ag11
ag5
ag13
ag6
ag2
ag6
ag14
ag3
ag8
ag4
ag3
ag2
ag10
ag5
ag3
ag5
ag6
ag1
ag6
ag15
ag1
ag1
ag15
ag8
ag6
ag5
ag4
ag23
ag13
ag1
ag10
ag3
ag15
ag3
ag12
ag2
ag2
ag6
ag16
ag14
ag6
ag4
ag11
ag6
ag8
ag10
ag3
ag11
ag1
ag15
ag15
ag13
ag1
ag4
ag6
ag8
ag6
ag5
ag10
ag3
ag4
ag1
ag6
ag3
ag2
ag6
ag14
ag3
ag13
ag6
ag16
ag6
ag4
ag1
ag6
ag3
ag6
ag1
ag13
ag3
ag1
ag15
ag2
ag4
ag3
ag3
ag6
ag5
ag1
ag15
ag2
ag6
ag3
ag4
ag3
ag6
ag6
ag1
ag2
ag6
ag1
ag6
ag3
ag8
ag6
ag3
ag6
ag3
ag10
ag3
ag4
ag6
ag2
ag11
ag6
ag1
ag3
ag10
ag2
ag6
ag4
ag10
ag1
ag6
ag1
ag2
ag12
ag2
ag6
ag1
ag13
ag6
ag10
ag3
ag13
ag4
ag6
ag6
ag11
ag6
ag1
ag12
ag2
ag4
ag3
ag3
ag6
ag4
ag1
ag15
ag1
ag16
ag1
ag1
ag15
ag2
ag10
ag4
ag6
ag1
ag6
ag3
ag8
ag4
ag3
ag6
ag4
ag6
ag11
ag6
ag1
ag10
ag3
ag3
ag17
ag1
ag1
ag1
ag15
ag15
ag6
ag2
ag6
ag3
ag5
ag1
ag2
ag3
ag13
ag5
ag4
ag8
ag3
ag4
ag13
ag3
ag1
ag15
ag10
ag10
ag5
ag4
ag1
ag8
ag1
ag13
ag4
ag6
ag6
ag4
ag3
ag6
ag23
ag13
ag3
ag6
ag11
ag6
ag5
ag4
ag6
ag5
ag8
ag3
ag4
ag10
ag13
ag1
ag15
ag2
ag6
ag2
ag10
ag4
ag6
ag1
ag6
ag3
ag1
ag13
ag3
ag10
ag10
ag6
ag3
ag3
ag6
ag5
ag1
ag15
ag1
ag1
ag1
ag2
ag1
ag8
ag3
ag1
ag10
ag3
ag11
ag6
ag16
ag4
ag3
ag6
ag4
ag6
ag11
ag6
ag1
ag2
ag6
ag6
ag5
ag11
ag6
ag6
ag1
ag16
ag5
ag6
ag1
ag6
ag4
ag1
ag3
ag13
ag4
ag11
ag6
ag5
ag4
ag6
ag5
ag1
ag4
ag5
ag4
ag13
ag5
ag6
ag2
ag6
ag6
ag11
ag6
ag1
ag2
ag10
ag4
ag6
ag1
ag6
ag3
ag1
ag2
ag6
ag5
ag12
ag6
ag6
ag3
ag11
ag6
ag6
ag42
ag4
ag1
ag5
ag4
ag5
ag13
ag1
ag2
ag6
ag14
ag1
ag11
ag6
ag5
ag4
ag6
ag1
ag6
ag11
ag6
ag1
ag5
ag4
ag1
ag10
ag3
ag16
ag5
ag6
ag8
ag3
ag12
ag1
ag2
ag5
ag6
ag4
ag3
ag6
ag4
ag4
ag23
ag13
ag3
ag6
ag1
ag2
ag15
ag6
ag1
ag6
ag13
ag3
ag10
ag4
ag6
aVw
p226
ag6
ag2
ag12
ag2
ag3
ag11
ag6
ag5
ag6
ag1
ag10
ag5
ag3
ag20
ag1
ag11
ag6
ag4
ag3
ag8
ag2
ag6
ag3
ag6
ag4
aVp
p227
ag1
ag12
ag11
ag6
ag6
ag42
ag4
ag6
ag16
ag4
ag3
ag6
ag4
ag6
ag11
ag6
ag1
ag1
ag3
ag6
ag4
ag3
ag6
ag16
ag3
ag1
ag15
ag8
ag3
ag6
ag4
ag6
ag11
ag6
ag3
ag10
ag5
ag4
ag6
ag1
ag1
ag6
ag3
ag12
ag11
ag6
ag3
ag4
ag5
ag12
ag6
ag5
ag5
ag1
ag1
ag5
ag13
ag1
ag23
ag13
ag6
ag5
ag4
ag1
ag3
ag1
ag2
ag6
ag6
ag11
ag6
ag1
ag5
ag4
ag1
ag1
ag2
ag6
ag6
ag13
ag11
ag6
ag5
ag4
ag6
ag16
ag13
ag5
ag6
ag1
ag5
ag3
ag15
ag2
ag8
ag3
ag12
ag3
ag1
ag5
ag8
ag2
ag6
ag13
ag1
ag4
ag6
ag3
ag1
ag6
ag8
ag2
ag6
ag6
ag6
ag4
ag13
ag6
ag16
ag2
ag6
ag10
ag3
ag6
ag6
ag1
ag4
ag6
ag8
ag1
ag6
ag1
ag2
ag6
ag5
ag2
ag13
ag15
ag2
ag2
ag6
aVp
p228
ag1
ag12
ag11
ag6
ag11
ag6
ag5
ag4
ag6
ag4
ag5
ag4
ag13
ag5
ag6
ag1
ag5
ag4
ag5
ag5
ag13
ag1
ag6
ag3
ag2
ag6
aVb
p229
ag3
ag12
ag1
ag1
aVk
p230
ag3
ag3
ag1
ag15
ag6
ag42
ag6
ag1
ag6
aVg
p231
ag1
ag1
ag6
ag23
ag13
ag1
ag8
ag3
ag8
ag5
ag13
ag13
ag16
ag13
ag1
ag1
ag3
ag4
ag17
ag5
ag5
ag12
ag8
ag3
ag3
ag16
ag3
ag3
ag5
ag42
ag6
ag1
ag6
ag3
ag5
ag15
ag2
ag6
ag42
ag6
ag1
ag1
ag12
ag4
ag4
ag10
ag5
ag2
ag6
ag16
ag1
ag15
ag14
ag13
ag1
ag6
ag1
ag5
ag4
ag1
ag1
ag3
ag6
ag10
ag5
ag4
ag1
ag15
ag2
ag6
ag1
ag6
ag3
ag5
ag16
ag13
ag5
ag17
ag13
ag5
ag13
ag12
ag2
ag12
ag5
ag6
ag1
ag13
ag11
ag6
ag4
ag1
ag1
aVe
p232
ag11
ag6
ag1
ag2
ag13
ag15
ag2
ag11
ag3
ag13
ag5
ag5
ag5
ag5
ag3
ag4
ag17
ag2
ag11
ag6
ag42
ag6
ag1
ag6
ag3
ag5
ag15
ag2
ag6
aVb
p233
ag3
ag12
ag1
ag1
aVk
p234
ag3
ag3
ag1
ag15
ag6
ag23
ag13
ag1
ag3
ag6
ag6
ag5
ag13
ag6
ag16
ag6
ag4
ag13
ag6
ag11
ag5
ag13
ag6
ag8
ag3
ag2
ag6
ag4
ag1
ag1
ag3
ag6
ag13
ag1
ag17
ag1
ag12
ag1
aVw
p235
ag6
ag6
ag6
ag10
ag5
ag13
ag16
ag5
ag6
ag11
ag5
ag13
ag6
ag8
ag3
ag2
ag6
aVb
p236
ag3
ag12
ag1
aVk
p237
ag3
ag3
ag1
ag15
ag4
ag1
ag1
ag16
ag6
ag1
ag6
ag8
ag8
ag6
ag4
ag11
ag6
ag6
ag13
ag6
ag5
ag2
ag6
ag6
ag5
ag8
ag4
ag1
ag6
ag1
ag8
ag3
ag13
ag5
ag1
ag13
ag6
ag6
ag4
ag3
ag16
ag6
ag3
ag4
ag17
ag12
ag2
ag6
ag1
ag6
ag3
ag5
ag1
ag10
ag3
ag6
ag10
ag2
ag6
ag3
ag6
ag3
ag1
ag5
ag3
ag16
ag13
ag6
ag6
ag5
ag5
ag10
ag10
ag5
ag13
ag16
ag5
ag6
ag3
ag6
ag10
ag3
ag6
ag6
ag1
ag1
ag8
ag3
ag1
ag5
ag42
ag6
ag1
ag6
ag3
ag5
ag15
ag3
ag1
ag12
ag2
ag10
ag6
ag3
ag6
ag4
ag5
ag1
ag1
ag1
ag6
aVu
p238
ag1
ag15
ag2
ag6
ag6
ag5
ag8
ag4
ag1
ag6
ag1
ag6
ag5
ag2
ag6
ag12
ag4
ag1
ag1
ag3
ag6
ag10
ag3
ag6
ag4
ag6
ag16
ag6
ag1
ag6
ag3
ag5
ag6
ag1
ag4
ag5
ag14
ag13
ag8
ag1
ag15
ag2
ag6
ag13
ag6
ag8
ag1
ag11
ag6
ag3
ag15
ag6
ag1
ag6
ag3
ag5
ag13
ag5
ag13
ag1
aVg
p239
ag1
ag1
ag6
ag23
ag13
ag1
aVf
p240
ag3
ag5
ag5
ag4
ag1
ag3
ag1
ag1
ag6
ag3
ag5
ag8
ag8
ag1
ag6
ag2
ag6
aVb
p241
ag3
ag12
ag1
aVk
p242
ag3
ag3
ag1
ag15
ag4
ag1
ag1
ag3
ag6
ag10
ag10
ag3
ag42
ag6
ag5
ag6
ag23
ag13
ag5
ag2
ag6
aVv
p243
ag15
aVr
p244
ag6
ag13
ag2
ag6
ag1
ag6
ag3
ag4
ag1
ag8
ag10
ag3
ag6
ag8
ag8
ag1
ag6
ag12
ag2
ag10
ag3
ag6
ag8
ag5
ag13
ag13
ag5
ag5
ag6
ag2
ag8
ag1
ag11
ag4
ag6
ag5
ag4
ag3
ag6
ag5
ag42
ag1
ag6
ag8
ag2
ag6
ag11
ag6
ag3
ag5
ag5
ag3
ag4
ag17
ag3
ag6
ag5
ag11
ag6
ag2
ag6
ag8
ag2
ag6
ag8
ag5
ag13
ag5
ag1
ag6
aVc
p245
ag3
ag4
ag17
ag16
ag6
ag1
ag8
ag5
ag13
ag13
ag16
ag13
ag1
ag6
ag5
ag1
ag4
ag6
ag2
ag8
ag8
ag10
ag3
ag6
ag4
ag13
ag6
ag5
ag5
ag6
ag2
ag8
ag12
ag2
ag6
ag3
ag6
ag2
ag1
ag8
ag4
ag3
ag4
ag17
ag4
ag1
ag2
ag8
ag3
ag6
ag5
ag42
ag1
ag6
ag16
ag6
ag11
ag6
ag3
ag5
ag3
ag6
ag3
ag8
ag15
ag1
ag13
ag6
ag12
ag3
ag5
ag12
ag6
ag3
ag8
ag3
ag6
ag23
ag13
ag6
ag1
ag4
ag6
ag5
ag1
ag15
ag6
ag3
ag3
ag6
ag5
ag42
ag1
ag6
aVp
p246
ag3
ag6
ag8
ag8
ag1
ag6
ag5
ag4
ag13
ag6
ag2
ag8
ag1
ag10
ag10
ag3
ag6
ag1
ag6
ag10
ag6
ag3
ag13
ag3
ag6
ag6
ag10
ag6
ag1
ag6
ag1
ag4
ag6
ag8
ag3
ag4
ag17
ag11
ag4
ag6
ag5
ag4
ag12
ag3
ag2
ag15
ag2
ag6
ag3
ag6
ag10
ag6
ag3
ag13
ag3
ag6
ag12
ag2
ag6
ag1
ag4
ag3
ag4
ag17
ag3
ag6
ag10
ag3
ag6
ag6
ag1
ag12
ag2
ag3
ag6
ag4
ag1
ag11
ag6
ag1
ag1
ag5
ag8
ag5
ag13
ag13
ag16
ag13
ag1
ag10
ag3
ag16
ag5
ag6
ag23
ag13
ag1
ag8
ag1
ag15
ag2
ag6
ag6
ag8
ag8
ag6
ag4
ag8
ag10
ag3
ag6
ag8
ag5
ag13
ag1
ag3
ag4
ag17
ag10
ag3
ag10
ag6
ag3
ag6
ag3
ag6
ag23
ag13
ag3
ag6
ag1
ag8
ag3
ag1
ag16
ag13
ag2
ag6
ag4
ag3
ag4
ag17
ag1
ag10
ag3
ag6
ag8
ag8
ag1
ag6
ag3
ag16
ag13
ag1
ag1
ag1
ag2
ag6
ag4
ag10
ag5
ag6
ag42
ag13
ag5
ag1
ag11
ag4
ag8
ag2
ag6
ag10
ag13
ag3
ag6
ag8
ag5
ag13
ag20
ag13
ag2
ag5
ag11
ag3
ag1
ag8
ag12
ag11
ag6
ag8
ag6
ag5
ag4
ag2
ag3
ag4
ag6
ag3
ag4
ag13
ag4
ag2
ag3
ag11
ag6
ag5
ag6
ag3
ag3
ag6
ag8
ag5
ag6
ag4
ag1
ag10
ag5
ag13
ag6
ag10
ag5
ag1
ag10
ag3
ag1
ag3
ag5
ag6
ag1
ag2
ag6
ag6
ag1
ag8
ag4
ag1
ag8
ag8
ag3
ag4
ag13
ag3
ag6
ag6
ag3
ag1
ag11
ag6
ag3
ag6
ag5
ag3
ag10
ag4
ag6
ag13
ag12
ag2
ag2
ag3
ag20
ag1
ag5
ag6
ag3
ag42
aVh
p247
ag6
ag13
ag2
ag6
ag10
ag5
ag6
ag20
ag13
ag2
ag5
ag5
ag1
ag3
ag10
ag4
ag6
ag5
ag10
ag4
ag5
ag5
ag13
ag6
ag6
ag4
ag3
ag16
ag6
ag1
ag6
ag6
ag8
ag11
ag6
ag3
ag4
ag5
ag8
ag3
ag4
ag13
ag3
ag6
ag2
ag6
ag3
ag6
ag6
ag42
ag1
ag6
ag4
ag2
ag1
ag23
ag13
ag6
ag1
ag1
ag13
ag3
ag3
ag6
ag4
ag11
ag6
ag3
ag1
ag3
ag10
ag4
ag10
ag3
ag6
ag6
ag3
ag16
ag6
ag1
ag11
ag6
ag13
ag6
ag23
ag13
ag1
ag1
ag5
ag1
ag6
ag3
ag20
ag6
ag3
ag6
ag8
ag5
ag6
ag4
ag1
ag4
ag6
ag8
ag8
ag4
ag6
ag1
ag13
ag1
ag15
ag13
ag4
ag2
ag6
ag5
aVh
p248
ag12
ag6
ag11
ag6
ag3
ag8
ag2
ag6
ag6
ag2
ag2
ag11
ag6
ag5
ag1
ag1
ag6
ag8
ag1
ag1
ag15
ag10
ag3
ag10
ag6
ag3
ag6
ag8
ag2
ag6
ag8
ag3
ag4
ag13
ag3
ag6
ag13
ag6
ag5
ag1
ag6
ag3
ag20
ag1
ag1
ag10
ag2
ag4
ag5
ag10
ag10
ag3
ag42
ag1
ag13
ag6
ag1
ag2
ag6
ag3
ag6
ag11
ag6
ag5
ag10
ag6
ag1
ag2
ag13
ag20
ag13
ag2
ag5
ag1
ag5
ag8
ag3
ag11
ag6
ag5
ag6
ag16
ag6
ag1
ag1
ag3
ag5
ag11
ag6
ag13
ag6
ag5
ag5
ag10
ag6
ag3
ag6
ag4
ag11
ag6
ag3
ag42
ag13
ag8
ag2
ag3
ag6
ag6
ag6
ag13
ag10
ag3
ag6
ag6
ag3
ag1
ag6
ag8
ag2
ag6
ag3
ag6
ag23
ag13
ag3
ag6
ag8
ag11
ag6
aVl
p249
ag1
ag6
ag3
ag20
ag1
ag6
ag1
ag10
ag5
ag1
ag6
ag12
ag11
ag6
ag3
ag6
ag8
ag5
ag6
ag4
ag1
ag4
ag6
ag8
ag8
ag4
ag6
ag1
aVp
p250
aVw
p251
aVr
p252
aVc
p253
ag5
ag2
ag6
ag10
ag5
ag13
ag6
ag11
ag6
ag3
ag13
ag8
ag8
ag6
aVv
p254
ag1
ag5
ag5
ag5
ag1
ag4
ag6
ag1
ag1
ag15
ag5
ag6
ag1
ag12
ag6
ag17
ag4
ag1
ag3
ag1
ag6
ag3
ag8
ag4
ag6
ag1
ag11
ag6
ag3
ag1
ag16
ag6
ag1
ag20
ag13
ag2
ag5
aVw
p255
ag6
ag2
ag11
ag6
ag6
ag11
ag6
ag5
ag10
ag6
ag6
ag2
ag1
ag5
ag4
ag5
ag5
ag6
ag11
ag5
ag13
ag6
ag2
ag6
ag3
ag6
ag5
ag1
ag2
ag10
ag16
ag6
ag12
ag6
ag6
ag1
ag2
ag6
ag13
ag3
ag4
ag6
ag3
ag6
ag4
ag6
ag11
ag6
ag3
ag4
ag1
ag8
ag15
ag13
ag3
ag1
ag1
ag2
ag6
ag3
ag6
ag3
ag6
ag11
ag6
ag12
ag11
ag6
ag8
ag6
ag5
ag1
ag6
ag4
ag1
ag6
ag3
ag8
ag6
ag3
ag6
ag3
ag10
ag6
ag3
ag8
ag3
ag6
ag16
ag13
ag5
ag6
ag1
ag1
ag5
ag6
ag4
ag1
ag11
ag5
ag13
ag1
ag2
ag6
ag6
ag2
ag3
ag6
ag3
ag6
ag11
ag6
ag2
ag6
ag12
ag11
ag6
ag8
ag6
ag5
ag12
ag2
ag2
ag6
ag6
ag3
ag6
ag13
ag3
ag4
ag6
ag3
ag6
ag4
ag6
ag11
ag6
ag3
ag4
ag1
ag8
ag15
ag13
ag3
ag1
ag8
ag3
ag2
ag6
ag16
ag6
ag3
ag11
ag6
ag12
ag11
ag6
ag8
ag6
ag5
ag12
ag2
ag13
ag13
ag3
ag4
ag6
ag1
ag8
ag3
ag1
aVw
p256
ag6
ag13
ag6
ag1
ag15
ag13
ag5
ag3
ag11
ag5
ag13
ag6
ag6
ag4
ag10
ag1
aVv
p257
ag10
ag10
ag3
ag4
ag2
ag5
ag11
ag6
ag2
ag6
ag1
ag11
ag6
ag3
ag6
ag10
ag3
ag16
ag5
ag6
ag8
aVb
p258
ag1
ag3
ag13
ag4
ag1
ag15
aVv
p259
ag1
ag12
ag6
ag16
ag1
ag6
ag23
ag13
ag1
ag6
ag2
ag3
ag6
ag11
ag6
ag5
ag6
ag2
ag6
ag4
ag2
ag3
ag4
ag6
ag3
ag4
ag8
ag2
ag6
ag1
ag11
ag6
ag3
ag6
ag10
ag3
ag16
ag5
ag6
ag1
ag1
ag6
ag3
ag10
ag3
ag6
ag6
ag2
ag6
ag6
ag8
ag8
ag6
ag4
ag8
ag2
ag6
ag1
ag5
ag13
ag3
ag4
ag6
ag3
ag6
ag4
ag6
ag11
ag6
ag3
ag4
ag1
ag8
ag15
ag13
ag3
ag1
ag8
ag3
ag13
ag3
ag11
ag6
ag6
ag15
ag1
aVw
p260
ag6
ag1
ag13
ag6
ag3
ag4
ag5
ag5
ag13
ag5
ag6
ag2
ag6
ag12
ag11
ag6
ag8
ag6
ag5
ag12
ag2
ag24
ag6
ag5
ag1
ag1
ag11
ag6
ag15
ag6
ag2
ag6
ag3
ag1
ag17
ag8
ag2
ag6
ag1
ag4
ag6
ag1
ag8
ag6
ag5
ag3
ag42
ag8
ag2
ag6
ag1
ag11
ag6
ag3
ag6
ag10
ag3
ag16
ag5
ag6
aVw
p261
ag2
ag13
ag3
ag4
ag6
ag3
ag3
ag8
ag6
ag1
ag4
ag5
ag5
ag6
ag1
ag15
ag2
ag10
ag3
ag6
ag1
ag6
ag1
ag6
ag13
ag3
ag4
ag6
ag3
ag16
ag13
ag1
ag3
ag6
ag13
ag5
ag6
ag1
ag1
ag1
ag4
ag6
ag1
ag8
ag6
ag5
ag3
ag42
ag8
ag2
ag6
ag6
ag3
ag1
ag17
ag1
ag3
ag6
ag3
ag6
ag11
ag6
ag2
ag6
ag6
ag12
ag11
ag6
ag8
ag6
ag5
ag2
ag6
ag3
ag6
ag8
ag3
ag6
ag2
ag6
ag10
ag13
ag13
ag3
ag4
ag6
ag3
ag16
ag13
ag1
ag4
ag1
ag16
ag6
aVw
p262
ag11
ag6
ag8
ag3
ag1
ag11
ag6
ag3
ag1
ag2
ag6
ag6
ag2
ag8
ag4
ag2
ag4
ag6
ag8
ag3
ag6
ag6
ag3
ag1
ag1
ag15
ag2
ag15
ag2
ag5
ag2
ag6
ag6
ag3
ag15
ag6
ag1
ag6
ag13
ag13
ag16
ag13
ag3
ag8
ag4
ag6
ag3
ag13
ag4
ag13
ag3
ag6
aVh
p263
ag12
ag6
ag11
ag6
ag3
ag4
ag1
ag11
ag6
ag1
ag1
ag5
ag12
ag11
ag6
ag8
ag3
ag1
ag11
ag6
ag3
ag1
ag3
ag6
ag23
ag13
ag3
ag6
ag2
ag2
ag6
ag12
ag11
ag6
ag8
ag6
ag5
ag8
ag3
ag6
ag4
ag2
ag13
ag3
ag4
ag6
ag4
ag10
ag13
ag6
ag6
ag10
ag3
ag6
ag5
ag2
ag17
ag6
ag11
ag6
ag3
ag6
ag42
ag10
ag6
ag1
ag11
ag6
ag8
ag3
ag3
ag6
ag5
ag4
ag56
ag6
ag4
ag13
ag3
ag11
ag6
ag13
ag3
ag4
ag6
ag6
ag1
ag4
ag1
ag15
ag12
ag11
ag6
ag8
ag3
ag1
ag11
ag6
ag3
ag1
ag1
ag12
ag2
ag4
ag2
ag2
ag6
ag13
ag3
ag4
ag6
ag3
ag6
ag6
ag5
ag6
ag13
ag5
ag1
ag6
ag13
ag5
ag4
ag1
ag6
ag3
ag16
ag5
ag8
ag6
ag3
ag2
ag1
ag4
ag1
ag11
ag6
ag1
ag1
ag5
ag12
ag11
ag6
ag8
ag3
ag1
ag11
ag6
ag3
ag1
ag16
ag13
ag13
ag8
ag8
ag6
ag3
ag8
ag3
ag3
ag8
ag4
ag2
ag6
ag6
ag3
ag8
ag4
ag4
ag1
ag10
ag3
ag5
ag16
ag6
ag3
ag6
ag11
ag6
ag16
ag15
ag1
ag1
ag15
ag3
ag1
ag12
ag6
ag15
ag2
ag2
ag6
ag13
ag3
ag4
ag6
ag12
ag11
ag6
ag8
ag6
ag5
aVw
p264
ag6
ag8
ag13
ag1
ag2
ag2
ag6
ag8
ag8
ag13
ag1
ag4
ag1
ag1
ag2
ag6
ag3
ag6
ag8
ag3
ag6
ag5
ag15
ag3
ag6
ag1
ag8
ag3
ag13
ag3
ag4
ag6
ag6
ag1
ag4
ag1
ag15
ag12
ag11
ag6
ag8
ag3
ag1
ag11
ag6
ag3
ag1
ag1
ag13
ag1
ag16
ag6
ag3
ag1
ag6
ag1
ag8
ag2
ag6
ag8
ag8
ag13
ag1
ag4
ag1
ag13
ag6
ag1
ag4
ag1
ag11
ag6
ag1
ag1
ag5
ag12
ag11
ag6
ag8
ag3
ag1
ag11
ag6
ag3
ag1
aVw
p265
ag6
ag8
ag13
ag1
ag1
ag6
ag12
ag6
ag2
ag8
ag13
ag3
ag4
ag6
ag6
ag1
ag4
ag1
ag15
ag12
ag11
ag6
ag8
ag3
ag1
ag11
ag6
ag3
ag1
ag2
ag17
ag6
ag1
ag4
ag4
ag13
ag1
ag2
ag6
ag3
ag1
ag1
ag13
ag3
ag6
ag8
ag2
ag6
ag15
ag3
ag6
ag1
ag13
ag6
ag1
ag2
ag6
ag10
ag20
ag1
ag1
ag2
ag1
ag6
ag12
ag6
ag2
ag2
ag6
ag15
ag3
ag6
ag1
ag6
ag4
ag2
ag6
ag3
ag1
ag12
ag6
ag15
ag2
ag6
ag11
ag6
ag3
ag15
ag6
ag8
ag10
ag15
ag3
ag6
ag1
ag13
ag4
ag2
ag2
ag2
ag6
ag3
ag6
ag4
ag6
ag1
ag15
ag3
ag3
ag6
ag4
ag6
ag1
ag5
ag10
ag3
ag10
ag6
ag6
ag2
ag4
ag5
ag5
ag6
ag6
ag1
ag8
ag10
ag3
ag3
ag6
ag16
ag10
ag3
ag6
ag1
ag11
ag6
ag3
ag1
aVe
p266
aVp
p267
ag11
ag2
ag6
ag1
ag6
ag6
ag8
ag3
ag10
ag11
ag6
ag13
ag16
ag3
ag4
ag1
ag8
ag10
ag10
ag3
ag42
ag6
ag13
ag5
ag10
ag5
ag6
ag10
ag3
ag6
ag4
ag1
ag16
ag3
ag6
ag4
ag5
ag1
ag11
ag6
ag3
ag1
ag15
ag8
ag3
ag2
ag6
ag13
ag5
ag10
ag5
ag6
ag8
ag3
ag6
ag6
ag13
ag16
ag13
ag3
ag8
ag4
ag6
ag10
ag13
ag5
ag6
ag3
ag6
ag10
ag1
ag6
ag4
ag5
ag5
ag6
ag4
ag1
ag8
ag16
ag1
ag5
ag6
ag10
ag17
ag6
ag5
ag2
ag13
ag15
ag2
ag4
ag1
ag16
ag6
ag2
ag12
ag1
ag2
ag2
ag6
ag4
ag3
ag3
ag6
ag4
ag10
ag3
ag3
ag10
ag13
ag5
ag6
ag3
ag6
ag10
ag1
ag6
ag16
ag1
ag6
ag2
ag3
ag13
ag15
ag2
ag2
ag6
ag10
ag3
ag6
ag10
ag16
ag5
ag6
ag5
ag13
ag1
ag2
ag6
ag3
ag15
ag1
ag5
aVe
p268
aVp
p269
ag5
ag15
ag3
ag2
ag12
ag1
ag6
ag15
ag1
ag6
ag17
ag6
ag11
ag1
ag15
ag6
ag8
ag2
ag3
ag6
ag13
ag5
ag1
ag1
ag6
ag3
ag6
ag5
ag6
ag1
ag13
ag5
ag13
ag6
ag8
ag1
ag11
ag6
ag3
ag1
ag10
ag3
ag6
ag6
ag3
ag13
ag4
ag2
ag2
ag6
ag5
ag6
ag11
ag6
ag5
ag8
ag10
ag3
ag10
ag6
ag3
ag15
ag3
ag6
ag1
ag13
ag10
ag6
aVw
p270
ag6
ag10
ag3
ag10
ag6
ag1
ag6
ag6
ag1
ag6
ag12
ag5
ag15
ag3
ag2
ag1
ag6
ag3
ag16
ag13
aVe
p271
aVp
p272
ag1
ag12
ag2
ag4
ag2
ag12
ag6
ag17
ag6
ag16
ag1
ag1
ag15
ag2
ag6
ag10
ag3
ag6
ag5
ag13
ag1
ag1
ag6
ag42
ag10
ag5
ag4
ag15
ag5
ag13
ag3
ag10
ag10
ag3
ag4
ag2
ag3
ag6
ag1
ag15
ag3
ag6
ag1
ag16
ag6
ag10
ag10
ag3
ag4
ag2
ag5
ag17
ag6
ag2
ag6
ag3
ag15
ag1
ag5
ag5
ag15
ag3
ag2
ag16
ag13
ag6
ag3
ag11
ag6
ag8
ag3
ag1
ag6
ag12
ag16
ag4
ag1
ag11
ag6
ag42
ag10
ag20
ag1
ag8
ag3
ag6
ag12
ag3
ag17
ag16
ag6
ag1
ag1
ag6
ag42
ag6
ag1
ag6
ag16
ag10
ag13
ag3
ag13
ag6
ag1
ag1
ag15
ag8
ag3
ag13
ag5
ag1
aVf
p273
ag13
ag3
ag2
ag6
ag3
ag3
ag6
ag16
ag6
ag4
ag13
ag6
ag16
ag6
ag1
ag15
ag6
ag1
ag6
ag3
ag5
ag8
ag3
ag6
ag12
ag3
ag17
ag3
ag16
ag13
aVe
p274
aVp
p275
ag4
ag1
ag3
ag6
ag4
ag11
ag6
ag3
ag2
ag6
ag10
ag13
ag5
ag6
ag3
ag6
ag10
ag1
ag6
ag1
ag8
ag8
ag3
ag4
ag1
ag6
ag11
ag6
ag1
ag4
ag1
ag1
ag3
ag6
ag3
ag6
ag4
ag1
ag8
ag3
ag1
ag1
ag2
ag6
ag6
ag13
ag11
ag6
ag5
ag4
ag2
ag1
ag3
ag6
ag8
ag5
ag6
ag4
ag1
ag6
ag11
ag6
ag1
aVw
p276
ag6
ag2
ag11
ag6
ag6
ag11
ag6
ag5
ag10
ag6
ag6
ag2
ag8
ag3
ag15
ag3
ag1
ag11
ag6
ag5
ag4
ag10
ag3
ag11
ag6
ag6
ag1
ag1
ag8
ag8
ag3
ag4
ag1
ag5
ag4
ag5
ag20
ag1
ag16
ag6
ag1
ag11
ag6
ag13
ag1
ag5
ag8
ag11
ag6
ag3
ag3
ag13
ag1
ag6
ag3
ag15
ag3
ag6
ag8
ag8
ag3
ag4
ag1
ag6
ag11
ag6
ag1
ag1
ag2
ag6
ag6
ag10
ag2
ag1
ag2
ag6
ag6
ag2
ag13
ag6
ag1
ag1
ag5
ag11
ag6
ag5
ag4
ag6
ag5
ag1
ag10
ag13
ag10
ag3
ag11
ag6
ag1
ag13
ag10
ag6
ag2
ag6
ag11
ag6
ag5
ag4
ag6
ag5
ag1
ag8
ag8
ag3
ag4
ag1
ag5
ag4
ag1
ag1
ag2
ag6
ag6
ag10
ag2
ag1
ag3
ag6
ag13
ag5
ag2
ag6
ag5
ag15
ag3
ag2
ag16
ag6
ag1
ag2
ag6
ag8
ag4
ag13
ag1
ag15
ag8
ag3
ag6
ag15
ag3
ag1
ag3
ag14
ag6
ag4
ag3
ag6
ag8
ag3
ag1
ag4
ag3
ag3
ag6
ag4
ag5
ag15
ag3
ag6
ag8
ag8
ag3
ag4
ag1
ag4
ag13
ag3
ag11
ag6
ag2
ag6
ag6
ag3
ag14
ag6
ag4
ag3
ag6
ag3
ag6
ag4
ag1
ag3
ag13
ag4
ag6
ag16
ag10
ag10
ag5
ag1
ag15
ag3
ag3
ag4
ag1
ag15
ag5
ag17
ag6
ag10
ag10
ag3
ag4
ag2
ag2
ag6
ag15
ag6
ag12
ag11
ag6
ag6
ag23
ag13
ag1
ag8
ag3
ag11
ag6
ag5
ag4
ag4
ag1
ag1
ag13
ag1
ag2
ag6
ag3
ag1
ag15
ag10
ag1
ag8
ag2
ag6
ag3
ag14
ag6
ag4
ag3
ag6
ag3
ag6
ag16
ag1
ag6
ag8
ag3
ag8
ag1
ag15
ag1
ag6
ag5
ag5
ag10
ag6
ag3
ag2
ag10
ag6
ag3
ag16
ag5
ag2
ag6
ag10
ag4
ag17
ag6
ag13
ag1
ag4
ag5
ag5
ag10
ag6
ag8
ag8
ag3
ag4
ag1
ag6
ag11
ag6
ag1
ag1
ag2
ag6
ag6
ag10
ag2
ag15
ag3
ag6
ag1
aVf
p277
ag4
ag13
ag1
ag15
ag8
ag2
ag6
ag3
ag6
ag15
ag3
ag1
ag3
ag14
ag6
ag4
ag3
ag6
ag10
ag1
ag13
ag2
ag6
ag10
ag10
ag3
ag42
ag6
ag5
ag4
ag1
ag8
ag2
ag6
ag4
ag6
ag8
ag8
ag3
ag4
ag3
ag12
ag6
ag5
ag5
ag5
ag4
ag5
ag11
ag6
ag5
ag4
ag3
ag16
ag13
ag6
ag10
ag3
ag8
ag3
ag2
ag6
ag15
ag3
aVw
p278
ag2
ag2
ag6
ag3
ag6
ag12
ag6
ag10
ag3
ag6
ag1
ag3
ag13
ag4
ag1
ag8
ag13
ag5
ag4
ag10
ag1
ag6
ag1
ag3
ag6
ag4
ag3
ag1
ag15
ag6
ag11
ag4
ag6
ag1
ag5
ag1
ag1
ag3
ag1
ag6
ag4
ag6
ag1
ag16
ag6
ag4
ag4
ag23
ag13
ag1
ag6
ag5
ag4
ag15
ag1
ag15
ag16
ag6
ag4
ag6
ag1
ag3
ag6
ag1
ag4
ag1
ag15
ag6
ag3
aVw
p279
ag6
ag2
ag11
ag6
ag6
ag3
ag11
ag6
ag1
ag6
ag12
ag1
ag1
ag5
ag1
ag6
ag3
ag6
ag5
ag4
ag15
ag1
ag15
ag4
ag1
ag1
ag4
ag3
ag3
ag6
ag5
ag1
ag10
ag6
ag3
ag6
ag10
ag3
ag6
ag6
ag1
ag1
ag2
ag6
ag3
ag6
ag8
ag3
ag10
ag6
ag3
ag13
ag3
ag16
ag6
ag6
ag5
ag4
ag6
ag4
ag1
ag5
ag13
ag6
ag1
ag6
ag4
ag1
ag6
ag3
ag8
ag6
ag3
ag6
ag3
ag6
ag42
ag10
ag5
ag1
ag2
ag12
ag4
ag6
ag3
ag6
ag12
ag11
ag6
ag3
ag6
ag10
ag1
ag6
ag16
ag6
ag12
ag6
ag6
ag1
ag12
ag3
ag6
ag4
ag6
ag11
ag6
ag3
ag13
ag3
ag4
ag6
ag16
ag6
ag10
ag3
ag6
ag4
ag6
ag15
ag11
ag6
ag1
ag16
ag13
ag1
ag3
ag8
ag13
ag3
ag4
ag6
ag3
ag6
ag4
ag6
ag11
ag6
ag3
ag4
ag1
ag16
ag6
ag4
ag1
ag6
ag3
ag6
ag3
ag1
ag15
ag10
ag1
ag8
ag3
ag2
ag6
ag6
ag3
ag11
ag1
aVh
p280
ag6
ag3
ag6
ag12
ag6
ag13
ag6
ag2
ag2
ag6
ag3
ag6
ag6
ag3
ag11
ag6
ag1
ag1
ag6
ag3
ag10
ag3
ag6
ag15
ag1
ag15
ag4
ag1
ag1
ag8
ag3
ag6
ag5
ag4
ag15
ag3
ag1
ag16
ag12
ag11
ag6
ag8
ag6
ag5
ag6
ag42
ag3
ag10
ag5
ag1
ag6
ag15
ag6
ag5
ag4
ag3
ag6
ag11
ag6
ag3
ag6
ag6
ag15
ag3
ag1
ag6
ag10
ag10
ag3
ag42
ag1
ag5
ag6
ag17
ag1
ag12
ag1
ag2
ag6
ag13
ag3
ag4
ag5
ag5
ag6
ag3
ag11
ag6
ag15
ag1
ag15
ag4
ag1
ag1
ag2
ag4
ag3
ag4
ag3
ag3
ag6
ag5
ag6
aVp
p281
ag1
ag12
ag11
ag6
ag10
ag6
ag1
ag5
ag2
ag3
ag6
ag6
ag10
ag3
ag6
ag1
ag2
ag6
ag13
ag16
ag13
ag3
ag8
ag4
ag6
ag8
ag6
ag3
ag8
ag13
ag5
ag5
ag12
ag11
ag6
ag8
ag6
ag5
ag6
ag42
ag3
ag10
ag5
ag1
ag2
ag8
ag3
ag5
ag4
ag1
ag1
ag6
ag4
ag1
ag3
ag6
ag11
ag6
ag5
ag2
ag2
ag6
ag1
ag1
ag10
ag10
ag3
ag42
ag6
ag4
ag3
ag3
ag6
ag5
ag1
ag10
ag6
ag3
ag6
ag10
ag3
ag6
ag6
ag1
ag1
ag2
ag6
ag3
ag6
ag4
ag1
ag16
ag6
ag1
ag6
ag3
ag10
ag3
ag6
ag6
ag6
ag4
ag15
ag3
ag1
ag13
ag5
ag4
ag2
ag1
ag1
ag6
ag5
ag10
ag3
ag4
ag6
ag1
ag12
ag2
ag4
ag2
ag6
ag8
ag2
ag6
ag10
ag3
ag10
ag6
ag3
ag6
ag6
ag10
ag6
ag1
ag1
ag11
ag3
ag13
ag15
ag3
ag10
ag4
ag1
ag15
aVf
p282
ag3
ag2
ag6
ag3
ag6
ag2
ag6
ag4
ag23
ag13
ag1
ag15
ag3
ag12
ag2
ag4
ag2
ag4
ag13
ag5
ag5
ag4
ag1
ag8
ag12
ag15
ag3
ag15
ag3
ag8
ag13
ag3
ag4
ag6
ag5
ag4
ag1
ag1
ag8
ag3
ag6
ag4
ag2
ag13
ag3
ag4
ag6
ag5
ag4
ag1
ag15
ag3
ag8
ag3
ag6
ag4
ag6
ag11
ag6
ag3
ag5
ag4
ag1
ag1
ag1
ag2
ag6
ag3
ag6
ag2
ag3
ag15
ag3
ag2
ag6
ag15
ag3
ag1
ag15
ag3
ag12
ag2
ag6
ag10
ag4
ag1
ag15
ag5
ag8
ag8
ag6
ag4
ag10
ag3
ag10
ag6
ag3
ag6
ag8
ag2
ag6
ag15
ag3
ag1
ag10
ag5
ag1
ag15
ag2
ag6
ag3
ag10
ag6
ag3
ag6
ag3
ag4
ag1
ag1
ag15
ag3
ag1
ag5
ag1
ag15
ag2
ag6
ag8
ag3
ag6
ag23
ag13
ag6
ag1
ag4
ag4
ag1
ag6
ag1
ag2
ag4
ag1
ag16
ag6
ag15
ag3
ag6
ag3
ag6
ag5
ag16
ag5
ag15
ag11
ag6
ag1
ag2
ag6
ag15
ag3
ag10
ag4
ag1
ag15
ag2
ag6
ag10
ag3
ag6
ag6
ag1
ag4
ag6
ag8
ag2
ag3
ag6
ag6
ag15
ag3
ag4
ag10
ag5
ag4
ag6
ag2
ag6
ag10
ag10
ag5
ag4
ag1
ag8
ag10
ag5
ag1
ag15
ag2
ag6
ag3
ag6
ag42
ag4
ag6
ag10
ag1
ag13
ag1
ag13
ag13
ag5
ag13
ag1
ag6
ag15
ag2
ag6
ag5
ag6
ag15
ag3
ag1
ag8
ag1
ag15
ag5
ag6
ag2
ag3
ag6
ag4
ag3
ag1
ag5
ag20
ag6
ag2
ag6
ag6
ag8
ag8
ag6
ag4
ag8
ag2
ag6
ag15
ag3
ag1
ag8
ag8
ag6
ag3
ag6
ag1
ag10
ag6
ag8
ag15
ag3
ag1
aVk
p283
ag3
ag4
ag2
ag2
ag8
ag8
ag12
ag11
ag6
ag8
ag6
ag5
ag6
ag42
ag3
ag10
ag5
ag1
ag15
ag3
ag1
ag1
ag5
ag1
ag4
ag17
ag15
ag3
ag1
ag10
ag6
ag4
ag8
ag4
ag5
ag5
ag1
ag2
ag6
ag4
ag1
ag6
ag42
ag8
ag15
ag3
ag1
ag10
ag6
ag3
ag3
ag1
ag5
ag1
ag15
ag6
ag11
ag5
ag13
ag6
ag15
ag6
ag1
ag6
ag3
ag5
ag1
ag5
ag1
ag15
ag4
ag3
ag6
ag3
ag8
ag3
ag2
ag6
ag8
ag8
ag6
ag3
ag6
ag1
ag10
ag6
ag8
ag15
ag3
ag1
ag6
ag42
ag10
ag5
ag6
ag10
ag5
ag4
ag6
ag10
ag3
ag4
ag13
ag5
ag3
ag6
ag10
ag2
ag1
ag2
ag6
ag16
ag5
ag6
ag11
ag15
ag3
ag6
ag1
ag6
ag6
ag10
ag6
ag6
ag4
ag6
ag1
ag10
ag3
ag11
ag6
ag1
ag13
ag6
ag3
ag4
ag5
ag5
ag6
ag8
ag8
ag4
ag6
ag1
ag6
ag3
ag11
ag6
ag16
ag6
ag1
ag1
ag15
ag5
ag15
ag3
ag2
ag8
ag3
ag12
ag10
ag1
ag3
ag3
ag4
ag1
ag15
ag2
ag1
ag6
ag12
ag5
ag15
ag3
ag2
ag2
ag11
ag1
ag15
ag6
ag1
ag3
ag6
ag5
ag11
ag6
ag6
ag6
ag8
ag1
ag13
ag6
ag3
ag4
ag5
ag10
ag5
ag6
ag6
ag1
ag1
ag16
ag5
ag10
ag3
ag11
ag6
ag4
ag4
ag13
ag3
ag6
ag5
ag13
ag1
ag1
ag4
ag1
ag1
ag13
ag13
ag11
ag6
ag5
ag4
ag8
ag6
ag5
ag1
ag4
ag5
ag13
ag1
ag15
ag2
ag6
ag12
ag11
ag6
ag5
ag13
ag1
ag1
ag16
ag5
ag12
ag2
ag6
ag1
ag2
ag11
ag6
ag5
ag4
ag8
ag6
ag5
ag3
ag6
ag13
ag6
ag10
ag3
ag11
ag6
ag4
ag4
ag13
ag3
ag6
ag5
ag13
ag1
ag12
ag2
ag5
ag6
ag13
ag1
ag15
ag3
ag6
ag5
ag11
ag6
ag5
ag8
ag6
ag12
ag3
ag6
ag15
ag6
ag1
ag2
ag6
ag5
ag15
ag3
ag2
ag12
ag6
ag11
ag1
ag15
ag6
ag10
ag5
ag4
ag1
ag13
ag3
ag6
ag12
ag2
ag4
ag2
ag1
ag2
ag6
ag3
ag8
ag3
ag2
ag6
ag16
ag5
ag6
ag11
ag15
ag3
ag6
ag1
ag5
ag13
ag1
ag6
ag2
aVf
p284
ag3
ag6
ag5
ag2
ag6
ag5
ag15
ag3
ag2
ag4
ag1
ag16
ag6
ag10
ag5
ag6
ag6
ag1
ag6
ag13
ag4
ag2
ag2
ag4
ag1
ag11
ag6
ag3
ag15
ag6
ag1
ag4
ag6
ag2
ag6
ag1
ag3
ag8
ag2
ag6
ag15
ag3
ag6
ag1
ag10
ag10
ag3
ag4
ag2
ag6
ag20
ag6
ag3
ag2
ag13
ag4
ag1
ag11
ag6
ag3
ag15
ag6
ag1
ag4
ag6
ag10
ag5
ag6
ag1
ag3
ag10
ag1
ag8
ag2
ag6
ag3
ag11
ag6
ag5
ag6
ag1
ag6
ag15
ag3
ag5
ag15
ag13
ag3
ag1
ag6
ag6
ag1
ag15
ag2
ag2
ag6
ag3
ag8
ag13
ag1
ag8
aVf
p285
ag6
ag3
ag10
ag3
ag1
ag4
ag10
ag5
ag6
ag6
ag5
ag1
ag15
ag1
ag15
ag1
ag15
ag6
ag4
ag2
ag1
ag23
ag13
ag6
ag8
ag3
ag15
ag6
ag10
ag2
ag4
ag3
ag6
ag6
ag42
ag3
ag6
ag6
ag5
ag6
ag1
ag1
ag15
ag1
ag6
ag3
ag8
ag4
ag10
ag13
ag1
ag5
ag3
ag6
ag13
ag3
ag4
ag6
ag6
ag4
ag6
ag10
ag3
ag6
ag5
ag11
ag6
ag5
ag5
ag6
ag3
ag4
ag5
ag6
ag1
ag6
ag6
ag10
ag6
ag3
ag3
ag15
ag6
ag1
ag1
ag4
ag3
ag6
ag1
ag15
ag5
ag3
ag6
ag4
ag10
ag5
ag6
ag42
ag15
ag6
ag5
ag15
ag4
ag6
ag1
ag15
aVf
p286
ag1
ag6
ag6
ag5
ag6
ag6
ag1
ag6
ag1
ag16
ag5
ag6
ag4
ag4
ag13
ag3
ag6
ag13
ag5
ag1
ag8
ag6
ag6
ag10
ag6
ag1
ag6
ag1
ag12
ag11
ag6
ag10
ag3
ag10
ag15
ag1
ag1
ag2
ag6
ag6
ag3
ag15
ag6
ag1
ag6
ag13
ag6
ag2
ag6
ag3
ag6
ag3
ag6
ag4
ag5
ag2
ag1
ag8
ag1
ag6
ag8
ag8
ag6
ag3
ag6
ag1
ag4
ag6
ag6
ag2
ag16
ag13
ag2
ag4
ag10
ag6
ag1
ag6
ag16
ag2
ag6
ag3
ag13
ag10
ag6
ag3
ag3
ag4
ag4
ag13
ag3
ag4
ag8
ag2
ag6
ag8
ag1
ag6
ag6
ag5
ag6
ag6
ag1
ag6
ag2
ag8
ag5
ag5
ag12
ag2
ag6
ag2
ag3
ag10
ag10
ag6
ag1
ag4
ag6
ag4
ag1
ag3
ag1
ag16
ag2
ag6
ag3
ag10
ag3
ag11
ag6
ag6
ag8
ag8
ag4
ag6
ag1
ag4
ag8
ag2
ag6
ag6
ag5
ag6
ag6
ag1
ag20
ag6
ag4
ag5
ag6
ag12
ag2
ag12
ag11
ag6
ag5
ag6
ag1
ag15
ag2
ag2
ag6
ag1
ag4
ag6
ag12
ag2
ag2
ag6
ag5
ag4
ag5
ag12
ag11
ag6
ag11
ag6
ag5
ag4
aVh
p287
ag12
ag6
ag11
ag6
ag3
ag56
ag4
ag10
ag5
ag6
ag42
ag15
ag6
ag5
ag15
ag4
ag6
ag1
ag15
ag8
ag6
ag1
ag4
ag1
ag1
ag6
ag5
ag1
ag11
ag6
ag3
ag5
ag5
ag4
ag5
ag6
ag4
ag10
ag3
ag6
ag2
ag6
ag1
ag1
ag12
ag11
ag6
ag5
ag6
ag1
ag15
ag2
ag3
ag6
ag23
ag13
ag3
ag1
ag15
ag2
ag6
ag6
ag2
ag4
ag1
ag1
ag6
ag5
ag6
ag6
ag1
ag2
ag3
ag6
ag5
ag5
ag6
ag3
ag2
ag1
ag4
ag6
ag16
ag2
ag6
ag12
ag11
ag6
ag5
ag6
ag1
ag15
ag2
ag5
ag5
ag1
ag8
ag2
ag6
ag6
ag2
ag15
ag6
ag1
ag6
ag3
ag1
ag8
ag12
ag3
ag6
ag10
ag3
ag13
ag4
ag6
ag3
ag6
ag15
ag1
ag12
ag2
ag6
ag3
ag6
ag2
ag6
ag6
ag5
ag6
ag6
ag1
ag3
ag6
ag13
ag4
ag2
ag5
ag5
ag6
ag3
ag2
ag1
ag6
ag3
ag6
ag1
ag16
ag2
ag4
ag6
ag2
ag5
ag6
ag3
ag6
ag13
ag4
ag1
ag8
ag2
ag6
ag6
ag6
ag10
ag3
ag6
ag23
ag13
ag3
ag6
ag5
ag11
ag6
ag2
ag2
ag6
ag4
ag5
ag3
ag6
ag1
ag8
ag5
ag6
ag3
aVf
p288
ag8
ag6
ag1
ag13
ag6
ag3
ag6
ag13
ag4
ag6
ag1
ag6
ag1
ag4
ag5
ag3
ag15
ag6
ag10
ag2
ag4
ag5
aVw
p289
ag6
ag10
ag3
ag6
ag6
ag1
ag1
ag6
ag42
ag6
ag1
ag1
ag8
ag2
ag6
aVf
p290
ag11
ag6
ag4
ag3
ag6
ag1
ag8
ag5
ag6
ag3
aVv
p291
aVf
p292
ag8
ag3
ag13
ag10
ag10
ag3
ag6
ag1
ag15
ag1
ag6
ag4
ag1
ag1
ag6
ag1
ag15
ag6
ag10
ag2
ag4
ag5
ag3
ag6
ag10
ag3
ag6
ag6
ag1
ag6
ag16
ag13
ag5
ag6
ag1
ag1
ag5
ag13
ag5
ag4
ag10
ag1
ag6
ag1
ag11
ag6
ag4
ag3
ag8
ag6
ag5
ag5
ag2
ag13
ag15
ag2
ag2
ag6
aVf
p293
ag4
ag1
ag16
ag6
ag10
ag10
ag5
ag6
ag6
ag4
ag2
ag4
ag10
ag1
ag6
ag1
ag8
ag11
ag6
ag4
ag3
ag8
ag6
ag5
ag1
ag11
ag13
ag5
ag5
ag2
ag6
aVv
p294
aVf
p295
ag10
ag10
ag5
ag6
ag5
ag5
ag4
ag10
ag1
ag6
ag1
ag13
ag5
ag1
ag6
ag13
ag5
aVl
p296
ag17
ag6
ag2
ag6
aVf
p297
ag2
ag6
aVv
p298
aVf
p299
ag1
ag6
ag1
ag13
ag10
ag10
ag3
ag6
ag3
ag1
ag1
ag6
ag12
ag2
ag5
ag6
ag10
ag3
ag6
ag6
ag3
ag11
ag1
ag15
ag4
ag1
ag1
ag13
ag6
ag1
ag2
ag6
ag11
ag6
ag4
ag3
ag8
ag6
ag5
aVp
p300
ag3
ag6
ag6
ag3
ag11
ag1
ag15
ag13
ag4
ag2
ag4
ag1
ag1
ag13
ag6
ag6
ag6
ag1
ag5
ag8
ag3
ag6
ag42
ag10
ag5
ag3
ag1
ag15
ag6
ag10
ag2
ag4
ag16
ag6
ag4
ag13
ag6
ag4
ag1
ag1
ag13
ag6
ag8
ag6
ag1
ag1
ag8
ag6
ag10
ag3
ag1
ag15
ag6
ag5
ag15
ag4
ag8
ag6
ag13
ag3
ag6
ag13
ag4
ag2
ag8
ag13
ag5
ag1
ag3
ag15
ag3
ag10
ag2
ag4
ag4
ag2
ag1
ag1
ag6
ag5
ag2
ag6
aVv
p301
aVf
p302
ag10
ag10
ag5
ag6
ag1
ag2
ag6
ag4
ag1
ag8
ag6
ag5
ag6
ag2
ag6
ag3
ag6
ag13
ag5
ag3
ag6
ag4
ag10
ag3
ag6
ag2
ag6
ag15
ag6
ag1
ag6
ag3
ag6
ag16
ag13
ag1
ag15
aVf
p303
ag8
ag42
ag6
ag4
ag1
ag11
ag5
ag13
ag1
ag1
ag6
ag1
ag8
ag5
ag6
ag3
ag13
ag3
ag3
ag6
ag13
ag5
ag1
ag4
ag6
ag2
ag2
ag6
aVv
p304
aVf
p305
ag4
ag1
ag3
ag6
ag13
ag4
ag6
ag1
ag6
ag12
ag2
ag5
ag6
ag10
ag3
ag6
ag6
ag3
ag11
ag1
ag15
ag4
ag1
ag1
ag13
ag6
ag3
ag6
ag6
ag8
ag8
ag6
ag4
ag11
ag6
ag5
ag2
ag1
ag2
ag6
ag5
ag6
ag3
ag1
ag11
ag6
ag1
ag1
ag8
aVv
p306
aVf
p307
ag5
ag15
ag3
ag2
ag6
ag4
ag3
ag6
ag23
ag13
ag6
ag1
ag5
aVb
p308
ag6
ag1
ag6
ag4
ag2
ag1
ag23
ag13
ag6
ag6
ag1
ag16
ag5
ag6
ag3
ag4
ag17
ag1
ag15
ag8
ag6
ag11
ag5
ag11
ag1
ag15
ag15
ag6
ag10
ag2
ag4
ag5
ag10
ag3
ag6
ag6
ag3
ag11
ag6
ag23
ag13
ag6
ag1
ag5
ag16
ag6
ag3
ag11
ag1
ag2
ag6
ag10
ag3
ag11
ag6
ag8
ag3
ag13
ag5
ag1
ag1
ag12
ag2
ag4
ag2
ag2
ag6
ag15
ag6
ag10
ag2
ag4
ag5
ag10
ag3
ag6
ag6
ag3
ag2
ag4
ag2
ag3
ag4
ag6
ag3
ag20
ag6
ag1
ag4
ag1
ag1
ag1
ag3
ag10
ag3
ag4
ag6
ag6
ag3
ag6
ag4
ag1
ag1
ag13
ag13
ag5
ag6
ag6
ag1
ag6
ag12
ag16
ag6
ag4
ag6
ag11
ag5
ag16
ag5
ag6
ag2
ag1
ag6
ag16
ag13
ag1
ag15
ag10
ag3
ag6
ag4
ag1
ag8
ag3
ag10
ag3
ag6
ag11
ag13
ag6
ag6
ag8
ag15
ag6
ag10
ag2
ag4
ag5
ag10
ag3
ag6
ag6
ag3
ag13
ag10
ag6
ag6
ag1
ag15
ag8
ag3
ag10
ag2
ag4
ag5
ag1
ag4
ag5
ag6
ag5
ag2
ag3
ag6
ag5
ag6
ag6
ag4
ag6
ag13
ag3
ag6
ag6
ag1
ag2
ag6
ag13
ag1
ag17
ag1
ag12
ag1
ag15
ag6
ag10
ag2
ag4
ag5
ag10
ag3
ag6
ag6
ag3
ag1
ag1
ag2
ag6
ag6
ag6
ag4
ag2
ag1
ag23
ag13
ag6
ag10
ag3
ag11
ag6
ag2
ag6
ag6
ag11
ag5
ag11
ag1
ag15
ag13
ag1
ag4
ag6
ag3
ag1
ag1
ag2
ag6
ag6
ag6
ag1
ag2
ag6
ag8
ag3
ag8
ag10
ag6
ag3
ag3
ag10
ag3
ag16
ag16
ag5
ag6
ag1
ag8
ag13
ag1
ag4
ag1
ag1
ag1
ag2
ag6
ag10
ag3
ag4
ag5
ag6
ag8
ag5
ag6
ag3
aVp
p309
aVf
p310
ag6
ag42
ag6
ag1
ag6
ag13
ag1
ag4
ag6
ag1
ag6
ag1
ag6
ag1
ag6
ag16
ag5
ag6
aVk
p311
ag5
ag1
ag8
ag5
ag6
ag3
aVe
p312
ag1
aVk
p313
aVf
p314
ag12
ag6
ag3
ag6
ag6
ag11
ag5
ag13
ag6
ag2
ag6
ag8
ag5
ag6
ag3
ag12
ag6
ag3
ag6
ag4
ag10
ag3
ag6
ag11
ag3
ag6
ag8
ag5
ag6
ag4
ag3
ag1
ag1
ag1
ag11
ag5
ag4
ag1
ag4
ag3
ag6
ag3
ag3
ag4
ag17
ag1
ag15
ag6
ag42
ag10
ag5
ag6
aVb
p315
ag6
ag4
ag13
ag6
ag2
ag6
ag3
ag6
ag3
ag6
ag1
ag13
ag6
ag3
ag13
ag15
ag6
ag10
ag2
ag4
ag5
ag10
ag3
ag16
ag5
ag6
ag1
ag12
ag2
ag4
ag2
ag2
ag6
ag6
ag1
ag11
ag3
ag1
ag6
ag1
ag5
ag6
ag5
ag6
ag5
ag8
ag1
ag17
ag1
ag12
ag1
ag3
ag6
ag11
ag5
ag11
ag6
ag12
ag2
ag6
ag2
ag6
ag4
ag1
ag4
ag6
ag10
ag8
ag6
ag5
ag6
ag5
ag6
ag4
ag1
ag1
ag8
ag5
ag6
ag3
ag1
ag15
ag10
ag5
ag6
ag6
ag1
ag1
ag2
ag6
ag13
ag6
ag8
ag5
ag3
ag15
ag6
ag3
ag1
ag13
ag16
ag6
ag3
ag8
ag6
ag1
ag3
ag16
ag6
ag4
ag1
ag15
ag3
ag6
ag4
ag1
ag2
ag6
ag5
ag3
ag15
ag6
ag4
ag1
ag1
ag6
ag1
ag5
ag4
ag5
ag6
ag8
ag3
ag6
ag6
ag10
ag3
ag13
ag4
ag13
ag3
ag6
ag15
ag1
ag15
ag1
ag6
ag5
ag15
ag1
ag5
ag5
ag6
ag3
ag4
ag5
ag6
ag12
ag2
ag6
ag42
ag10
ag5
ag3
ag1
ag15
ag6
ag10
ag2
ag4
ag16
ag14
ag6
ag4
ag11
ag6
ag6
ag4
ag3
ag3
ag3
ag6
ag23
ag13
ag3
ag6
ag3
ag3
ag10
ag3
ag4
ag6
ag1
ag15
ag8
ag3
ag12
ag2
ag4
ag2
ag1
ag6
ag12
ag10
ag6
ag8
ag16
ag6
ag3
ag11
ag16
ag5
ag6
ag4
ag1
ag3
ag16
ag13
ag6
ag16
ag6
ag6
ag3
ag13
ag1
ag6
ag3
ag1
ag1
ag15
ag8
ag2
ag6
ag12
ag11
ag6
ag10
ag3
ag10
ag15
ag1
ag4
ag10
ag5
ag6
ag42
aVf
p316
ag3
ag1
ag15
ag2
ag6
ag6
ag3
ag3
ag10
ag3
ag4
ag6
ag1
ag15
ag6
ag4
ag2
ag1
ag23
ag13
ag6
ag2
ag13
ag8
ag4
ag13
ag6
ag1
ag12
ag6
ag5
ag6
ag4
ag1
ag6
ag1
ag8
ag8
ag8
ag6
ag3
ag6
ag1
ag10
ag2
ag6
ag16
ag6
ag12
ag6
ag6
ag1
ag12
ag13
ag3
ag4
ag6
ag3
ag6
ag4
ag6
ag11
ag6
ag3
ag3
ag3
ag16
ag6
ag1
ag2
ag6
ag13
ag16
ag5
ag6
ag16
ag6
ag8
ag3
ag1
ag15
aVb
p317
aVf
p318
ag6
ag2
ag2
ag6
ag6
ag42
ag10
ag5
ag3
ag1
ag15
ag6
ag10
ag2
ag4
ag4
ag5
ag6
ag2
ag6
ag15
ag5
ag6
ag1
ag8
ag1
ag6
ag10
ag3
ag6
ag5
ag12
ag10
ag5
ag13
ag6
ag16
ag12
ag11
ag6
ag8
ag3
ag2
ag15
ag2
ag10
ag5
ag13
ag6
ag10
ag6
ag3
ag11
ag6
ag13
ag3
ag8
ag4
ag6
ag12
ag11
ag6
ag1
ag2
ag6
ag4
ag6
ag8
ag3
ag8
ag1
ag6
ag8
ag8
ag6
ag3
ag6
ag1
ag4
ag6
ag6
ag1
ag13
ag5
ag1
ag8
ag3
ag13
ag6
ag11
ag5
ag6
ag2
ag6
ag3
ag3
ag10
ag3
ag4
ag6
ag1
ag15
ag6
ag2
aVf
p319
ag3
ag3
ag6
ag4
ag1
ag5
ag1
ag8
ag3
ag1
ag16
ag1
ag6
ag12
ag2
aVb
p320
aVf
p321
ag1
ag13
ag6
ag2
ag6
ag13
ag16
ag5
ag6
ag10
ag5
ag1
ag6
ag12
ag11
ag6
ag10
ag3
ag14
ag6
ag4
ag1
ag6
ag1
ag3
ag6
ag2
ag13
ag3
ag8
ag4
ag6
ag1
ag16
ag12
ag11
ag6
ag4
ag1
ag16
ag6
ag6
ag42
ag3
ag4
ag6
ag12
ag2
ag2
ag15
ag2
ag6
ag3
ag6
ag8
ag8
ag4
ag4
ag4
ag10
ag3
ag6
ag4
ag5
ag4
ag5
ag10
ag17
ag1
ag15
ag6
ag4
ag1
ag11
ag5
ag13
ag1
ag4
ag3
ag3
ag6
ag4
ag8
ag3
ag2
ag6
ag6
ag8
ag8
ag6
ag4
ag8
ag2
ag6
ag6
ag4
ag12
ag11
ag6
ag5
ag6
ag13
ag6
ag16
ag6
ag1
ag13
ag6
ag5
ag16
ag10
ag10
ag5
ag1
ag15
ag1
ag1
ag11
ag6
ag3
ag6
ag8
ag5
ag6
ag3
ag2
ag6
ag6
ag4
ag3
ag4
ag6
ag15
ag6
ag1
ag6
ag6
ag8
ag3
ag6
ag8
ag5
ag6
ag4
ag11
ag4
ag10
ag6
ag1
ag6
ag8
ag3
ag10
ag3
ag10
ag15
ag1
ag1
ag16
ag3
ag10
ag1
ag6
ag8
ag8
ag6
ag4
ag1
ag6
ag13
ag6
ag6
ag11
ag3
ag1
ag15
ag6
ag4
ag1
ag11
ag5
ag13
ag1
ag1
ag12
ag2
ag4
ag2
ag8
ag8
ag6
ag3
ag6
ag1
ag1
ag11
ag6
ag3
ag6
ag8
ag5
ag6
ag3
ag4
ag10
ag13
ag6
ag1
ag10
ag10
ag5
ag6
ag8
ag3
ag6
ag4
ag2
ag13
ag10
ag13
ag10
ag5
ag6
ag10
ag1
aVw
p322
ag6
ag8
ag6
ag2
ag10
ag3
ag4
ag6
ag13
ag3
ag6
ag16
ag6
ag1
ag15
ag1
ag13
ag6
ag5
ag12
ag11
ag6
ag5
ag6
ag8
ag3
ag6
ag4
ag2
ag6
ag10
ag5
ag6
ag10
ag1
ag8
ag2
ag6
ag6
ag4
ag3
ag4
ag6
ag2
ag15
ag11
ag6
ag6
ag4
ag10
ag1
ag8
ag2
ag6
ag6
ag4
ag3
ag4
ag6
ag13
ag8
ag1
ag13
ag6
ag5
ag12
ag11
ag6
ag5
ag6
ag6
ag4
ag2
ag13
ag5
ag10
ag5
ag6
ag16
ag3
ag6
ag8
ag5
ag6
ag4
ag11
ag4
ag6
ag8
ag8
ag4
ag6
ag1
ag2
ag6
ag11
ag6
ag4
ag3
ag6
ag23
ag13
ag5
ag5
ag12
ag6
ag3
ag3
ag1
ag15
ag13
ag5
ag3
ag12
ag11
ag6
ag5
ag6
ag3
ag42
ag12
ag2
ag6
ag5
ag6
ag6
ag1
ag53
ag1
ag2
ag6
ag15
ag1
ag5
ag13
ag5
ag10
ag5
ag6
ag16
ag2
ag6
ag6
ag4
ag3
ag6
ag8
ag5
ag6
ag4
ag11
ag11
ag6
ag4
ag3
aVr
p323
ag6
ag4
ag13
ag3
ag11
ag6
ag5
ag13
ag1
ag8
ag2
ag6
ag23
ag13
ag1
ag10
ag3
ag11
ag6
ag1
ag6
ag6
ag8
ag3
ag6
ag8
ag5
ag6
ag4
ag11
ag2
ag6
ag3
ag6
ag8
ag5
ag6
ag4
ag11
ag6
ag1
ag1
ag15
ag5
ag6
ag3
ag4
ag6
ag10
ag3
ag4
ag6
ag2
ag6
ag1
ag11
ag6
ag1
ag1
ag12
ag2
ag6
ag1
ag6
ag1
ag6
ag1
ag17
ag6
ag1
ag4
ag4
ag13
ag1
ag5
ag6
ag3
ag5
ag4
ag1
ag1
ag13
ag8
ag3
ag6
ag8
ag5
ag6
ag4
ag1
ag2
ag6
ag3
ag6
ag8
ag3
ag6
ag12
ag6
ag2
ag2
ag10
ag10
ag6
ag3
ag2
ag12
ag16
ag14
ag6
ag4
ag11
ag6
ag1
ag6
ag3
ag6
ag11
ag6
ag12
ag2
ag6
aVb
p324
ag4
ag17
ag13
aVg
p325
ag5
ag16
ag6
ag3
aVb
p326
aVg
p327
ag6
ag2
aVb
p328
ag4
ag17
ag13
ag1
aVg
p329
ag5
ag16
ag6
ag3
ag1
ag11
ag6
ag15
ag6
ag4
ag1
ag1
ag13
ag13
ag1
ag11
ag6
ag3
ag6
ag10
ag3
ag16
ag5
ag6
ag1
ag3
ag5
ag5
ag6
ag3
ag4
ag6
ag3
ag2
ag13
ag1
ag15
ag1
ag10
ag10
ag3
ag4
ag2
ag4
ag10
ag5
ag6
ag6
ag5
ag8
ag8
ag6
ag3
ag6
ag1
ag8
ag3
ag2
ag8
ag1
ag3
ag1
ag11
ag6
ag3
ag1
ag6
ag2
ag8
ag1
ag6
ag3
ag2
ag10
ag3
ag10
ag6
ag3
ag8
ag1
ag6
ag3
ag6
ag2
ag6
aVb
p330
aVg
p331
ag6
ag2
ag10
ag3
ag11
ag6
ag11
ag6
ag3
ag15
ag6
ag11
ag5
ag13
ag6
ag8
ag11
ag6
ag3
ag6
ag3
ag5
ag1
ag6
ag3
ag11
ag5
ag8
ag1
ag1
ag6
ag3
ag11
ag5
ag12
ag3
ag6
ag5
ag11
ag6
ag5
ag2
ag3
ag1
ag4
ag6
ag1
ag6
ag3
ag6
ag1
ag6
ag3
ag10
ag3
ag4
ag13
ag5
ag3
ag3
ag13
ag3
ag39
ag2
ag6
aVb
p332
aVg
p333
ag11
ag6
ag3
ag15
ag6
ag12
ag5
ag5
ag16
ag6
ag5
ag4
ag5
ag11
ag6
ag3
ag15
ag6
ag8
ag1
ag6
ag3
ag3
ag39
ag12
ag2
ag3
ag6
ag5
ag11
ag1
ag15
ag5
ag6
ag1
ag15
ag2
ag8
ag12
aVb
p334
ag4
ag17
ag13
ag1
aVg
p335
ag5
ag16
ag6
ag3
ag5
ag1
ag3
ag13
ag4
ag6
ag2
ag6
ag4
ag1
ag4
ag6
ag10
ag8
ag3
ag6
ag8
ag8
ag16
ag6
ag12
ag6
ag6
ag1
ag3
ag6
ag5
ag13
ag1
ag1
ag6
ag3
ag3
ag3
ag12
ag2
ag4
ag2
ag6
ag6
ag1
ag5
ag1
ag1
ag11
ag6
ag3
ag6
ag2
ag6
ag3
ag3
ag6
ag15
ag3
ag5
ag6
ag8
ag2
ag6
ag1
ag11
ag6
ag3
ag1
ag6
ag2
ag1
ag10
ag6
ag8
ag10
ag3
ag1
ag4
ag6
ag1
ag11
ag6
ag3
ag6
ag2
ag6
ag3
ag6
ag42
ag1
ag6
ag2
ag6
ag3
ag6
ag4
ag3
ag16
ag6
ag2
ag6
aVb
p336
aVg
p337
ag6
ag2
ag1
ag8
ag13
ag5
ag5
ag1
ag3
ag2
ag12
ag2
ag12
ag10
ag10
ag5
ag1
ag5
ag5
ag15
ag6
ag1
ag6
ag3
ag5
aVb
p338
ag6
ag4
ag13
ag6
ag2
ag6
ag2
ag3
ag6
ag6
ag10
ag10
ag6
ag3
ag2
ag1
ag3
ag13
ag4
ag6
ag2
ag6
aVb
p339
aVg
p340
ag6
ag2
ag3
ag6
ag2
ag6
ag4
ag5
ag5
ag8
ag8
ag4
ag13
ag5
ag2
ag10
ag10
ag6
ag3
ag10
ag3
ag11
ag6
ag16
ag4
ag17
ag15
ag3
ag13
ag1
ag6
ag3
ag5
ag1
ag6
ag5
ag6
ag6
ag3
ag11
ag1
ag8
ag2
ag6
ag6
ag2
ag12
ag6
ag5
ag5
ag12
ag4
ag10
ag5
ag6
ag6
ag5
ag12
ag3
ag11
ag6
ag3
ag8
ag13
ag5
ag6
ag1
ag1
ag6
ag5
ag1
ag15
aVv
p341
aVf
p342
ag15
ag5
ag16
ag5
ag10
ag20
ag1
ag10
ag3
ag4
ag6
ag13
ag3
ag6
ag6
ag11
ag6
ag5
ag10
ag6
ag8
ag3
ag2
ag6
ag1
ag6
ag3
ag10
ag3
ag6
ag1
ag8
ag6
ag5
ag8
ag10
ag6
ag1
ag5
aVp
p343
ag1
ag5
ag6
ag13
ag3
ag6
ag11
ag6
ag3
ag24
ag1
ag4
ag5
ag1
ag6
ag2
ag6
ag6
ag10
ag6
ag3
ag13
ag4
ag13
ag3
ag6
ag6
ag5
ag10
ag3
ag6
ag6
ag3
ag13
ag4
ag2
ag6
ag5
ag6
ag4
ag3
ag4
ag4
ag13
ag3
ag3
ag6
ag1
ag10
ag5
ag6
ag6
ag1
ag17
ag2
ag3
ag20
ag1
ag5
ag1
ag11
ag6
ag3
ag4
ag5
ag5
ag4
ag1
ag8
ag2
ag6
ag4
ag6
ag1
ag6
ag3
ag8
ag2
ag6
ag4
ag13
ag11
ag6
ag16
ag42
ag39
ag1
ag2
ag2
ag5
ag8
ag12
ag2
ag1
ag10
ag5
ag3
ag20
ag1
ag1
ag4
ag5
ag1
ag1
ag1
ag15
ag5
ag6
ag8
ag2
ag6
ag2
ag6
ag6
ag3
ag6
ag10
ag20
ag6
aVv
p344
aVf
p345
ag10
ag20
ag1
ag6
ag5
ag5
ag3
ag15
ag6
ag1
ag13
ag16
ag6
ag3
ag8
ag12
ag6
ag5
ag5
ag8
ag1
ag15
ag5
ag13
ag1
ag1
ag11
ag6
ag5
ag10
ag4
ag6
aVe
p346
ag11
ag6
ag1
ag2
ag13
ag15
ag2
ag2
ag6
ag13
ag6
ag6
ag5
ag10
ag4
ag6
ag1
ag13
ag1
ag42
ag13
ag5
ag8
ag3
ag6
ag4
ag2
ag6
ag5
ag10
ag3
ag6
ag6
ag3
ag10
ag10
ag3
ag10
ag3
ag6
ag2
ag16
ag6
ag6
ag1
ag16
ag6
ag3
ag11
ag6
ag2
ag6
ag5
ag16
ag1
ag6
ag16
ag2
ag6
aVv
p347
aVf
p348
ag10
ag3
ag4
ag6
ag1
ag2
ag6
ag10
ag3
ag6
ag6
ag8
ag1
ag6
ag6
ag5
ag10
ag4
ag6
ag4
ag13
ag5
ag5
ag16
ag6
ag15
ag6
ag5
ag15
ag4
ag5
ag5
ag6
ag3
ag3
ag1
ag6
ag13
ag2
ag8
ag8
ag6
ag3
ag1
ag6
ag12
ag1
ag15
ag2
ag1
ag2
ag6
ag1
ag6
ag3
ag10
ag3
ag6
ag1
ag8
ag6
ag5
ag8
ag10
ag6
ag1
ag5
ag13
ag3
ag10
ag20
ag1
ag3
ag6
ag13
ag5
ag1
ag4
ag6
ag2
ag2
ag6
ag3
ag6
ag6
ag42
ag5
ag6
ag12
ag6
ag8
ag5
ag13
ag1
ag2
ag4
ag1
ag8
ag2
ag6
ag16
ag6
ag3
ag11
ag6
ag6
ag23
ag13
ag5
ag5
ag12
ag6
ag5
ag5
ag2
ag6
ag8
ag3
ag6
ag8
ag5
ag13
ag1
ag3
ag6
ag10
ag3
ag6
ag6
ag1
ag5
ag4
ag5
ag10
ag13
ag1
ag15
ag6
ag5
ag15
ag4
ag5
ag5
aVw
p349
ag6
ag6
ag42
ag10
ag5
ag3
ag6
aVn
p350
ag10
ag20
ag1
ag3
ag6
ag4
ag6
ag1
ag5
ag1
ag3
ag13
ag4
ag6
ag6
ag2
ag1
ag10
ag5
ag6
ag42
ag10
ag6
ag3
ag6
ag1
ag5
ag6
ag15
ag1
ag2
ag6
ag3
ag5
ag1
ag20
ag6
ag2
ag6
ag8
ag3
ag6
ag4
ag6
ag10
ag1
ag11
ag6
ag3
ag1
ag6
ag5
ag13
ag1
ag4
ag6
ag3
ag1
ag1
ag3
ag1
ag6
ag16
ag3
ag6
ag2
ag5
ag6
ag6
ag4
ag10
ag10
ag5
ag4
ag1
ag2
ag6
aVn
p351
ag4
ag3
ag6
ag3
ag1
ag6
ag15
ag1
ag16
ag14
ag6
ag4
ag11
ag6
ag8
ag13
ag1
ag4
ag1
ag4
ag3
ag8
ag6
ag10
ag6
ag4
ag8
ag4
ag5
ag5
ag8
ag3
ag1
ag1
ag5
ag1
ag6
ag3
ag6
ag5
ag3
ag6
ag5
ag1
ag2
ag10
ag1
ag12
ag2
ag6
ag1
ag13
ag6
ag1
ag4
ag1
ag14
ag13
ag1
ag4
ag1
ag12
ag2
ag15
ag3
ag6
ag6
ag6
ag23
ag13
ag6
ag1
ag5
ag10
ag20
ag1
ag5
ag15
ag3
ag2
ag1
ag15
ag2
ag6
ag8
ag3
ag8
ag17
ag1
ag16
ag6
ag4
ag10
ag13
ag1
ag5
ag5
ag6
ag8
ag8
ag4
ag6
ag1
ag6
ag1
ag13
ag15
ag2
ag8
ag3
ag1
ag13
ag3
ag5
ag4
ag5
ag6
ag10
ag10
ag5
ag4
ag1
ag2
ag6
ag16
ag6
ag1
ag6
ag8
ag1
ag11
ag1
ag15
ag6
ag8
ag15
ag3
ag6
ag6
ag5
ag15
ag3
ag2
ag3
ag6
ag16
ag3
ag6
ag8
ag5
ag4
ag13
ag6
ag1
ag1
ag6
ag8
ag2
ag6
ag10
ag10
ag13
ag5
ag3
ag2
ag6
aVc
p352
ag1
ag3
ag13
ag4
ag1
ag5
ag15
ag3
ag2
ag4
ag1
ag8
ag3
ag6
ag17
ag6
ag1
ag6
ag3
ag5
ag5
ag1
ag6
ag3
ag6
ag10
ag3
ag6
ag4
ag6
ag16
ag2
ag6
ag3
ag2
ag6
aVn
p353
ag4
ag3
ag6
ag3
ag1
ag3
ag6
ag6
ag3
ag11
ag6
ag2
ag6
ag3
ag6
ag2
ag12
ag2
ag3
ag6
ag3
ag4
ag11
ag6
ag13
ag10
ag1
ag1
ag3
ag15
ag1
ag5
ag6
ag3
ag11
ag1
ag12
ag6
ag3
ag6
ag13
ag1
ag1
ag6
ag4
ag6
ag3
ag2
ag1
ag6
ag12
ag6
ag3
ag11
ag1
ag4
ag1
ag6
ag3
ag8
ag6
ag42
ag10
ag6
ag4
ag6
ag5
ag17
ag6
ag5
ag2
ag3
ag12
ag2
ag4
ag2
ag23
ag13
ag1
ag8
ag2
ag6
ag4
ag3
ag1
ag16
ag5
ag8
ag15
ag6
ag6
ag5
ag4
ag1
ag3
ag1
ag6
ag16
ag16
ag6
ag3
ag11
ag6
ag6
ag4
ag56
ag11
ag6
ag3
ag4
ag5
ag6
ag4
ag10
ag3
ag8
ag5
ag1
ag15
aVv
p354
aVp
p355
ag13
ag3
ag11
ag6
ag2
ag6
ag1
ag5
ag4
ag5
ag6
ag2
ag8
ag6
ag1
ag15
ag2
ag6
ag13
ag1
ag4
ag6
ag3
ag1
ag1
ag5
ag6
ag3
ag6
ag6
ag5
ag3
ag6
ag6
ag6
ag5
ag16
ag1
ag6
ag13
ag1
ag15
ag5
ag6
ag3
ag3
ag10
ag10
ag1
ag15
ag6
ag5
ag1
ag15
ag3
ag6
ag15
ag3
ag8
ag3
ag12
ag3
ag6
ag5
ag1
ag15
ag16
ag6
ag1
ag10
ag5
ag6
ag10
ag3
ag1
ag4
ag10
ag5
ag6
ag8
ag5
ag5
ag6
ag3
ag3
ag3
ag10
ag3
ag10
ag15
ag1
ag2
ag6
ag3
ag6
ag3
ag6
ag12
ag11
ag3
ag1
ag8
ag2
ag6
ag6
ag2
ag10
ag5
ag8
ag6
ag1
ag6
ag2
ag1
ag4
ag5
ag13
ag6
ag3
ag6
ag8
ag3
ag4
ag1
ag1
ag11
ag6
ag3
ag4
ag5
ag3
ag6
ag8
ag5
ag6
ag4
ag1
ag1
ag1
ag6
ag2
ag5
ag1
ag4
ag5
ag13
ag6
ag12
ag6
ag1
ag15
ag5
ag6
ag3
ag6
ag8
ag5
ag6
ag4
ag1
aVb
p356
ag2
ag15
ag11
ag6
ag23
ag13
ag1
ag11
ag6
ag6
ag1
ag8
ag3
ag2
ag6
ag6
ag42
ag1
ag15
ag6
ag5
ag5
ag5
ag12
ag8
ag3
ag10
ag5
ag6
ag1
ag5
ag4
ag5
ag6
ag1
ag3
ag6
ag8
ag3
ag4
ag6
ag12
ag11
ag6
ag3
ag6
ag6
ag4
ag3
ag16
ag6
ag13
ag1
ag15
ag2
ag6
ag12
ag11
ag6
ag10
ag10
ag3
ag42
ag1
ag1
ag4
ag1
ag1
ag11
ag6
ag5
ag4
ag5
ag6
ag3
ag12
ag6
ag1
ag15
ag5
ag6
ag3
ag6
ag8
ag5
ag6
ag4
ag1
ag10
ag2
ag3
ag6
ag5
ag10
ag5
ag8
ag6
ag1
ag2
ag6
ag4
ag6
ag8
ag3
ag5
ag1
ag6
ag3
ag3
ag3
ag8
ag3
ag12
ag3
ag6
ag5
ag1
ag15
ag2
ag6
ag2
ag4
ag1
ag2
ag6
ag5
ag10
ag6
ag6
ag3
ag1
ag6
ag2
ag12
ag12
ag6
ag5
ag5
ag2
ag6
ag13
ag6
ag10
ag3
ag6
ag6
ag3
ag20
ag1
ag3
ag6
ag8
ag5
ag6
ag4
ag6
ag1
ag2
ag6
ag1
ag11
ag11
ag6
ag3
ag8
ag1
ag15
ag2
ag6
ag3
ag13
ag4
ag13
ag3
ag6
ag2
ag6
ag10
ag6
ag4
ag5
ag5
ag10
ag3
ag1
ag16
ag6
ag4
ag13
ag6
ag2
ag6
ag8
ag3
ag12
ag3
ag6
ag5
ag1
ag15
ag11
ag6
ag3
ag13
ag16
ag14
ag6
ag4
ag11
ag6
ag1
ag2
ag6
ag3
ag6
ag1
ag6
ag2
ag6
ag2
ag6
ag10
ag3
ag6
ag6
ag3
ag20
ag1
ag12
ag2
ag13
ag15
ag6
ag1
ag6
ag3
ag1
ag15
ag5
ag6
ag3
ag1
ag11
ag6
ag6
ag5
aVf
p357
ag3
ag1
ag11
ag6
ag3
ag1
ag10
ag3
ag16
ag5
ag6
ag13
ag1
ag15
ag2
ag6
ag5
aVw
p358
ag6
ag6
ag42
ag1
ag6
ag13
ag1
ag4
ag6
ag3
ag1
ag1
ag10
ag3
ag6
ag4
ag6
ag5
ag1
ag6
ag3
ag53
ag6
ag10
ag5
ag8
ag4
ag1
ag13
ag6
ag13
ag1
ag4
ag6
ag3
ag1
ag1
ag2
ag6
ag3
ag12
ag11
ag6
ag11
ag6
ag5
ag4
aVv
p359
ag3
ag13
ag4
ag13
ag3
ag6
ag23
ag13
ag1
ag8
ag6
ag8
ag3
aVb
p360
ag6
ag1
ag10
ag3
ag16
ag16
ag5
ag4
ag1
ag11
ag6
ag3
ag1
ag8
ag4
ag3
ag3
ag6
ag3
ag3
ag3
ag10
ag6
ag3
ag1
aVb
p361
ag6
ag1
ag10
ag5
ag6
ag8
aVv
p362
ag10
ag3
ag8
ag5
ag6
ag3
ag12
ag1
ag8
ag3
ag2
ag6
ag10
ag6
ag3
ag3
ag10
ag3
ag16
ag16
ag5
ag6
ag1
ag8
ag2
ag6
ag4
ag3
ag3
ag6
ag3
ag1
ag11
ag6
ag3
ag1
ag10
ag3
ag16
ag16
ag5
ag3
ag16
ag13
ag1
ag3
ag6
ag4
ag10
ag13
ag6
ag8
ag3
ag4
ag1
ag10
ag3
ag6
ag4
ag3
ag8
ag6
ag10
ag5
ag8
ag4
ag1
ag1
ag4
ag5
ag13
ag1
ag15
aVv
p363
aVz
p364
ag3
ag11
ag6
ag5
ag6
ag11
ag6
ag3
ag15
ag6
aVv
p365
ag6
ag10
ag2
ag20
ag1
ag10
ag5
ag8
ag4
ag1
ag10
ag6
ag4
ag3
ag16
ag6
ag1
ag6
ag4
ag10
ag6
ag1
ag4
ag6
ag11
ag3
ag1
ag1
ag8
ag13
ag5
ag5
ag3
ag1
ag11
ag6
ag3
ag6
ag2
ag6
ag3
ag12
ag11
ag6
ag6
ag8
ag8
ag6
ag4
ag2
ag6
ag6
ag6
ag2
ag3
ag6
ag10
ag10
ag5
ag4
ag16
ag5
ag6
ag8
ag3
ag1
ag6
ag16
ag13
ag2
ag6
ag3
ag6
ag13
ag5
ag1
ag15
ag10
ag3
ag16
ag16
ag5
ag4
ag6
ag10
ag5
ag8
ag4
ag1
ag1
ag5
ag6
ag3
ag6
ag10
ag6
ag4
ag8
ag4
ag2
ag6
ag12
ag6
ag6
ag1
ag6
ag13
ag6
ag2
ag6
ag3
ag6
ag12
ag2
ag3
ag1
ag15
ag5
ag4
ag1
ag3
ag1
ag15
ag15
ag6
ag5
ag15
ag1
ag2
ag15
ag2
ag10
ag10
ag13
ag5
ag1
ag4
ag6
ag1
ag6
ag3
ag8
aVb
p366
ag3
ag2
aVc
p367
ag5
ag13
ag16
aVc
p368
ag1
ag2
ag6
ag6
ag10
ag5
ag8
ag4
ag1
ag10
ag3
ag16
ag16
ag5
ag3
ag16
ag13
ag1
ag8
ag3
ag2
ag6
ag12
ag6
ag3
ag6
ag2
ag12
ag1
ag16
ag6
ag3
ag6
ag1
ag8
ag3
ag11
ag6
ag2
ag1
ag10
ag5
ag8
ag4
ag1
ag6
ag6
ag8
ag3
ag1
ag15
ag5
ag6
ag16
ag6
ag8
aVv
p369
ag10
ag3
ag8
ag5
ag6
ag16
ag4
ag2
ag3
ag4
ag6
ag3
ag20
ag1
ag15
ag2
ag6
ag13
ag1
ag4
ag6
ag3
ag1
ag1
ag2
ag6
ag3
ag6
ag8
ag3
ag6
ag16
ag6
ag1
ag6
ag4
ag1
ag6
ag15
ag3
ag10
ag2
ag2
ag10
ag3
ag11
ag6
ag1
ag16
ag6
ag11
ag5
ag13
ag16
ag5
ag6
ag5
ag8
ag3
ag15
ag1
ag15
ag56
ag4
ag3
ag13
ag5
ag2
ag6
ag3
ag11
ag6
ag5
ag4
ag13
ag1
ag15
ag13
ag3
ag8
ag4
ag6
ag12
ag11
ag6
ag2
ag12
ag6
ag11
ag6
ag3
ag4
ag1
ag11
ag6
ag1
ag1
ag5
ag12
ag15
ag6
ag1
ag11
ag6
ag3
ag1
ag4
ag2
ag6
ag6
ag3
ag6
ag6
ag11
ag6
ag3
ag6
ag5
ag5
ag6
ag1
ag2
ag6
ag3
ag16
ag5
ag10
ag3
ag10
ag6
ag3
ag5
ag23
ag13
ag1
ag8
ag5
ag13
ag1
ag13
ag1
ag4
ag6
ag3
ag1
ag1
ag4
ag4
ag13
ag1
ag8
ag3
ag1
ag2
ag15
ag6
ag1
ag6
ag13
ag4
ag11
ag6
ag3
ag15
ag6
ag1
ag3
ag6
ag10
ag1
ag6
ag2
ag6
ag6
ag4
ag2
ag5
ag5
ag6
ag1
ag15
ag6
ag12
ag6
ag6
ag11
ag6
ag5
ag10
ag6
ag12
ag15
ag6
ag2
ag6
ag3
ag3
ag4
ag2
ag4
ag5
ag3
ag1
ag6
ag1
ag1
ag5
aVb
p370
ag6
ag1
ag4
ag2
ag6
ag6
ag8
ag3
ag1
ag11
ag6
ag3
ag1
ag15
ag13
ag3
ag8
ag4
ag6
ag12
ag11
ag6
ag10
ag6
ag3
ag1
ag1
ag8
ag3
ag1
ag8
ag3
ag56
ag2
ag6
ag3
ag11
ag6
ag5
ag4
ag3
ag13
ag4
ag13
ag3
ag6
ag1
ag10
ag10
ag5
ag16
ag6
ag1
ag6
ag4
ag1
ag6
ag3
ag6
ag4
ag3
ag6
ag1
ag1
ag13
ag2
ag6
ag13
ag3
ag5
ag2
ag6
ag17
ag6
ag11
ag1
ag15
ag6
ag8
ag13
ag3
aVb
p371
ag6
ag1
ag10
ag10
ag3
ag4
ag2
ag3
ag6
ag2
ag2
ag6
ag1
ag13
ag16
ag6
ag3
ag1
ag3
ag16
ag13
ag1
ag8
ag6
ag5
ag10
ag3
ag6
ag6
ag3
ag3
ag6
ag10
ag5
ag4
ag5
ag4
ag1
ag3
ag5
ag5
ag6
ag16
ag2
ag6
ag1
ag2
ag2
ag6
ag1
ag3
ag6
ag11
ag1
ag8
ag2
ag6
ag1
ag6
ag3
ag6
ag6
ag1
ag13
ag1
ag17
ag1
ag12
ag1
ag1
ag2
ag6
ag1
ag11
ag6
ag3
ag1
aVf
p372
ag13
ag3
ag2
ag6
ag3
ag3
ag6
ag2
ag6
ag13
ag6
ag8
aVb
p373
ag6
ag1
ag1
ag8
ag6
ag3
ag6
ag1
ag4
ag6
ag12
ag2
ag4
ag2
ag4
ag16
ag1
ag6
ag10
ag3
ag3
ag6
ag5
ag1
ag8
ag3
ag1
ag1
ag16
ag6
ag3
ag11
ag6
ag23
ag13
ag1
ag8
ag2
ag6
ag10
ag6
ag3
ag3
ag10
ag3
ag16
ag16
ag5
ag3
ag16
ag13
ag1
ag6
ag1
ag2
ag6
ag5
ag13
ag1
ag4
ag6
ag3
ag1
ag1
ag8
ag3
ag1
ag4
ag1
ag16
aVw
p374
ag6
ag2
ag11
ag6
ag10
ag10
ag5
ag6
ag10
ag3
ag16
ag16
ag5
ag4
ag1
ag11
ag6
ag3
ag1
ag13
ag1
ag15
ag3
ag1
ag6
ag1
ag1
ag5
ag2
ag6
ag3
ag3
ag4
ag2
ag4
ag5
ag6
ag5
ag4
ag6
ag1
ag4
ag13
ag4
ag3
ag6
ag8
ag5
ag6
ag4
ag1
ag6
ag13
ag3
ag6
ag6
ag1
ag3
ag6
ag4
ag11
ag6
ag3
ag2
ag5
ag5
ag12
ag6
ag6
ag1
ag3
ag13
ag4
ag13
ag3
ag6
ag1
ag4
ag5
ag13
ag1
ag15
ag13
ag1
ag11
ag6
ag5
ag4
ag10
ag6
ag3
ag1
ag8
ag3
ag6
ag23
ag13
ag6
ag1
ag4
ag6
ag10
ag6
ag1
ag6
ag1
ag6
ag1
ag13
ag1
ag1
ag2
ag6
ag3
ag13
ag1
ag4
ag6
ag3
ag1
ag6
aVp
p375
ag3
ag6
ag6
ag3
ag1
ag13
ag1
ag4
ag6
ag3
ag1
ag1
ag8
ag6
ag3
ag6
ag1
ag4
ag6
ag12
ag6
ag3
ag6
ag16
ag1
ag6
ag8
ag3
ag3
ag17
ag11
ag4
ag2
ag1
ag13
ag5
ag1
ag13
ag1
ag15
ag2
ag6
ag6
ag3
ag10
ag5
aVh
p376
ag1
ag15
ag5
ag15
ag3
ag2
ag8
ag3
ag3
ag1
ag6
ag1
ag1
ag5
ag6
ag5
ag12
ag2
ag6
ag3
ag6
ag2
ag6
ag1
ag13
ag16
ag6
ag3
ag8
ag6
ag6
ag1
ag5
ag6
ag3
ag13
ag1
ag17
ag1
ag12
ag1
ag3
ag1
ag6
ag1
ag1
ag5
ag5
ag15
ag3
ag2
ag8
ag6
ag1
ag6
ag42
ag2
ag16
ag5
ag12
ag4
ag1
ag11
ag6
ag3
ag15
ag6
ag1
ag4
ag6
ag2
ag15
ag3
ag6
ag5
ag6
ag42
ag4
ag6
ag3
ag16
ag6
ag16
ag4
ag10
ag13
ag1
ag5
ag5
ag1
ag6
ag1
ag11
ag6
ag10
ag3
ag6
ag4
ag1
ag11
ag1
ag4
ag6
ag12
ag6
ag3
ag6
ag6
ag10
ag3
ag11
ag6
ag2
ag6
ag10
ag6
ag3
ag8
ag3
ag1
ag4
ag6
ag8
ag3
ag17
ag11
ag4
ag2
ag1
ag13
ag5
ag1
ag1
ag10
ag3
ag6
ag4
ag1
aVc
p377
ag2
ag1
ag42
ag1
ag15
ag4
ag3
ag6
ag1
ag1
ag12
ag3
ag6
ag6
ag13
ag1
ag15
ag6
ag10
ag6
ag3
ag6
ag6
ag23
ag13
ag6
ag1
ag4
ag6
ag8
ag1
ag6
ag3
ag4
ag1
ag15
ag3
ag17
ag11
ag4
ag2
ag1
ag12
ag2
ag4
ag2
ag13
ag16
ag1
ag5
ag5
ag10
ag3
ag11
ag6
ag4
ag1
ag11
ag6
ag3
ag15
ag6
ag1
ag4
ag6
ag3
ag6
ag2
ag6
ag4
ag13
ag4
ag3
ag6
ag4
ag3
ag1
ag15
ag12
ag6
ag3
ag6
ag10
ag3
ag4
ag6
ag6
ag15
ag11
ag6
ag6
ag16
ag6
ag3
ag6
ag8
ag5
ag6
ag4
ag1
ag4
ag6
ag8
ag8
ag4
ag6
ag1
ag8
ag13
ag1
ag4
ag1
ag8
ag8
ag3
ag6
ag23
ag13
ag6
ag1
ag4
ag15
ag3
ag20
ag1
ag15
ag1
ag15
ag5
ag6
ag1
ag1
ag6
ag15
ag3
ag1
ag6
ag10
ag6
ag1
ag6
ag3
ag1
ag6
ag10
ag2
ag13
ag4
ag2
ag3
ag6
ag8
ag5
ag6
ag4
ag1
aVq
p378
ag13
ag1
ag8
ag4
ag1
ag8
ag3
ag6
ag6
ag3
ag11
ag3
ag13
ag1
ag4
ag6
ag3
ag1
ag1
ag6
ag6
ag1
ag5
ag10
ag3
ag8
ag1
ag3
ag1
ag15
ag6
ag15
ag1
ag6
ag4
ag10
ag10
ag3
ag4
ag2
ag2
ag23
ag13
ag1
ag11
ag6
ag5
ag5
ag1
ag17
ag10
ag3
ag6
ag4
ag6
ag13
ag1
ag4
ag6
ag3
ag1
ag6
ag1
ag1
ag3
ag1
ag15
ag10
ag3
ag15
ag3
ag2
ag6
ag13
ag1
ag6
ag3
ag5
ag1
ag15
ag3
ag6
ag6
ag3
ag11
ag3
ag11
ag3
ag16
ag5
ag2
ag12
ag6
ag11
ag6
ag3
ag1
ag6
ag6
ag6
aVw
p379
ag6
ag6
ag11
ag6
ag5
ag10
ag6
ag6
ag2
ag5
ag15
ag8
ag3
ag23
ag13
ag1
ag8
ag1
ag15
ag13
ag1
ag4
ag6
ag3
ag1
ag1
ag4
ag3
ag12
ag6
ag5
ag5
ag6
ag4
ag1
ag3
ag1
ag15
ag4
ag16
ag1
ag6
ag12
ag2
ag1
ag6
ag13
ag3
ag1
ag4
ag10
ag13
ag3
ag6
ag5
ag15
ag15
ag1
ag15
ag1
ag10
ag10
ag5
ag6
ag15
ag5
ag16
ag5
ag6
ag1
ag11
ag1
ag5
aVg
p380
ag4
ag10
ag13
ag6
ag1
ag3
ag1
ag17
ag4
ag1
ag3
ag16
ag13
ag1
ag8
ag13
ag1
ag4
ag6
ag3
ag1
ag3
ag6
ag6
ag3
ag11
ag3
ag10
ag3
ag6
ag6
ag3
ag2
ag6
ag10
ag3
ag6
ag4
ag6
ag13
ag1
ag4
ag6
ag3
ag1
ag8
ag2
ag6
ag6
ag13
ag3
ag6
ag6
ag1
ag2
ag6
ag12
ag3
ag17
ag8
ag5
ag12
ag5
ag5
ag13
ag3
ag6
ag16
ag1
ag13
ag6
ag3
ag4
ag5
ag13
ag13
ag1
ag15
ag10
ag5
ag8
ag6
ag6
ag5
ag8
aVc
p381
ag24
ag3
ag15
ag6
ag6
ag12
ag2
ag6
ag3
ag6
ag4
ag3
ag12
ag6
ag5
ag5
ag6
ag13
ag3
ag6
ag6
ag1
ag2
ag11
ag6
ag1
ag4
ag13
ag5
ag5
ag16
ag6
ag6
ag1
ag17
ag6
ag1
ag1
ag2
ag6
ag4
ag6
ag4
ag3
ag6
ag10
ag1
ag6
ag3
ag6
ag4
ag10
ag13
ag6
ag2
ag3
ag13
ag15
ag2
ag2
ag6
ag1
ag6
ag15
ag3
ag1
ag8
ag13
ag5
ag10
ag2
ag6
ag8
ag5
ag12
ag1
ag6
ag12
ag2
ag6
ag3
ag1
ag4
ag5
ag5
ag4
ag1
ag6
ag1
ag8
ag5
ag13
ag13
ag16
ag13
ag1
ag6
ag5
ag1
ag8
ag3
ag4
ag2
ag1
ag15
ag6
ag17
ag1
ag5
ag5
ag11
ag6
ag3
aVw
p382
ag6
ag23
ag13
ag1
ag8
ag6
ag13
ag1
ag4
ag6
ag3
ag1
ag1
ag8
ag3
ag3
ag3
ag11
ag5
ag6
ag5
ag5
ag13
ag3
ag6
ag2
ag6
ag10
ag6
ag1
ag5
ag13
ag5
ag8
ag4
ag3
ag12
ag6
ag5
ag5
ag6
ag4
ag13
ag3
ag11
ag6
ag1
ag2
ag6
ag3
ag5
ag1
aVc
p383
ag1
ag6
aVr
p384
ag6
ag4
ag6
ag1
ag5
ag6
ag11
ag6
ag5
ag10
ag6
ag6
ag2
ag8
ag3
ag1
ag8
ag6
ag3
ag3
ag1
ag15
ag16
ag3
ag13
ag10
ag4
ag2
ag1
ag15
ag6
ag1
ag6
ag3
ag6
ag6
ag1
ag16
ag5
ag6
ag13
ag4
ag2
ag4
ag2
ag1
ag15
ag6
ag10
ag1
ag1
ag6
ag3
ag10
ag4
ag6
ag16
ag6
ag6
ag1
ag8
ag6
ag1
ag5
ag5
ag5
ag12
ag13
ag6
ag6
ag1
ag6
ag5
ag6
ag11
ag6
ag5
ag8
ag2
ag6
ag16
ag6
ag3
ag11
ag6
ag2
ag6
ag1
ag8
ag6
ag3
ag3
ag6
ag10
ag3
ag16
ag16
ag5
ag3
ag16
ag13
ag1
ag8
ag2
ag6
ag6
ag10
ag3
ag6
ag6
ag3
ag10
ag3
ag11
ag6
ag1
ag15
ag2
ag1
ag2
ag6
ag4
ag10
ag4
ag8
ag2
ag6
ag16
ag6
ag3
ag11
ag6
ag4
ag1
ag3
ag1
ag2
ag6
ag15
ag6
ag10
ag2
ag4
ag5
ag1
ag5
ag1
ag2
ag6
ag1
ag4
ag6
ag2
ag6
ag15
ag1
ag13
ag6
ag1
ag5
ag17
ag6
ag5
ag13
ag3
ag4
ag6
ag8
ag13
ag1
ag4
ag6
ag3
ag1
aVw
p385
ag6
ag4
ag3
ag3
ag13
ag4
ag2
ag1
ag15
ag6
ag10
ag1
ag1
ag5
ag8
ag6
ag4
ag1
ag8
ag8
ag13
ag3
ag16
ag3
ag6
ag2
ag5
ag6
ag15
ag6
ag10
ag2
ag4
ag5
ag5
ag15
ag6
ag1
ag1
ag6
ag13
ag3
ag1
ag16
ag3
ag10
ag1
ag1
ag4
ag1
ag6
ag3
ag11
ag5
ag6
ag1
ag6
ag5
ag6
ag4
ag3
ag4
ag5
ag3
ag6
ag11
ag13
ag1
ag15
ag3
ag1
ag6
ag1
ag1
ag5
aVb
p386
ag6
ag1
ag3
ag17
ag11
ag4
ag2
ag1
ag1
ag6
aVc
p387
ag3
ag5
ag10
ag5
ag6
ag6
ag5
ag10
ag3
ag6
ag6
ag3
ag10
ag4
ag6
ag2
ag6
ag13
ag10
ag13
ag1
ag6
ag1
ag6
ag16
ag5
ag6
ag8
ag11
ag5
ag13
ag6
ag12
ag2
ag4
ag2
ag10
ag10
ag3
ag42
ag6
ag2
ag6
ag10
ag6
ag3
ag3
ag3
ag16
ag13
ag1
ag8
ag6
ag5
ag10
ag3
ag6
ag6
ag3
aVw
p388
ag6
ag4
ag10
ag3
ag6
ag2
ag6
ag6
ag5
ag6
ag4
ag2
ag1
ag15
ag6
ag10
ag1
ag16
ag3
ag6
ag2
ag5
ag6
ag5
ag15
ag10
ag3
ag6
ag6
ag3
ag1
ag2
ag6
ag11
ag3
ag1
ag4
ag6
ag8
ag2
ag6
ag1
ag6
ag3
ag16
ag13
ag1
ag8
ag6
ag4
ag2
ag5
ag15
ag12
ag2
ag2
ag6
ag16
ag6
ag3
ag11
ag6
ag5
ag2
ag5
ag15
ag4
ag5
ag6
ag12
ag1
ag2
ag6
ag16
ag3
ag6
ag2
ag5
ag6
ag17
ag6
ag1
ag10
ag10
ag3
ag5
ag8
ag2
ag6
ag13
ag1
ag4
ag6
ag3
ag1
ag4
ag2
ag3
ag4
ag6
ag3
ag4
ag1
ag2
ag6
ag3
ag6
ag1
ag1
ag2
ag6
aVc
p389
ag5
ag4
ag13
ag5
ag1
ag15
ag13
ag16
ag13
ag3
ag8
ag4
ag6
ag10
ag3
ag6
ag13
ag3
ag6
ag1
ag10
ag3
ag6
ag4
ag1
ag15
ag11
ag6
ag3
ag10
ag3
ag6
ag13
ag3
ag6
ag20
ag1
ag6
ag1
ag10
ag3
ag4
ag13
ag5
ag3
ag8
ag3
ag8
ag6
ag3
ag5
ag5
ag1
ag15
ag10
ag6
ag3
ag1
ag1
ag1
ag6
ag15
ag3
ag6
ag10
ag10
ag3
ag4
ag2
ag16
ag6
ag1
ag1
ag13
ag10
ag1
ag8
ag3
ag11
ag3
ag13
ag13
ag3
ag4
ag6
aVu
p390
ag1
ag4
ag6
ag3
ag1
ag6
ag3
ag6
ag8
ag3
ag2
ag6
ag1
ag10
ag13
ag1
ag13
ag10
ag1
ag16
ag13
ag5
ag8
ag3
ag2
ag6
ag10
ag3
ag6
ag10
ag3
ag6
ag13
ag3
ag6
ag6
ag5
ag1
ag15
ag12
ag3
ag17
ag8
ag5
ag12
ag1
ag4
ag5
ag13
ag1
ag15
ag2
ag5
ag6
ag4
ag3
ag1
ag1
ag1
ag2
ag6
ag6
ag8
ag1
ag1
ag8
ag1
ag3
ag5
ag4
ag10
ag4
ag1
ag3
ag6
ag1
ag5
ag1
ag6
ag2
ag6
ag6
ag15
ag6
ag3
ag6
ag13
ag13
ag5
ag5
ag10
ag6
ag3
ag8
ag3
ag6
ag1
ag13
ag5
ag5
ag16
ag1
ag6
ag42
ag10
ag6
ag3
ag1
ag3
ag6
ag10
ag3
ag1
ag6
ag13
ag16
ag14
ag6
ag4
ag11
ag6
ag2
ag13
ag1
ag1
ag6
ag3
ag10
ag3
ag6
ag1
ag2
ag6
ag23
ag13
ag1
ag8
ag4
ag1
ag8
ag10
ag3
ag6
ag10
ag3
ag6
ag13
ag3
ag6
ag13
ag1
ag4
ag6
ag3
ag1
ag4
ag6
ag12
ag2
ag2
ag6
ag1
ag13
ag5
ag6
ag5
ag1
ag15
ag15
ag6
ag2
ag6
ag3
ag6
ag8
ag3
ag6
ag4
ag2
ag5
ag5
ag6
ag1
ag15
ag1
ag15
ag5
ag15
ag3
ag2
ag12
ag6
ag3
ag6
ag6
ag11
ag6
ag5
ag10
ag6
ag4
ag4
ag13
ag1
ag8
ag3
ag1
ag23
ag13
ag1
ag8
ag2
ag6
ag3
ag6
ag13
ag5
ag1
ag15
ag13
ag1
ag4
ag6
ag3
ag1
ag1
ag6
ag1
ag16
ag5
ag6
ag13
ag6
ag13
ag6
ag3
ag13
ag10
ag10
ag3
ag8
ag5
ag6
ag10
ag3
ag8
ag2
ag6
ag12
ag3
ag17
ag8
ag5
ag12
ag2
ag13
ag1
ag3
ag13
ag4
ag1
ag15
ag3
ag6
ag16
ag14
ag6
ag4
ag11
ag1
ag2
ag6
ag6
ag5
ag1
ag15
ag6
ag10
ag2
ag6
ag8
ag3
ag5
ag15
ag3
ag2
ag10
ag6
ag3
ag8
ag3
ag4
ag5
ag1
ag5
ag1
ag15
ag3
ag5
ag15
ag4
ag3
ag1
ag6
ag16
ag6
ag12
ag6
ag6
ag1
ag2
ag5
ag6
ag1
ag1
ag1
ag2
ag5
ag6
ag8
ag3
ag1
ag2
ag6
ag6
ag4
ag1
ag5
ag15
ag3
ag2
ag4
ag5
ag4
ag13
ag5
ag6
ag6
ag3
ag6
ag8
ag1
ag3
ag5
ag4
ag10
ag4
ag1
ag3
ag6
ag1
a.