(lp0
VThe Netherlands
p1
aVUK
p2
aVAustralia
p3
aVAustralia
p4
aVAustralia
p5
aVUSA
p6
aVUSA
p7
aVSwitzerland
p8
aVArgentina
p9
aVAustralia
p10
aVBrazil
p11
aVUSA
p12
aVBrazil
p13
aVUSA
p14
aVBrazil
p15
aVSaudi Arabia
p16
aVChina
p17
aVChina
p18
aVChina
p19
aVUSA
p20
aVUSA
p21
aVUSA
p22
aVUSA
p23
aVChina
p24
aVUSA
p25
aVFrance
p26
aVAustralia
p27
aVUSA
p28
aVUSA
p29
aVGermany
p30
aVUSA
p31
aVUK
p32
aVGermany
p33
aVNorway
p34
aVNorway
p35
aVNorway
p36
aVGermany
p37
aVSwitzerland
p38
aVGermany
p39
aVGermany
p40
aVSwitzerland
p41
aVUSA
p42
aVUSA
p43
aVUSA
p44
aVUSA
p45
aVUSA
p46
aVNorway
p47
aVUSA
p48
aVUSA
p49
aVGermany
p50
aVSpain
p51
aVSpain
p52
aVUSA
p53
aVChina
p54
aVChina
p55
aVAustralia
p56
aVAustralia
p57
aVUSA
p58
aVUSA
p59
aVThe Netherlands
p60
aVThe Netherlands
p61
aVThe Netherlands
p62
aVThe Netherlands
p63
aVAustralia
p64
aVGermany
p65
aVBrazil
p66
aVBrazil
p67
aVMexico
p68
aVMexico
p69
aVUtah
p70
aVUSA
p71
aVUtah
p72
aVUSA
p73
aVUSA
p74
aVRussia
p75
aVUSA
p76
aVUSA
p77
aVBrazil
p78
aVCanada
p79
aVBrazil
p80
aVUSA
p81
aVUSA
p82
aVUSA
p83
aVUSA
p84
aVUSA
p85
aVSweden
p86
aVSweden
p87
aVSweden
p88
aVDenmark
p89
aVUSA
p90
aVUSA
p91
aVUSA
p92
aVRussia
p93
aVSaudi Arabia
p94
aVUSA
p95
aVChina
p96
aVUK
p97
aVFrance
p98
aVFrance
p99
aVUSA
p100
aVSaudi Arabia
p101
aVUSA
p102
aVUSA
p103
aVUSA
p104
aVUSA
p105
aVUSA
p106
aVUSA
p107
aVUSA
p108
aVUSA
p109
aVUSA
p110
aVUSA
p111
aVIsrael
p112
aVAustralia
p113
aVNorway
p114
aVUK
p115
aVCzech Republic
p116
aVUSA
p117
aVUSA
p118
aVAustralia
p119
aVNorway
p120
aVCanada
p121
aVUK
p122
aVCanada
p123
aVUSA
p124
aVUSA
p125
aVUK
p126
aVCanada
p127
aVCanada
p128
aVUK
p129
aVUSA
p130
aVChina
p131
aVUSA
p132
aVCanada
p133
aVCanada
p134
aVUSA
p135
aVSwitzerland
p136
aVDenmark
p137
aVDenmark
p138
aVCanada
p139
aVDenmark
p140
aVChina
p141
aVChina
p142
aVChina
p143
aVChina
p144
aVAustralia
p145
aVAustralia
p146
aVAustralia
p147
a.