(lp0
Vissue
p1
aVgeophysics
p2
aVnonlinear
p3
aVimaging
p4
aVcondition
p5
aVeffect
p6
aVsource
p7
aVillumination
p8
aVimaging
p9
aVfractures
p10
aVnonwelded
p11
aVinterfaces
p12
aVfrequencies
p13
aVricker
p14
aVwavelet
p15
aVfrequency
p16
aVdependency
p17
aVq
p18
aVaffects
p19
aVspectral
p20
aVratio
p21
aVestimates
p22
aVviscoelastic
p23
aVtime
p24
aVreversal
p25
aVimaging
p26
aVincluding
p27
aVporoelastic
p28
aVeffects
p29
aVlinear
p30
aVslip
p31
aVtheory
p32
aVapplication
p33
aV3d
p34
aVmagnetic
p35
aVamplitude
p36
aVinversion
p37
aViron
p38
aVoxide
p39
aVcopper
p40
aVgold
p41
aVdeposits
p42
aVlow
p43
aVmagnetic
p44
aVlatitudes
p45
aVcase
p46
aVstudy
p47
aVcaraj
p48
aVmineral
p49
aVprovince
p50
aVbrazil
p51
aVinversion
p52
aVdonor
p53
aVvertical
p54
aVtime
p55
aVshifts
p56
aVupdate
p57
aVnear
p58
aVsurface
p59
aVdepth
p60
aVvelocity
p61
aVmodel
p62
aV3d
p63
aVseismic
p64
aVattributes
p65
aVtight
p66
aVgas
p67
aVsand
p68
aVreservoir
p69
aVcharacterization
p70
aVeastern
p71
aVsulige
p72
aVgas
p73
aVfield
p74
aVordos
p75
aVbasin
p76
aVchina
p77
aVamplitude
p78
aVvariation
p79
aVoffset
p80
aVprestack
p81
aVwaveform
p82
aVinversion
p83
aVdirect
p84
aVcomparison
p85
aVusing
p86
aVreal
p87
aVdata
p88
aVexample
p89
aVrock
p90
aVsprings
p91
aVuplift
p92
aVwyoming
p93
aVusa
p94
aVimproved
p95
aVseismic
p96
aVimage
p97
aVq
p98
aVcompensated
p99
aVreverse
p100
aVtime
p101
aVmigration
p102
aVapplication
p103
aVcrosswell
p104
aVfield
p105
aVdata
p106
aVwest
p107
aVtexas
p108
aVazimuth
p109
aVanisotropic
p110
aVprestack
p111
aVtime
p112
aVmigration
p113
aVlocal
p114
aVangle
p115
aVdomain
p116
aVapplications
p117
aVfracture
p118
aVdetection
p119
aVeffects
p120
aVfluid
p121
aVshear
p122
aVresistance
p123
aVsquirt
p124
aVflow
p125
aVvelocity
p126
aVdispersion
p127
aVrocks
p128
aVbulk
p129
aVmodulus
p130
aVdispersion
p131
aVattenuation
p132
aVsandstones
p133
aVbroadband
p134
aVelectrical
p135
aVproperties
p136
aVclays
p137
aVshales
p138
aVcomparative
p139
aVinvestigations
p140
aVremolded
p141
aVpreserved
p142
aVsamples
p143
aVeffect
p144
aVsystematic
p145
aVdiagenetic
p146
aVchanges
p147
aVmechanical
p148
aVbehavior
p149
aVquartz
p150
aVcemented
p151
aVsandstone
p152
aVpermeability
p153
aVprediction
p154
aVbased
p155
aVinduced
p156
aVpolarization
p157
aVinsights
p158
aVmeasurements
p159
aVsandstone
p160
aVunconsolidated
p161
aVsamples
p162
aVspanning
p163
aVwide
p164
aVpermeability
p165
aVrange
p166
aVeffective
p167
aVmedium
p168
aVderivation
p169
aVcole
p170
aVcole
p171
aVrelation
p172
aVelectric
p173
aVconductivity
p174
aVconstructive
p175
aVoptimization
p176
aVelectrode
p177
aVlocations
p178
aVtarget
p179
aVfocused
p180
aVresistivity
p181
aVmonitoring
p182
aVrestricted
p183
aVdiffusion
p184
aVeffects
p185
aVnuclear
p186
aVmagnetic
p187
aVresonance
p188
aVdt2
p189
aVmaps
p190
aVchallenges
p191
aVopportunities
p192
aVfractured
p193
aVrock
p194
aVimaging
p195
aVusing
p196
aV3d
p197
aVcross
p198
aVborehole
p199
aVelectrical
p200
aVresistivity
p201
aVseismic
p202
aVwave
p203
aVpropagation
p204
aVconcepts
p205
aVapplied
p206
aVinterpretation
p207
aVmarine
p208
aVcontrolled
p209
aVsource
p210
aVelectromagnetics
p211
aVaccuracy
p212
aVeffectiveness
p213
aVdimensional
p214
aVcontrolled
p215
aVsource
p216
aVelectromagnetic
p217
aVdata
p218
aVinversions
p219
aVrapid
p220
aVresistivity
p221
aVimaging
p222
aVmarine
p223
aVcontrolled
p224
aVsource
p225
aVelectromagnetic
p226
aVsurveys
p227
aVtransmitter
p228
aVpolarizations
p229
aVapplication
p230
aVnorth
p231
aValex
p232
aVmud
p233
aVvolcano
p234
aVwest
p235
aVnile
p236
aVdelta
p237
aVfast
p238
aV1d
p239
aVinversion
p240
aVlogging
p241
aVdrilling
p242
aVresistivity
p243
aVmeasurements
p244
aVimproved
p245
aVestimation
p246
aVformation
p247
aVresistivity
p248
aVhigh
p249
aVangle
p250
aVhorizontal
p251
aVwells
p252
aVpower
p253
aVline
p254
aVground
p255
aVresistance
p256
aVdetection
p257
aVusing
p258
aVhelicopter
p259
aVelectromagnetic
p260
aVsystems
p261
aVprobabilistic
p262
aVinversion
p263
aVairborne
p264
aVelectromagnetic
p265
aVdata
p266
aVspatial
p267
aVconstraints
p268
aVtransient
p269
aVelectromagnetic
p270
aVfinite
p271
aVdifference
p272
aVtime
p273
aVdomain
p274
aVearth
p275
aVmodeling
p276
aVsteel
p277
aVinfrastructure
p278
aVseismic
p279
aVvertical
p280
aVvibrator
p281
aVdriven
p282
aVlinear
p283
aVsynchronous
p284
aVmotors
p285
aVoptimal
p286
aVreorientation
p287
aVgeophysical
p288
aVsensors
p289
aVquaternion
p290
aVbased
p291
aVanalytical
p292
aVsolution
p293
aVdimensional
p294
aVgravity
p295
aVinversion
p296
aVusing
p297
aVgraph
p298
aVtheory
p299
aVdelineate
p300
aVskeleton
p301
aVhomogeneous
p302
aVsources
p303
aVstructural
p304
aVjoint
p305
aVinversion
p306
aVcoupled
p307
aVeuler
p308
aVdeconvolution
p309
aVisolated
p310
aVgravity
p311
aVmagnetic
p312
aVanomalies
p313
aVapplication
p314
aVcauchy
p315
aVtype
p316
aVintegrals
p317
aVdeveloping
p318
aVeffective
p319
aVmethods
p320
aVdepth
p321
aVbasement
p322
aVinversion
p323
aVgravity
p324
aVgravity
p325
aVgradiometry
p326
aVdata
p327
aVreflection
p328
aVwaveform
p329
aVinversion
p330
aVground
p331
aVpenetrating
p332
aVradar
p333
aVdata
p334
aVcharacterizing
p335
aVultrathin
p336
aVlayers
p337
aVnonaqueous
p338
aVphase
p339
aVliquid
p340
aVcontaminants
p341
aVstratified
p342
aVmedia
p343
aVinterpolating
p344
aVwide
p345
aVaperture
p346
aVground
p347
aVpenetrating
p348
aVradar
p349
aValiasing
p350
aVextreme
p351
aVcurvature
p352
aVextreme
p353
aVflexure
p354
aVanalysis
p355
aVfracture
p356
aVcharacterization
p357
aV3d
p358
aVseismic
p359
aVdata
p360
aVnew
p361
aVanalytical
p362
aValgorithms
p363
aVgeologic
p364
aVimplications
p365
aVhorizon
p366
aVvolumes
p367
aVinterpreted
p368
aVconstraints
p369
aV3d
p370
aVseismic
p371
aVimage
p372
aVprocessing
p373
aVunconformities
p374
aVgravity
p375
aVgradient
p376
aVmagnetic
p377
aVterrain
p378
aVeffects
p379
aVairborne
p380
aVapplications
p381
aVpractical
p382
aVfast
p383
aVfourier
p384
aVtransform
p385
aVtechnique
p386
aVjoint
p387
aVbayesian
p388
aVwavelet
p389
aVpath
p390
aVestimation
p391
aVimpedance
p392
aVdomain
p393
aVapplications
p394
aVboundary
p395
aVpreserving
p396
aVseismic
p397
aVtomography
p398
aVdelineating
p399
aVreservoir
p400
aVboundaries
p401
aVzones
p402
aVco2
p403
aVsaturation
p404
aVimproving
p405
aVimaging
p406
aVrepeatability
p407
aVland
p408
aVusing
p409
aVvirtual
p410
aVsource
p411
aVredatuming
p412
aVshallow
p413
aVburied
p414
aVreceivers
p415
aVsimultaneous
p416
aVmultitrace
p417
aVimpedance
p418
aVinversion
p419
aVtransform
p420
aVdomain
p421
aVsparsity
p422
aVpromotion
p423
aVinversion
p424
aVseismic
p425
aVrefraction
p426
aVreflection
p427
aVdata
p428
aVbuilding
p429
aVlong
p430
aVwavelength
p431
aVvelocity
p432
aVmodels
p433
aVlinear
p434
aVcomplementarity
p435
aVproblem
p436
aVnovel
p437
aVapproach
p438
aVdesign
p439
aVfinite
p440
aVimpulse
p441
aVresponse
p442
aVwavefield
p443
aVextrapolation
p444
aVfilters
p445
aVimproving
p446
aVinput
p447
aVoutput
p448
aVperformance
p449
aV2d
p450
aV3d
p451
aVangle
p452
aVdomain
p453
aVcommon
p454
aVimage
p455
aVgathers
p456
aVreverse
p457
aVtime
p458
aVmigration
p459
aVsimple
p460
aVaccurate
p461
aVdiscontinuous
p462
aVgalerkin
p463
aVscheme
p464
aVmodeling
p465
aVscalar
p466
aVwave
p467
aVpropagation
p468
aVmedia
p469
aVcurved
p470
aVinterfaces
p471
aVfast
p472
aVhuygens
p473
aVsweeping
p474
aVmethods
p475
aVmultiarrival
p476
aVgreen
p477
aVfunctions
p478
aVhelmholtz
p479
aVequations
p480
aVhigh
p481
aVfrequency
p482
aVregime
p483
aVmultidip
p484
aVtomography
p485
aVformulation
p486
aVmigration
p487
aVvelocity
p488
aVanalysis
p489
aVadvances
p490
aVtime
p491
aVlapse
p492
aVgeophysics
p493
aVintroduction
p494
aVassessment
p495
aV4d
p496
aVseismic
p497
aVrepeatability
p498
aVco2
p499
aVdetection
p500
aVlimits
p501
aVusing
p502
aVsparse
p503
aVpermanent
p504
aVland
p505
aVarray
p506
aVaquistore
p507
aVco2
p508
aVstorage
p509
aVsite
p510
aVtime
p511
aVlapse
p512
aVmonitoring
p513
aVco2
p514
aVsequestration
p515
aVsite
p516
aVinvestigation
p517
aVintegration
p518
aVreservoir
p519
aVproperties
p520
aVseismic
p521
aVimaging
p522
aVborehole
p523
aVsurface
p524
aVgravity
p525
aVdata
p526
aVexample
p527
aVmeasurement
p528
aVpractical
p529
aVapplications
p530
aVtime
p531
aVlapse
p532
aVseismic
p533
aVattenuation
p534
aVtime
p535
aVlapse
p536
aVseismic
p537
aVperformance
p538
aVsparse
p539
aVpermanent
p540
aVarray
p541
aVexperience
p542
aVaquistore
p543
aVco2
p544
aVstorage
p545
aVsite
p546
aVrecent
p547
aVadvances
p548
aVtime
p549
aVlapse
p550
aVlaboratory
p551
aVrock
p552
aVphysics
p553
aVcharacterization
p554
aVmonitoring
p555
aVfluid
p556
aVrock
p557
aVinteractions
p558
aVelastic
p559
aVinverse
p560
aVscattering
p561
aVfluid
p562
aVvariation
p563
aVtime
p564
aVlapse
p565
aVseismic
p566
aVdata
p567
aVinversion
p568
aVpermeability
p569
aVdistribution
p570
aVtime
p571
aVlapse
p572
aVgravity
p573
aVdata
p574
aVevolution
p575
aVblock
p576
aVcave
p577
aVtime
p578
aVlapse
p579
aVpassive
p580
aVsource
p581
aVbody
p582
aVwave
p583
aVtraveltime
p584
aVtomography
p585
aVfeasibility
p586
aVtime
p587
aVlapse
p588
aVgravity
p589
aVgravity
p590
aVgradiometry
p591
aVmonitoring
p592
aVsteam
p593
aVassisted
p594
aVgravity
p595
aVdrainage
p596
aVreservoirs
p597
aVfield
p598
aVscale
p599
aVtime
p600
aVdomain
p601
aVspectral
p602
aVinduced
p603
aVpolarization
p604
aVmonitoring
p605
aVgeochemical
p606
aVchanges
p607
aVinduced
p608
aVinjected
p609
aVco2
p610
aVshallow
p611
aVaquifer
p612
aVfield
p613
aVtest
p614
aVmonitoring
p615
aVgas
p616
aVreservoir
p617
aVdevelopment
p618
aVusing
p619
aVtime
p620
aVlapse
p621
aVcontinuous
p622
aVelectromagnetic
p623
aVprofile
p624
aVmethod
p625
aVcombined
p626
aVeffects
p627
aVpressure
p628
aVcementation
p629
aV4d
p630
aVseismic
p631
aVdata
p632
a.