(lp0
VNorway
p1
aVUSA
p2
aVUSA
p3
aVNetherlands
p4
aVUSA
p5
aVFrance
p6
aVChina
p7
aVSwitzerland
p8
aVSwitzerland
p9
aVSweden
p10
aVSwitzerland
p11
aVBotswana
p12
aVUSA
p13
aVUSA
p14
aVCanada
p15
aVUSA
p16
aVUSA
p17
aVUSA
p18
aVUSA
p19
aVChina
p20
aVUSA
p21
aVUSA
p22
aVPortugal
p23
aVPortugal
p24
aVPortugal
p25
aVPortugal
p26
aVPortugal
p27
aVPortugal
p28
aVChina
p29
aVCanada
p30
aVChina
p31
aVThe Netherlands
p32
aVNorway
p33
aVThe Netherlands
p34
aVEgypt
p35
aVEgypt
p36
aVFrance
p37
aVUSA
p38
aVDenmark
p39
aVDenmark
p40
aVUSA
p41
aVSouth Africa
p42
aVChina
p43
aVBrazil
p44
aVUSA
p45
aVBrazil
p46
aVChina
p47
aVUSA
p48
aVUSA
p49
aVUSA
p50
aVNorway
p51
aVNorway
p52
aVNorway
p53
aVUSA
p54
aVJapan
p55
aVSaudi Arabia
p56
aVSaudi Arabia
p57
aVEgypt
p58
aVSaudi Arabia
p59
aVRomania
p60
aVThe Netherlands
p61
aVSaudi Arabia
p62
aVNetherlands
p63
aVUSA
p64
aVUSA
p65
aVUSA
p66
aVUSA
p67
aVUSA
p68
aVUSA
p69
aVUSA
p70
aVUSA
p71
aVUSA
p72
aVUSA
p73
aVFrance
p74
aVSaudi Arabia
p75
aVUSA
p76
aVUSA
p77
aVUSA
p78
aVChina
p79
aVSpain
p80
aVUSA
p81
aVChina
p82
aVUSA
p83
aVChina
p84
aVUSA
p85
aVUSA
p86
aVCanada
p87
aVCanada
p88
aVCanada
p89
aVCanada
p90
aVFrance
p91
aVChina
p92
aVChina
p93
aVMalaysia
p94
aVUSA
p95
aVChina
p96
aVChina
p97
aVChina
p98
aVJapan
p99
aVJapan
p100
aVJapan
p101
aVJapan
p102
aVSwitzerland
p103
aVThe Netherlands
p104
aVFrance
p105
aVUSA
p106
aVChina
p107
aVUSA
p108
aVUSA
p109
aVUSA
p110
aVChina
p111
aVUSA
p112
aVChina
p113
aVItaly
p114
aVThe Netherlands
p115
aVUSA
p116
aVSwitzerland
p117
aVUSA
p118
aVUSA
p119
aVUSA
p120
aVUSA
p121
aVThe Netherlands
p122
aVOman
p123
aVUSA
p124
aVNorway
p125
aVUSA
p126
aVSwitzerland
p127
aVUSA
p128
aVThe Netherlands
p129
aVNorway
p130
aVUSA
p131
aVUSA
p132
aVThe Netherlands
p133
aVUSA
p134
aVCanada
p135
a.