(lp0
Vissue
p1
aVgeophysics
p2
aVoptimal
p3
aVtow
p4
aVair
p5
aVguns
p6
aVshallow
p7
aVenhance
p8
aVlow
p9
aVfrequencies
p10
aVautofocus
p11
aVimaging
p12
aVimage
p13
aVreconstruction
p14
aVbased
p15
aVinverse
p16
aVscattering
p17
aVtheory
p18
aVsimultaneous
p19
aVdictionary
p20
aVlearning
p21
aVdenoising
p22
aVseismic
p23
aVdata
p24
aVconstraining
p25
aVhelicopter
p26
aVelectromagnetic
p27
aVmodels
p28
aVokavango
p29
aVdelta
p30
aVseismic
p31
aVrefraction
p32
aVseismic
p33
aVreflection
p34
aVdata
p35
aVfracture
p36
aVparameter
p37
aVinversion
p38
aVmarcellus
p39
aVshale
p40
aVcommon
p41
aVreflection
p42
aVpoint
p43
aVmigration
p44
aVvelocity
p45
aVanalysis
p46
aV2d
p47
aVp
p48
aVwave
p49
aVdata
p50
aVtti
p51
aVmedia
p52
aVefficient
p53
aValgorithm
p54
aVcomputing
p55
aVnearest
p56
aVmedium
p57
aVapproximations
p58
aVarbitrary
p59
aVanisotropic
p60
aVstiffness
p61
aVtensor
p62
aVfield
p63
aVexamples
p64
aVjoint
p65
aVpetrophysical
p66
aVinversion
p67
aVresistivity
p68
aVnuclear
p69
aVmeasurements
p70
aVacquired
p71
aVhigh
p72
aVangle
p73
aVhorizontal
p74
aVwells
p75
aVtheoretical
p76
aVstudy
p77
aVinversing
p78
aVanisotropic
p79
aVpermeability
p80
aVvti
p81
aVphase
p82
aVmedia
p83
aVflexural
p84
aVwaves
p85
aVfluid
p86
aVfilled
p87
aVborehole
p88
aVrock
p89
aVphysics
p90
aVbased
p91
aVestimation
p92
aVcritical
p93
aVclay
p94
aVvolume
p95
aVfraction
p96
aVeffect
p97
aVseismic
p98
aVvelocity
p99
aVpetrophysical
p100
aVproperties
p101
aVlow
p102
aVtemperature
p103
aVdielectric
p104
aVmeasurements
p105
aVconfined
p106
aVwater
p107
aVporous
p108
aVgranites
p109
aVexperimental
p110
aVstudy
p111
aVazimuthal
p112
aVreception
p113
aVcharacteristics
p114
aVacoustic
p115
aVlogging
p116
aVtransducers
p117
aVbased
p118
aVphased
p119
aVarc
p120
aVarrays
p121
aVrobust
p122
aVconductance
p123
aVestimates
p124
aVspatial
p125
aVtemporal
p126
aVderivatives
p127
aVborehole
p128
aVelectromagnetic
p129
aVdata
p130
aVinversion
p131
aVcapacitively
p132
aVcoupled
p133
aVresistivity
p134
aVline
p135
aVantenna
p136
aVmeasurements
p137
aVapproximate
p138
aV3d
p139
aVcomputational
p140
aVmethod
p141
aVreal
p142
aVtime
p143
aVcomputation
p144
aVinduction
p145
aVlogging
p146
aVresponses
p147
aVjoint
p148
aVestimation
p149
aVmodal
p150
aVattenuation
p151
aVvelocity
p152
aVmultichannel
p153
aVsurface
p154
aVwave
p155
aVdata
p156
aVimpact
p157
aVprepolarization
p158
aVearth
p159
aVfield
p160
aVlaboratory
p161
aVnuclear
p162
aVmagnetic
p163
aVresonance
p164
aVrelaxation
p165
aVexperiments
p166
aVaccounting
p167
aVimperfect
p168
aVforward
p169
aVmodeling
p170
aVgeophysical
p171
aVinverse
p172
aVproblems
p173
aVexemplified
p174
aVcrosshole
p175
aVtomography
p176
aVstrategy
p177
aVcoupled
p178
aV3d
p179
aVimaging
p180
aVlarge
p181
aVscale
p182
aVseismic
p183
aVelectromagnetic
p184
aVdata
p185
aVsets
p186
aVapplication
p187
aVsubsalt
p188
aVimaging
p189
aVautomatic
p190
aVdetermination
p191
aVlocation
p192
aVdepth
p193
aVdip
p194
aVcontacts
p195
aVaeromagnetic
p196
aVdata
p197
aVnav
p198
aVedge
p199
aVedge
p200
aVdetection
p201
aVpotential
p202
aVfield
p203
aVsources
p204
aVusing
p205
aVnormalized
p206
aVanisotropy
p207
aVvariance
p208
aVmatter
p209
aVsize
p210
aVmoment
p211
aVmagnitude
p212
aVmicroseismic
p213
aVevents
p214
aVexact
p215
aVequations
p216
aVfluid
p217
aVsolid
p218
aVsubstitution
p219
aVusing
p220
aVpseudo
p221
aVsteady
p222
aVstate
p223
aVflow
p224
aVequation
p225
aV4d
p226
aVseismic
p227
aVtraveltime
p228
aVshifts
p229
aVestimation
p230
aVpressure
p231
aVsaturation
p232
aVchanges
p233
aVzero
p234
aVstack
p235
aVconverted
p236
aVwave
p237
aVprocessing
p238
aVextract
p239
aVsubsurface
p240
aVdensity
p241
aVinformation
p242
aVeffects
p243
aVdurations
p244
aVcrosscorrelated
p245
aVmicrotremor
p246
aVrecords
p247
aVbroadband
p248
aVdispersion
p249
aVmeasurements
p250
aVusing
p251
aVseismic
p252
aVinterferometry
p253
aViterative
p254
aVsupervirtual
p255
aVrefraction
p256
aVinterferometry
p257
aVretrieval
p258
aVreflections
p259
aVambient
p260
aVnoise
p261
aVrecorded
p262
aVmizil
p263
aVarea
p264
aVromania
p265
aVrecipe
p266
aVpractical
p267
aVwaveform
p268
aVinversion
p269
aVanisotropic
p270
aVmedia
p271
aVanalytical
p272
aVparameter
p273
aVresolution
p274
aVstudy
p275
aVviscoacoustic
p276
aVwaveform
p277
aVinversion
p278
aVvelocity
p279
aVstructures
p280
aVtime
p281
aVdomain
p282
aVq
p283
aVcompensated
p284
aVreverse
p285
aVtime
p286
aVmigration
p287
aVcomparison
p288
aVmethods
p289
aVextracting
p290
aVadcigs
p291
aVrtm
p292
aVnoise
p293
aVremoval
p294
aVmigration
p295
aVtime
p296
aVshift
p297
aVimages
p298
aVpossibilities
p299
aVcompressed
p300
aVsensing
p301
aVbased
p302
aVkirchhoff
p303
aVprestack
p304
aVmigration
p305
aVmodeling
p306
aVacoustic
p307
aVwave
p308
aVpropagation
p309
aVheterogeneous
p310
aVattenuating
p311
aVmedia
p312
aVusing
p313
aVdecoupled
p314
aVfractional
p315
aVlaplacians
p316
aVexplicit
p317
aVtime
p318
aVevolution
p319
aVmethod
p320
aVacoustic
p321
aVwave
p322
aVpropagation
p323
aVmimetic
p324
aVseismic
p325
aVwave
p326
aVmodeling
p327
aVincluding
p328
aVtopography
p329
aVdeformed
p330
aVstaggered
p331
aVgrids
p332
aVfrequency
p333
aVdependent
p334
aVreflection
p335
aVcoefficients
p336
aVdiffusive
p337
aVviscous
p338
aVmedia
p339
aVlowrank
p340
aVseismic
p341
aVwave
p342
aVextrapolation
p343
aVstaggered
p344
aVgrid
p345
aV3d
p346
aVfrequency
p347
aVdomain
p348
aVfinite
p349
aVdifference
p350
aVviscoelastic
p351
aVwave
p352
aVmodeling
p353
aVusing
p354
aVweighted
p355
aVaverage
p356
aV27
p357
aVpoint
p358
aVoperators
p359
aVoptimal
p360
aVcoefficients
p361
aVsemiautomatic
p362
aVmethod
p363
aVtie
p364
aVlogs
p365
aVseismic
p366
aVdata
p367
aVapplications
p368
aVsynchrosqueezing
p369
aVtransform
p370
aVseismic
p371
aVtime
p372
aVfrequency
p373
aVanalysis
p374
aVseismic
p375
aVdata
p376
aVrestoration
p377
aVdata
p378
aVdriven
p379
aVtight
p380
aVframe
p381
aVfast
p382
aVsimple
p383
aVmethod
p384
aVspectral
p385
aVenhancement
p386
aVrandom
p387
aVnoise
p388
aVattenuation
p389
aVf
p390
aVx
p391
aVempirical
p392
aVmode
p393
aVdecomposition
p394
aVpredictive
p395
aVfiltering
p396
aVsparse
p397
aVreflectivity
p398
aVinversion
p399
aVnonstationary
p400
aVseismic
p401
aVdata
p402
aVabsorption
p403
aVcompensation
p404
aVmethod
p405
aVl1
p406
aVnorm
p407
aVregularization
p408
aVattenuation
p409
aVestimation
p410
aVusing
p411
aVsweep
p412
aVsignals
p413
aVultrasonic
p414
aVlaboratory
p415
aVmeasurements
p416
aVadvances
p417
aVfinite
p418
aVfrequency
p419
aVimaging
p420
aVinversion
p421
aVintroduction
p422
aVreverse
p423
aVtime
p424
aVmigration
p425
aVacoustic
p426
aVvti
p427
aVmedia
p428
aVusing
p429
aVhigh
p430
aVorder
p431
aVstereo
p432
aVoperator
p433
aVseismic
p434
aVenvelope
p435
aVinversion
p436
aVmodulation
p437
aVsignal
p438
aVmodel
p439
aVmultidimensional
p440
aVdeconvolution
p441
aVprocessing
p442
aVseismic
p443
aVinterferometry
p444
aVarctic
p445
aVdata
p446
aVmarchenko
p447
aVimaging
p448
aVwave
p449
aVequation
p450
aVmigration
p451
aVvelocity
p452
aVanalysis
p453
aVvti
p454
aVmodels
p455
aVmultiparameter
p456
aVwaveform
p457
aVinversion
p458
aVlarge
p459
aVwide
p460
aVazimuth
p461
aVlow
p462
aVfrequency
p463
aVland
p464
aVdata
p465
aVset
p466
aVoman
p467
aVmultiscale
p468
aVadjoint
p469
aVwaveform
p470
aVdifference
p471
aVtomography
p472
aVusing
p473
aVwavelets
p474
aVreverse
p475
aVtime
p476
aVdemigration
p477
aVusing
p478
aVextended
p479
aVimaging
p480
aVcondition
p481
aVdata
p482
aVdriven
p483
aVwavefield
p484
aVfocusing
p485
aVimaging
p486
aVmultidimensional
p487
aVdeconvolution
p488
aVnumerical
p489
aVexamples
p490
aVreflection
p491
aVdata
p492
aVinternal
p493
aVmultiples
p494
aVtime
p495
aVlapse
p496
aVwaveform
p497
aVinversion
p498
aVlimited
p499
aVoffset
p500
aVseismic
p501
aVdata
p502
aVusing
p503
aVlocal
p504
aVmigration
p505
aVregularization
p506
aVsimultaneous
p507
aVinversion
p508
aVdata
p509
aVbandwidth
p510
aVtomographic
p511
aVwaveform
p512
aVinversion
p513
aVusing
p514
aVimage
p515
aVwarping
p516
aVtime
p517
aVlapse
p518
aVimage
p519
aVdomain
p520
aVwavefield
p521
aVtomography
p522
aVcomment
p523
aVapplication
p524
aVvariable
p525
aVprojection
p526
aVscheme
p527
aVfrequency
p528
aVdomain
p529
aVwaveform
p530
aVinversion
p531
aVli
p532
aVj
p533
aVrickett
p534
aVabubakar
p535
aVgeophysics
p536
aV78
p537
aV6
p538
aVr249
p539
aVr257
p540
a.