(lp0
Vissue
p1
aVgeophysics
p2
aVefficient
p3
aVanisotropic
p4
aVdip
p5
aVfiltering
p6
aVinverse
p7
aVcorrelation
p8
aVfunctions
p9
aVsubsurface
p10
aVdomain
p11
aVinterferometric
p12
aVobjective
p13
aVfunctions
p14
aVtarget
p15
aVoriented
p16
aVwaveform
p17
aVinversion
p18
aVprocessing
p19
aVquality
p20
aVcontrol
p21
aVstrategies
p22
aVconsistent
p23
aVtime
p24
aVlapse
p25
aVseismic
p26
aVattributes
p27
aVcase
p28
aVhistory
p29
aVinternal
p30
aVblowout
p31
aVusing
p32
aVvintage
p33
aVdata
p34
aVsurveying
p35
aVbatavia
p36
aVgraveyard
p37
aVgeophysical
p38
aVcontrolled
p39
aVexperiments
p40
aVsubsurface
p41
aVimaging
p42
aVarchaeological
p43
aVsites
p44
aVindian
p45
aVocean
p46
aVcoral
p47
aVisland
p48
aVelectrical
p49
aVproperties
p50
aVcorrelation
p51
aVpetrology
p52
aVupper
p53
aVyangtze
p54
aVorganic
p55
aVshales
p56
aVdispersive
p57
aVdirectional
p58
aVelectrical
p59
aVconductivity
p60
aVdielectric
p61
aVpermittivity
p62
aVconductive
p63
aVmineral
p64
aVbearing
p65
aVsamples
p66
aVderived
p67
aVmultifrequency
p68
aVtensor
p69
aVelectromagnetic
p70
aVinduction
p71
aVmeasurements
p72
aVreliability
p73
aVvelocity
p74
aVmeasurements
p75
aVmonopole
p76
aVacoustic
p77
aVlogging
p78
aVdrilling
p79
aVtools
p80
aVfast
p81
aVformations
p82
aVsonic
p83
aVproperties
p84
aVsignature
p85
aVoverpressure
p86
aVmarcellus
p87
aVgas
p88
aVshale
p89
aVappalachian
p90
aVbasin
p91
aVsimulation
p92
aVinterpretation
p93
aVsonic
p94
aVwaveforms
p95
aVhigh
p96
aVangle
p97
aVhorizontal
p98
aVwells
p99
aV3d
p100
aVassessment
p101
aVunderground
p102
aVpillar
p103
aVcombination
p104
aVphotogrammetric
p105
aVgeoelectric
p106
aVmethods
p107
aVfinite
p108
aVelement
p109
aVanalysis
p110
aVmodel
p111
aVparameters
p112
aVdistributed
p113
aVhierarchy
p114
aVgeometric
p115
aVsimplices
p116
aVstable
p117
aV2d
p118
aVmagnetotelluric
p119
aVstrikes
p120
aVimpedances
p121
aVphase
p122
aVtensor
p123
aVquadratic
p124
aVequation
p125
aVinductive
p126
aVelectromagnetic
p127
aVdata
p128
aVinterpretation
p129
aVusing
p130
aV3d
p131
aVdistribution
p132
aV3d
p133
aVmagnetic
p134
aVelectric
p135
aVdipoles
p136
aVdimensional
p137
aVinversion
p138
aVmagnetotelluric
p139
aVradiomagnetotelluric
p140
aVdata
p141
aVusing
p142
aVunstructured
p143
aVmesh
p144
aVcoincident
p145
aVloop
p146
aVtransient
p147
aVelectromagnetic
p148
aVinduction
p149
aVlogging
p150
aVimage
p151
aVguided
p152
aVregularization
p153
aVmarine
p154
aVelectromagnetic
p155
aVinversion
p156
aVtranslating
p157
aVtomographic
p158
aVambiguity
p159
aVprobabilistic
p160
aVinference
p161
aVhydrologic
p162
aVengineering
p163
aVtarget
p164
aVparameters
p165
aVfield
p166
aVstudy
p167
aVnuclear
p168
aVmagnetic
p169
aVresonance
p170
aVlogging
p171
aVquantify
p172
aVpetroleum
p173
aVcontamination
p174
aVsubsurface
p175
aVsediments
p176
aVfast
p177
aViterative
p178
aVequivalent
p179
aVlayer
p180
aVtechnique
p181
aVgravity
p182
aVdata
p183
aVprocessing
p184
aVmethod
p185
aVgrounded
p186
aVexcess
p187
aVmass
p188
aVconstraint
p189
aVfast
p190
aVfourier
p191
aVbased
p192
aVerror
p193
aVpropagation
p194
aVgravimetric
p195
aVterrain
p196
aVcorrection
p197
aVversatile
p198
aVsolution
p199
aVgravity
p200
aVanomaly
p201
aV3d
p202
aVprism
p203
aVmeshed
p204
aVbodies
p205
aVdepth
p206
aVdependent
p207
aVdensity
p208
aVcontrast
p209
aVaclas
p210
aVmethod
p211
aVdefine
p212
aVgeologically
p213
aVsignificant
p214
aVlineaments
p215
aVpotential
p216
aVfield
p217
aVdata
p218
aVcharacterizing
p219
aVco2
p220
aVplumes
p221
aVdeep
p222
aVsaline
p223
aVformations
p224
aVcomparison
p225
aVjoint
p226
aVevaluation
p227
aVtime
p228
aVlapse
p229
aVpressure
p230
aVseismic
p231
aVtomography
p232
aVsedimentary
p233
aVbasin
p234
aVexploration
p235
aVreceiver
p236
aVfunctions
p237
aVseismic
p238
aVstructure
p239
aVanisotropy
p240
aVdublin
p241
aVbasin
p242
aVireland
p243
aVpassive
p244
aVseismic
p245
aVmonitoring
p246
aVnonstationary
p247
aVnoise
p248
aVsources
p249
aVgeostatistical
p250
aVinversion
p251
aVprestack
p252
aVseismic
p253
aVdata
p254
aVjoint
p255
aVestimation
p256
aVfacies
p257
aVimpedances
p258
aVusing
p259
aVstochastic
p260
aVsampling
p261
aVgaussian
p262
aVmixture
p263
aVposterior
p264
aVdistributions
p265
aVporosity
p266
aVestimation
p267
aVfort
p268
aVworth
p269
aVbasin
p270
aVconstrained
p271
aV3d
p272
aVseismic
p273
aVattributes
p274
aVintegrated
p275
aVsequential
p276
aVbayesian
p277
aVsimulation
p278
aVframework
p279
aVnew
p280
aVmodel
p281
aVdescribing
p282
aVinteraction
p283
aVfluid
p284
aVpressure
p285
aVwave
p286
aVpores
p287
aVp
p288
aVwave
p289
aVrock
p290
aVmatrix
p291
aVelastic
p292
aVmineral
p293
aVfacies
p294
aVselecting
p295
aVsite
p296
aVspecific
p297
aVelastic
p298
aVmoduli
p299
aVclay
p300
aVrock
p301
aVphysics
p302
aVdiagnostics
p303
aVoffshore
p304
aVgas
p305
aVfield
p306
aVsource
p307
aVwavelet
p308
aVlocal
p309
aVwave
p310
aVpropagation
p311
aVeffects
p312
aVamplitude
p313
aVvariation
p314
aVoffset
p315
aVresponse
p316
aVlayer
p317
aVmodels
p318
aVphysical
p319
aVmodeling
p320
aVstudy
p321
aVwavelet
p322
aVtransform
p323
aVgeneralized
p324
aVbeta
p325
aVwavelets
p326
aVseismic
p327
aVtime
p328
aVfrequency
p329
aVanalysis
p330
aVworkflow
p331
aVskeletonize
p332
aVfaults
p333
aVstratigraphic
p334
aVfeatures
p335
aVvariable
p336
aVsource
p337
aVdepth
p338
aVacquisition
p339
aVoverall
p340
aVimproved
p341
aVsignal
p342
aVnoise
p343
aVratio
p344
aVmarine
p345
aVbroadband
p346
aVseismic
p347
aVdata
p348
aVmodeling
p349
aVstudy
p350
aVstreamer
p351
aVdepth
p352
aVversus
p353
aVvessel
p354
aVseismic
p355
aVinterference
p356
aVnoise
p357
aVstrategies
p358
aVimaging
p359
aVmarchenko
p360
aVretrieved
p361
aVgreen
p362
aVfunctions
p363
aVefficient
p364
aVcoupled
p365
aVacoustic
p366
aVelastic
p367
aVlocal
p368
aVsolver
p369
aVapplied
p370
aVphase
p371
aVinversion
p372
aVjoint
p373
aVtraveltime
p374
aVwaveform
p375
aVwaveform
p376
aVenvelope
p377
aVinversion
p378
aVnear
p379
aVsurface
p380
aVimaging
p381
aValternating
p382
aVarrival
p383
aVtraveltime
p384
aVtomography
p385
aVwaveform
p386
aVinversion
p387
aVnear
p388
aVsurface
p389
aVimaging
p390
aVpolynomial
p391
aVchaos
p392
aVexpansion
p393
aVnonlinear
p394
aVgeophysical
p395
aVinverse
p396
aVproblems
p397
aVelastic
p398
aVsquares
p399
aVway
p400
aVwave
p401
aVequation
p402
aVmigration
p403
aVreverse
p404
aVtime
p405
aVmigration
p406
aVmultiples
p407
aVreducing
p408
aVmigration
p409
aVartifacts
p410
aVusing
p411
aVwavefield
p412
aVdecomposition
p413
aVimaging
p414
aVcondition
p415
aVelastic
p416
aVsquares
p417
aVreverse
p418
aVtime
p419
aVmigration
p420
aVintegrated
p421
aVreceiver
p422
aVdeghosting
p423
aVclosed
p424
aVloop
p425
aVsurface
p426
aVmultiple
p427
aVelimination
p428
aVtime
p429
aVspace
p430
aVdomain
p431
aVmesh
p432
aVfree
p433
aVfinite
p434
aVdifference
p435
aVbased
p436
aVsquares
p437
aV2d
p438
aVacoustic
p439
aVwave
p440
aVmodeling
p441
aVinternal
p442
aVinterfaces
p443
aVfinite
p444
aVdifference
p445
aVschemes
p446
aVsolving
p447
aVtensorial
p448
aV3d
p449
aVacoustic
p450
aVwave
p451
aVequation
p452
aVmimetic
p453
aVfinite
p454
aVdifference
p455
aVtime
p456
aVdomain
p457
aVapproach
p458
aVapplication
p459
aVhigh
p460
aVorder
p461
aVfinite
p462
aVelement
p463
aVmethod
p464
aVp
p465
aVwave
p466
aVpropagation
p467
aVinside
p468
aVunderground
p469
aVcavity
p470
aVmultichannel
p471
aVspatially
p472
aVcorrelated
p473
aVreflectivity
p474
aVinversion
p475
aVusing
p476
aVblock
p477
aVsparse
p478
aVbayesian
p479
aVlearning
p480
aVinterference
p481
aVsuppression
p482
aVadaptive
p483
aVcancellation
p484
aVhigh
p485
aVarctic
p486
aVseismic
p487
aVexperiment
p488
aVautomatic
p489
aVnoise
p490
aVremoval
p491
aVsignal
p492
aVremoval
p493
aVbased
p494
aVgeneral
p495
aVcross
p496
aVvalidation
p497
aVthresholding
p498
aVsynchrosqueezed
p499
aVdomain
p500
aVapplication
p501
aVearthquake
p502
aVdata
p503
aVdetermination
p504
aVwavefront
p505
aVattributes
p506
aVdifferential
p507
aVevolution
p508
aVpresence
p509
aVconflicting
p510
aVdips
p511
aVshot
p512
aVdomain
p513
aVdeblending
p514
aVusing
p515
aVsquares
p516
aVinversion
p517
aVdiminishing
p518
aVresidual
p519
aVmatrices
p520
aVmethod
p521
aVsurface
p522
aVconsistent
p523
aVstatics
p524
aVreview
p525
aVcompetitive
p526
aVcomparison
p527
aVmultiparameter
p528
aVstacking
p529
aVoperators
p530
aVtutorial
p531
aVspectral
p532
aVbandwidth
p533
aVextension
p534
aVinvention
p535
aVversus
p536
aVharmonic
p537
aVextrapolation
p538
aVseismic
p539
aVanisotropy
p540
aVintroduction
p541
aVnumerical
p542
aVsimulation
p543
aVseismic
p544
aVwave
p545
aVpropagation
p546
aVviscoelastic
p547
aVanisotropic
p548
aVmedia
p549
aVusing
p550
aVfrequency
p551
aVindependent
p552
aVq
p553
aVwave
p554
aVequation
p555
aVwave
p556
aVsingularities
p557
aVtilted
p558
aVorthorhombic
p559
aVmedia
p560
aVweak
p561
aVanisotropy
p562
aVmoveout
p563
aVapproximations
p564
aVp
p565
aVwaves
p566
aVhomogeneous
p567
aVtor
p568
aVlayers
p569
aVeffect
p570
aVpressure
p571
aV3d
p572
aVdistribution
p573
aVp
p574
aVwave
p575
aVvelocity
p576
aVattenuation
p577
aVantigorite
p578
aVserpentinite
p579
aValgebraic
p580
aVdegree
p581
aVgeneral
p582
aVgroup
p583
aVvelocity
p584
aVsurface
p585
aVinversion
p586
aVgradients
p587
aVacoustic
p588
aVvti
p589
aVwavefield
p590
aVtomography
p591
aVacoustic
p592
aVeikonal
p593
aVequation
p594
aVattenuating
p595
aVorthorhombic
p596
aVmedia
p597
aVwaveform
p598
aVinversion
p599
aVattenuation
p600
aVestimation
p601
aVanisotropic
p602
aVmedia
p603
aVwaveform
p604
aVinversion
p605
aVmicroseismic
p606
aVvelocity
p607
aVanalysis
p608
aVevent
p609
aVlocation
p610
aVvti
p611
aVmedia
p612
aVphysical
p613
aVconstraints
p614
aVc13
p615
aVtransversely
p616
aVisotropic
p617
aVshales
p618
aVapplications
p619
a.