(lp0
Vissue
p1
aVgeophysics
p2
aVpressure
p3
aVflow
p4
aVmodeling
p5
aVinduced
p6
aVseismicity
p7
aVresulting
p8
aVdecades
p9
aVhigh
p10
aVpressure
p11
aVdeep
p12
aVbrine
p13
aVinjection
p14
aVparadox
p15
aVvalley
p16
aVcolorado
p17
aVextracting
p18
aVgeoelectrical
p19
aVmaps
p20
aVvintage
p21
aVlow
p22
aVfrequency
p23
aVairborne
p24
aVdata
p25
aVtipper
p26
aVinversion
p27
aVinterpretation
p28
aVcase
p29
aVstudy
p30
aVnorthern
p31
aVsweden
p32
aVprediction
p33
aVcoal
p34
aVseam
p35
aVdetails
p36
aVmining
p37
aVsafety
p38
aVusing
p39
aVmulticomponent
p40
aVseismic
p41
aVdata
p42
aVcase
p43
aVhistory
p44
aVchina
p45
aVnew
p46
aVinsights
p47
aVgeophysical
p48
aVdata
p49
aVregional
p50
aVstructure
p51
aVgeometry
p52
aVsouthwest
p53
aVthelon
p54
aVbasin
p55
aVbasement
p56
aVnorthwest
p57
aVterritories
p58
aVcanada
p59
aVoffset
p60
aVmidpoint
p61
aVtraveltime
p62
aVpyramid
p63
aVp
p64
aVwaves
p65
aVhomogeneous
p66
aVorthorhombic
p67
aVmedia
p68
aVunderstanding
p69
aVelastic
p70
aVanisotropy
p71
aVshale
p72
aVtriaxial
p73
aVloading
p74
aVporosity
p75
aVdeformation
p76
aVapproach
p77
aVintegrated
p78
aVvti
p79
aVmodel
p80
aVbuilding
p81
aVseismic
p82
aVdata
p83
aVgeologic
p84
aVinformation
p85
aVrock
p86
aVphysics
p87
aVmodeling
p88
aV1
p89
aVtheory
p90
aVsynthetic
p91
aVtest
p92
aVelastic
p93
aVanisotropy
p94
aVclay
p95
aVminerals
p96
aVintegrated
p97
aVvti
p98
aVmodel
p99
aVbuilding
p100
aVseismic
p101
aVdata
p102
aVgeologic
p103
aVinformation
p104
aVrock
p105
aVphysics
p106
aVmodeling
p107
aV2
p108
aVfield
p109
aVdata
p110
aVtest
p111
aVlong
p112
aVoffset
p113
aVmoveout
p114
aVvti
p115
aVusing
p116
aVpad
p117
aVapproximation
p118
aVanisotropic
p119
aVparameters
p120
aVdry
p121
aVsaturated
p122
aVsand
p123
aVstress
p124
aVbounds
p125
aVelastic
p126
aVparameters
p127
aVcharacterizing
p128
aVtransversely
p129
aVisotropic
p130
aVmedia
p131
aVapplication
p132
aVshales
p133
aVtheory
p134
aVinterval
p135
aVtraveltime
p136
aVparameter
p137
aVestimation
p138
aVlayered
p139
aVanisotropic
p140
aVmedia
p141
aVacoustic
p142
aVwave
p143
aVpropagation
p144
aVtilted
p145
aVtransversely
p146
aVisotropic
p147
aVmedia
p148
aVincorporating
p149
aVtopography
p150
aVvariation
p151
aVp
p152
aVwave
p153
aVmodulus
p154
aVfrequency
p155
aVwater
p156
aVsaturation
p157
aVextension
p158
aVdynamic
p159
aVequivalent
p160
aVmedium
p161
aVapproach
p162
aVanalysis
p163
aVseismic
p164
aVanisotropy
p165
aVparameters
p166
aVsedimentary
p167
aVstrata
p168
aVmodels
p169
aVmethods
p170
aVpredicting
p171
aVhydraulic
p172
aVconductivity
p173
aVnear
p174
aVsurface
p175
aVunconsolidated
p176
aVsediments
p177
aVusing
p178
aVnuclear
p179
aVmagnetic
p180
aVresonance
p181
aVinduced
p182
aVpolarization
p183
aVpore
p184
aVradius
p185
aVdiscussion
p186
aVrock
p187
aVphysics
p188
aVmodeling
p189
aVelastic
p190
aVproperties
p191
aVorganic
p192
aVshale
p193
aVdifferent
p194
aVmaturity
p195
aVstages
p196
aVpore
p197
aVgeometry
p198
aVeffects
p199
aVelastic
p200
aVproperties
p201
aVopalinus
p202
aVclay
p203
aVjoint
p204
aVinversion
p205
aVlogging
p206
aVdrilling
p207
aVmultipole
p208
aVacoustic
p209
aVdata
p210
aVdetermine
p211
aVp
p212
aVwave
p213
aVvelocities
p214
aVunconsolidated
p215
aVslow
p216
aVformations
p217
aVopposing
p218
aVcoils
p219
aVtransient
p220
aVelectromagnetic
p221
aVmethod
p222
aVfocused
p223
aVnear
p224
aVsurface
p225
aVresolution
p226
aVrelief
p227
aVgeometric
p228
aVeffects
p229
aVfrequency
p230
aVdomain
p231
aVelectromagnetic
p232
aVdata
p233
aVtextural
p234
aVcontrol
p235
aVquadrature
p236
aVconductivity
p237
aVporous
p238
aVmedia
p239
aVcovariance
p240
aVconstrained
p241
aVdifference
p242
aVinversion
p243
aVtime
p244
aVlapse
p245
aVelectrical
p246
aVresistivity
p247
aVtomography
p248
aVdata
p249
aVhybrid
p250
aVfinite
p251
aVdifference
p252
aVintegral
p253
aVequation
p254
aVmethod
p255
aVmodeling
p256
aVinversion
p257
aVmarine
p258
aVcontrolled
p259
aVsource
p260
aVelectromagnetic
p261
aVdata
p262
aVgoal
p263
aVoriented
p264
aVadaptive
p265
aVfinite
p266
aVelement
p267
aVmethod
p268
aV3d
p269
aVscattered
p270
aVairborne
p271
aVelectromagnetic
p272
aVmethod
p273
aVmodeling
p274
aVdifferentiating
p275
aVtidal
p276
aVgroundwater
p277
aVdynamics
p278
aVbarrier
p279
aVisland
p280
aVframework
p281
aVgeology
p282
aVtesting
p283
aVutility
p284
aVportable
p285
aVmultifrequency
p286
aVelectromagnetic
p287
aVinduction
p288
aVprofilers
p289
aV3d
p290
aVblock
p291
aVqt
p292
aVinversion
p293
aVsurface
p294
aVnuclear
p295
aVmagnetic
p296
aVresonance
p297
aVdata
p298
aVelectromagnetic
p299
aVdispersion
p300
aVsensitivity
p301
aVcharacteristics
p302
aVcarbonate
p303
aVreservoirs
p304
aVprobabilistic
p305
aVinversion
p306
aVairborne
p307
aVelectromagnetic
p308
aVdata
p309
aVbasement
p310
aVconductors
p311
aVimpact
p312
aVpore
p313
aVscale
p314
aVmagnetic
p315
aVfield
p316
aVinhomogeneity
p317
aVshape
p318
aVnuclear
p319
aVmagnetic
p320
aVresonance
p321
aVrelaxation
p322
aVtime
p323
aVdistribution
p324
aVmultichannel
p325
aVanalysis
p326
aVpassive
p327
aVsurface
p328
aVwaves
p329
aVbased
p330
aVcrosscorrelations
p331
aVmultichannel
p332
aVanalysis
p333
aVlove
p334
aVwaves
p335
aV3d
p336
aVseismic
p337
aVacquisition
p338
aVtesseroids
p339
aVforward
p340
aVmodeling
p341
aVgravitational
p342
aVfields
p343
aVspherical
p344
aVcoordinates
p345
aVinversion
p346
aVcontrolled
p347
aVsource
p348
aVelectromagnetic
p349
aVreflection
p350
aVresponses
p351
aVforward
p352
aVmodeling
p353
aVgravity
p354
aVdata
p355
aVusing
p356
aVgeostatistically
p357
aVgenerated
p358
aVsubsurface
p359
aVdensity
p360
aVvariations
p361
aVintegration
p362
aVgeophysical
p363
aVconstraints
p364
aVmultilayer
p365
aVgeometry
p366
aVrefinements
p367
ag108
aV5d
p368
aVgravity
p369
aVinversion
p370
aVground
p371
aVpenetrating
p372
aVradar
p373
aVrefraction
p374
aVimaging
p375
aVstacked
p376
aVrefraction
p377
aVconvolution
p378
aVsection
p379
aVmethod
p380
aVreservoir
p381
aVproperty
p382
aVmapping
p383
aVmonitoring
p384
aVjoint
p385
aVinversion
p386
aVtime
p387
aVlapse
p388
aVseismic
p389
aVelectromagnetic
p390
aVproduction
p391
aVdata
p392
aVearthquake
p393
aVfaulting
p394
aVrelated
p395
aVdeformation
p396
aVsoil
p397
aVevidenced
p398
aVwave
p399
aVshallow
p400
aVreflection
p401
aVdata
p402
aVfield
p403
aVresults
p404
aVportugal
p405
aVdirect
p406
aVelastic
p407
aVproperties
p408
aVresistivity
p409
aVtransforms
p410
aV3d
p411
aVmagnetization
p412
aVinversion
p413
aVusing
p414
aVfuzzy
p415
aVc
p416
aVmeans
p417
aVclustering
p418
aVapplication
p419
aVgeology
p420
aVdifferentiation
p421
aVtesting
p422
aVbedding
p423
aVplane
p424
aVslip
p425
aVmodel
p426
aVhydraulic
p427
aVfracture
p428
aVopening
p429
aVusing
p430
aVmoment
p431
aVtensor
p432
aVinversions
p433
aVmicroseismic
p434
aVsearch
p435
aVengine
p436
aVreal
p437
aVtime
p438
aVestimation
p439
aVsource
p440
aVlocation
p441
aVfocal
p442
aVmechanism
p443
aVcross
p444
aVdouble
p445
aVdifference
p446
aVinversion
p447
aVmicroseismic
p448
aVevent
p449
aVlocation
p450
aVusing
p451
aVdata
p452
aVsingle
p453
aVmonitoring
p454
aVfeasibility
p455
aVstudy
p456
aVco2
p457
aVgeologic
p458
aVsequestration
p459
aVintegrating
p460
aVreservoir
p461
aVsimulation
p462
aVrock
p463
aVphysics
p464
aVtheory
p465
aVseismic
p466
aVmodeling
p467
aVreflection
p468
aVtransmission
p469
aVcoefficients
p470
aVbed
p471
aVsource
p472
aVsynchronous
p473
aVfilter
p474
aVuncorrelated
p475
aVreceiver
p476
aVtraces
p477
aVswept
p478
aVfrequency
p479
aVseismic
p480
aVsource
p481
aVseismic
p482
aVinversion
p483
aVbased
p484
aVproximal
p485
aVobjective
p486
aVfunction
p487
aVoptimization
p488
aValgorithm
p489
aV2d
p490
aVfrequency
p491
aVdomain
p492
aVelastic
p493
aVwaveform
p494
aVinversion
p495
aVusing
p496
aVblock
p497
aVdiagonal
p498
aVpseudo
p499
aVhessian
p500
aVapproximation
p501
aVtraveltime
p502
aVinversion
p503
aVestimation
p504
aVelastic
p505
aVconstants
p506
aVhti
p507
aVmedia
p508
aVusing
p509
aVgauss
p510
aVnewton
p511
aVnewton
p512
aVmultiparameter
p513
aVwaveform
p514
aVinversion
p515
aVvelocity
p516
aVlog
p517
aVupscaling
p518
aVbased
p519
aVreversible
p520
aVjump
p521
aVmarkov
p522
aVchain
p523
aVmonte
p524
aVcarlo
p525
aVsimulated
p526
aVannealing
p527
aVbayesian
p528
aVapproach
p529
aVestimate
p530
aVuncertainty
p531
aVwaveform
p532
aVinversion
p533
aVusing
p534
aVpriori
p535
aVinformation
p536
aVdepth
p537
aVmigration
p538
aVtarget
p539
aVoriented
p540
aVlinear
p541
aVsquares
p542
aVnonlinear
p543
aVtrust
p544
aVregion
p545
aVnewton
p546
aVinversions
p547
aVplane
p548
aVwaves
p549
aVusing
p550
aVava
p551
aVpva
p552
aVdata
p553
aVelastic
p554
aVmodel
p555
aVparameters
p556
aVcomparison
p557
aVviscoacoustic
p558
aVpropagators
p559
aVq
p560
aVcompensated
p561
aVreverse
p562
aVtime
p563
aVmigration
p564
aVflexibly
p565
aVpreconditioned
p566
aVextended
p567
aVsquares
p568
aVmigration
p569
aVshot
p570
aVrecord
p571
aVdomain
p572
aVhigh
p573
aVresolution
p574
aVimaging
p575
aVapproach
p576
aVincorporating
p577
aVstationary
p578
aVphase
p579
aVimplementation
p580
aVdeabsorption
p581
aVprestack
p582
aVtime
p583
aVmigration
p584
aVacoustic
p585
aVelastic
p586
aVcoupled
p587
aVequation
p588
aVocean
p589
aVseismic
p590
aVdata
p591
aVelastic
p592
aVreverse
p593
aVtime
p594
aVmigration
p595
aVsquares
p596
aVreverse
p597
aVtime
p598
aVmigration
p599
aVusing
p600
aVcontrolled
p601
aVorder
p602
aVmultiple
p603
aVreflections
p604
aVstep
p605
aVwave
p606
aVextrapolation
p607
aVmatrix
p608
aVmethod
p609
aVreverse
p610
aVtime
p611
aVmigration
p612
aVdouble
p613
aVplane
p614
aVwave
p615
aVreverse
p616
aVtime
p617
aVmigration
p618
aVfrequency
p619
aVdomain
p620
aVscalar
p621
aVvector
p622
aVimaging
p623
aVbased
p624
aVwave
p625
aVmode
p626
aVdecoupling
p627
aVelastic
p628
aVreverse
p629
aVtime
p630
aVmigration
p631
aVisotropic
p632
aVtransversely
p633
aVisotropic
p634
aVmedia
p635
aVequivalent
p636
aVaccuracy
p637
aVfraction
p638
aVcost
p639
aVovercoming
p640
aVtemporal
p641
aVdispersion
p642
aVwavefield
p643
aVreconstruction
p644
aVinterpolating
p645
aVsignificantly
p646
aVdecimated
p647
aVboundaries
p648
aVimplementation
p649
aVmarine
p650
aVseismic
p651
aVsource
p652
aVwavefields
p653
aVfinite
p654
aVdifference
p655
aVmethods
p656
aVusing
p657
aVwavefield
p658
aVinjection
p659
aVshallow
p660
aVnear
p661
aVsurface
p662
aVeffects
p663
aVefficient
p664
aVmodeling
p665
aVschemes
p666
aVfractional
p667
aVlaplacian
p668
aVviscoacoustic
p669
aVwave
p670
aVequation
p671
aVoptimal
p672
aVnearly
p673
aVanalytic
p674
aVdiscrete
p675
aVweighted
p676
aVrunge
p677
aVkutta
p678
aVdiscontinuous
p679
aVgalerkin
p680
aVhybrid
p681
aVmethod
p682
aVacoustic
p683
aVwavefield
p684
aVmodeling
p685
aVadaptive
p686
aVoverburden
p687
aVelimination
p688
aVmultidimensional
p689
aVmarchenko
p690
aVequation
p691
aVseismic
p692
aVvelocity
p693
aVinversion
p694
aVpatchy
p695
aVhomogeneous
p696
aVfluid
p697
aVdistribution
p698
aVconditions
p699
aVshallow
p700
aVunconsolidated
p701
aVsands
p702
aVbuilding
p703
aVgood
p704
aVstarting
p705
aVmodels
p706
aVwaveform
p707
aVinversion
p708
aVusing
p709
aVadaptive
p710
aVmatching
p711
aVfiltering
p712
aVmisfit
p713
aVvelocity
p714
aVindependent
p715
aVestimation
p716
aVkinematic
p717
aVattributes
p718
aVvertical
p719
aVtransverse
p720
aVisotropy
p721
aVmedia
p722
aVusing
p723
aVlocal
p724
aVslopes
p725
aVpredictive
p726
aVpainting
p727
aVfast
p728
aVautomatic
p729
aVmultichannel
p730
aVblind
p731
aVseismic
p732
aVinversion
p733
aVhigh
p734
aVresolution
p735
aVimpedance
p736
aVrecovery
p737
aVapplications
p738
aVvariational
p739
aVmode
p740
aVdecomposition
p741
aVseismic
p742
aVtime
p743
aVfrequency
p744
aVanalysis
p745
aVisolating
p746
aVretrograde
p747
aVprograde
p748
aVrayleigh
p749
aVwave
p750
aVmodes
p751
aVusing
p752
aVpolarity
p753
aVmute
p754
a.