(lp0
VEgypt
p1
aVUK
p2
aVUK
p3
aVUK
p4
aVUK
p5
aVAustralia
p6
aVMexico
p7
aVUSA
p8
aVCzech Republic
p9
aVUSA
p10
aVUSA
p11
aVGermany
p12
aVUK
p13
aVSweden
p14
aVUSA
p15
aVUSA
p16
aVUSA
p17
aVUSA
p18
aVFrance
p19
aVUSA
p20
aVDenmark
p21
aVUSA
p22
aVDenmark
p23
aVChina
p24
aVGermany
p25
aVGermany
p26
aVUSA
p27
aVUSA
p28
aVUSA
p29
aVChina
p30
aVUSA
p31
aVUSA
p32
aVUSA
p33
aVUSA
p34
aVUSA
p35
aVUSA
p36
aVRussia
p37
aVUSA
p38
aVUSA
p39
aVGermany
p40
aVUSA
p41
aVChina
p42
aVSwitzerland
p43
aVChina
p44
aVSwitzerland
p45
aVSweden
p46
aVSwitzerland
p47
aVNorway
p48
aVCanada
p49
aVCanada
p50
aVNorway
p51
aVNorway
p52
aVUSA
p53
aVUSA
p54
aVTurkey
p55
aVFrance
p56
aVIran
p57
aVFrance
p58
aVFrance
p59
aVFrance
p60
aVFrance
p61
aVFrance
p62
aVUSA
p63
aVFrance
p64
aVFinland
p65
aVUSA
p66
aVUSA
p67
aVUSA
p68
aVBrazil
p69
aVBrazil
p70
aVBrazil
p71
aVBrazil
p72
aVBrazil
p73
aVBrazil
p74
aVBrazil
p75
aVItaly
p76
aVSlovakia
p77
aVUSA
p78
aVCanada
p79
aVBrazil
p80
aVthe Netherlands
p81
aVJapan
p82
aVJapan
p83
aVthe Netherlands
p84
aVUSA
p85
aVUSA
p86
aVUSA
p87
aVCanada
p88
aVUSA
p89
aVUSA
p90
aVUSA
p91
aVNorway
p92
aVNorway
p93
aVUSA
p94
aVUSA
p95
aVGermany
p96
aVGermany
p97
aVGermany
p98
aVUSA
p99
aVUSA
p100
aVSaudi Arabia
p101
aVChina
p102
aVChina
p103
aVChina
p104
aVChina
p105
aVUK
p106
aVUSA
p107
aVUK
p108
aVSwitzerland
p109
aVSwitzerland
p110
aVNorway
p111
aVChina
p112
aVFrance
p113
aVFrance
p114
aVFrance
p115
aVFrance
p116
aVFrance
p117
aVUSA
p118
aVChina
p119
aVChina
p120
aVChina
p121
aVChina
p122
aVAustralia
p123
aVUSA
p124
aVUSA
p125
aVUSA
p126
aVUSA
p127
aVFrance
p128
aVCanada
p129
a.