(lp0
Vissue
p1
aVgeophysics
p2
aVinversion
p3
aVgravity
p4
aVdata
p5
aVisostatic
p6
aVconstraints
p7
aVsolid
p8
aVphase
p9
aVbulk
p10
aVmodulus
p11
aVmicroinhomogeneity
p12
aVparameter
p13
aVquasistatic
p14
aVcompression
p15
aVexperiments
p16
aVmoment
p17
aVmoment
p18
aVmagnitude
p19
aVseismic
p20
aVevents
p21
aVlocated
p22
aVstacking
p23
aVself
p24
aVpotential
p25
aVmonitoring
p26
aVhydrologic
p27
aVinvestigations
p28
aVurban
p29
aVcovered
p30
aVkarst
p31
aVterrain
p32
aVtime
p33
aVlapse
p34
aVdifference
p35
aVstatic
p36
aVcorrection
p37
aVusing
p38
aVprestack
p39
aVcrosscorrelations
p40
aV4d
p41
aVseismic
p42
aVimage
p43
aVenhancement
p44
aVcase
p45
aVketzin
p46
aVquadrature
p47
aVconductivity
p48
aVquantitative
p49
aVindicator
p50
aVbacterial
p51
aVabundance
p52
aVporous
p53
aVmedia
p54
aVfractal
p55
aVdimension
p56
aVpore
p57
aVspace
p58
aVgeometry
p59
aVeocene
p60
aVsandstone
p61
aVformation
p62
aVestimating
p63
aVinfluence
p64
aVstress
p65
aVstate
p66
aVcompaction
p67
aVbehavior
p68
aVimpact
p69
aVchange
p70
aVpore
p71
aVmaterial
p72
aVp
p73
aVwave
p74
aVvelocity
p75
aVtechnique
p76
aVeliminate
p77
aVazimuth
p78
aVambiguity
p79
aVsingle
p80
aVimaging
p81
aVseismic
p82
aVmodeling
p83
aVlow
p84
aVfrequency
p85
aVshadows
p86
aVbeneath
p87
aVgas
p88
aVreservoirs
p89
aVdetermining
p90
aVfractal
p91
aVdimension
p92
aVnuclear
p93
aVmagnetic
p94
aVresonance
p95
aVdata
p96
aVrocks
p97
aVinternal
p98
aVmagnetic
p99
aVfield
p100
aVgradients
p101
aVinfluence
p102
aVgrain
p103
aVshape
p104
aVvolume
p105
aVfraction
p106
aVsheet
p107
aVsilicates
p108
aVelastic
p109
aVproperties
p110
aVaggregates
p111
aVbiotite
p112
aVplatelets
p113
aVisotropic
p114
aVmatrix
p115
aVfootprint
p116
aVfrequency
p117
aVdomain
p118
aVairborne
p119
aVelectromagnetic
p120
aVsystems
p121
aVfinite
p122
aVelement
p123
aVbased
p124
aVdomain
p125
aVdecomposition
p126
aVapproach
p127
aVplane
p128
aVwave
p129
aV3d
p130
aVelectromagnetic
p131
aVmodeling
p132
aV3d
p133
aVmarine
p134
aVmagnetotelluric
p135
aVmodeling
p136
aVinversion
p137
aVfinite
p138
aVdifference
p139
aVtime
p140
aVdomain
p141
aVmethod
p142
aVfinite
p143
aVvolume
p144
aVsolution
p145
aVgeophysical
p146
aVelectromagnetic
p147
aVforward
p148
aVproblem
p149
aVusing
p150
aVunstructured
p151
aVgrids
p152
aVdimensional
p153
aVmodeling
p154
aVip
p155
aVeffects
p156
aVtime
p157
aVdomain
p158
aVelectromagnetic
p159
aVdata
p160
aVfast
p161
aVmultimodel
p162
aVfinite
p163
aVdifference
p164
aVcontrolled
p165
aVsource
p166
aVelectromagnetic
p167
aVsimulations
p168
aVbased
p169
aVschur
p170
aVcomplement
p171
aVapproach
p172
aVimparting
p173
aVphase
p174
aVexcitation
p175
aVimproved
p176
aVresolution
p177
aVsurface
p178
aVnuclear
p179
aVmagnetic
p180
aVresonance
p181
aVelectromagnetic
p182
aVresponse
p183
aVresistive
p184
aVcylinder
p185
aVburied
p186
aVconductive
p187
aVhost
p188
aVspectral
p189
aVinduced
p190
aVpolarization
p191
aVclay
p192
aVsand
p193
aVmixtures
p194
aVexperiments
p195
aVmodeling
p196
aVelectrochemical
p197
aVspectral
p198
aVinduced
p199
aVpolarization
p200
aVmodeling
p201
aVartificial
p202
aVsulfide
p203
aVsand
p204
aVmixtures
p205
aVwavefield
p206
aVinversion
p207
aVsurface
p208
aVwaves
p209
aVmapping
p210
aVembedded
p211
aVlow
p212
aVvelocity
p213
aVzones
p214
aVpermafrost
p215
aVself
p216
aVpotential
p217
aVsignals
p218
aVpumping
p219
aVtests
p220
aVlaboratory
p221
aVexperiments
p222
aVcombined
p223
aVmodeling
p224
aVsmooth
p225
aVinversion
p226
aVgravity
p227
aVdata
p228
aVfaulted
p229
aVbasement
p230
aVrelief
p231
aVestimation
p232
aVstructural
p233
aVindex
p234
aVlow
p235
aVpass
p236
aVfiltered
p237
aVmagnetic
p238
aVdata
p239
aVusing
p240
aVequivalent
p241
aVsource
p242
aVpositivity
p243
aVlow
p244
aVlatitude
p245
aVreduction
p246
aVpole
p247
aVstriation
p248
aVmagnetic
p249
aVfield
p250
aVanalysis
p251
aVmorro
p252
aVleme
p253
aVnickel
p254
aVdeposit
p255
aVpotential
p256
aVimaging
p257
aVsubsurface
p258
aVheterogeneities
p259
aVnatural
p260
aVlocal
p261
aVearthquakes
p262
aVjoint
p263
aVlocation
p264
aVmicroseismic
p265
aVevents
p266
aVpresence
p267
aVvelocity
p268
aVuncertainty
p269
aVpicking
p270
aVversus
p271
aVstacking
p272
aVmodern
p273
aVmicroearthquake
p274
aVlocation
p275
aVcomparison
p276
aVresults
p277
aVsurface
p278
aVpassive
p279
aVseismic
p280
aVmonitoring
p281
aVarray
p282
aVoklahoma
p283
aVfrequency
p284
aVdependent
p285
aVattenuation
p286
aVelasticity
p287
aVunconsolidated
p288
aVearth
p289
aVmaterials
p290
aVeffect
p291
aVdamping
p292
aVsystematic
p293
aVsimulation
p294
aVmulticomponent
p295
aVreceiver
p296
aVcoupling
p297
aVseafloor
p298
aVusing
p299
aVrheological
p300
aVmodels
p301
aVazimuth
p302
aVdependent
p303
aVocean
p304
aVcable
p305
aVreceiver
p306
aVcoupling
p307
aVseafloor
p308
aVstochastic
p309
aVinversion
p310
aVseismic
p311
aVpp
p312
aVps
p313
aVdata
p314
aVreservoir
p315
aVparameter
p316
aVestimation
p317
aVrole
p318
aVattenuation
p319
aV2d
p320
aVwaveform
p321
aVinversion
p322
aVshallow
p323
aVseismic
p324
aVbody
p325
aVrayleigh
p326
aVwaves
p327
aVacquisition
p328
aVaperture
p329
aVcorrection
p330
aVangle
p331
aVdomain
p332
aVtrue
p333
aVreflection
p334
aVreverse
p335
aVtime
p336
aVmigration
p337
aVattenuation
p338
aVcompensation
p339
aVsquares
p340
aVreverse
p341
aVtime
p342
aVmigration
p343
aVusing
p344
aVviscoacoustic
p345
aVwave
p346
aVequation
p347
aVreverse
p348
aVtime
p349
aVmigration
p350
aVmultiples
p351
aVeliminating
p352
aVmigration
p353
aVartifacts
p354
aVangle
p355
aVdomain
p356
aVcommon
p357
aVimage
p358
aVgathers
p359
aVamplitude
p360
aVpreserving
p361
aVreverse
p362
aVtime
p363
aVmigration
p364
aVreflectivity
p365
aVvelocity
p366
aVimpedance
p367
aVinversion
p368
aVwave
p369
aVequation
p370
aVprocessing
p371
aVusing
p372
aVfinite
p373
aVdifference
p374
aVpropagators
p375
aV1
p376
aVwavefield
p377
aVdissection
p378
aVimaging
p379
aVmarine
p380
aVmulticomponent
p381
aVseismic
p382
aVdata
p383
aVwave
p384
aVequation
p385
aVprocessing
p386
aVusing
p387
aVfinite
p388
aVdifference
p389
aVpropagators
p390
aV2
p391
aVdeghosting
p392
aVmarine
p393
aVhydrophone
p394
aVseismic
p395
aVdata
p396
aVapplication
p397
aVunsplit
p398
aVconvolutional
p399
aVperfectly
p400
aVmatched
p401
aVlayer
p402
aVscalar
p403
aVarbitrarily
p404
aVwide
p405
aVangle
p406
aVwave
p407
aVequation
p408
aVsmall
p409
aVscale
p410
aVphysical
p411
aVmodeling
p412
aVseismic
p413
aVwave
p414
aVpropagation
p415
aVusing
p416
aVunconsolidated
p417
aVgranular
p418
aVmedia
p419
aVaccurate
p420
aVsimulations
p421
aVpure
p422
aVquasi
p423
aVp
p424
aVwaves
p425
aVcomplex
p426
aVanisotropic
p427
aVmedia
p428
aVimproved
p429
aVoptimal
p430
aVnearly
p431
aVanalytical
p432
aVdiscretized
p433
aVmethod
p434
aV2d
p435
aVscalar
p436
aVwave
p437
aVequation
p438
aVheterogeneous
p439
aVmedia
p440
aVbased
p441
aVmodified
p442
aVnearly
p443
aVanalytical
p444
aVdiscrete
p445
aVoperator
p446
aVsolving
p447
aV3d
p448
aVacoustic
p449
aVwave
p450
aVequation
p451
aVgeneralized
p452
aVstructured
p453
aVmeshes
p454
aVfinite
p455
aVdifference
p456
aVtime
p457
aVdomain
p458
aVapproach
p459
aVhorizon
p460
aVbased
p461
aVsemiautomated
p462
aVnonhyperbolic
p463
aVvelocity
p464
aVanalysis
p465
aVestimating
p466
aVvp
p467
aVvs
p468
aVratios
p469
aVusing
p470
aVsmooth
p471
aVdynamic
p472
aVimage
p473
aVwarping
p474
aVwavelet
p475
aVbalancing
p476
aVresidual
p477
aVmoveouts
p478
aVcomment
p479
aVcooperative
p480
aVconstrained
p481
aVinversion
p482
aVmultiple
p483
aVelectromagnetic
p484
aVdata
p485
aVsets
p486
aVmichael
p487
aVmcmillan
p488
aVdouglas
p489
aVw
p490
aVoldenburg
p491
aV2014
p492
aVgeophysics
p493
aV79
p494
aV4
p495
aVb173
p496
aVb185
p497
aVreply
p498
aVcooperative
p499
aVconstrained
p500
aVinversion
p501
aVmultiple
p502
aVelectromagnetic
p503
aVdata
p504
aVsets
p505
aVmichael
p506
aVmcmillan
p507
aVdouglas
p508
aVw
p509
aVoldenburg
p510
aV2014
p511
aVgeophysics
p512
aV79
p513
ag495
aVb173
p514
aVb185
p515
aVintellectual
p516
aVproperty
p517
a.