(lp0
Vissue
p1
aVgeophysics
p2
aVmitigation
p3
aVguided
p4
aVwave
p5
aVcontamination
p6
aVwaveform
p7
aVtomography
p8
aVmarine
p9
aVseismic
p10
aVreflection
p11
aVdata
p12
aVsouthwestern
p13
aValaska
p14
aVtraveltime
p15
aVapproximations
p16
aVparameter
p17
aVestimation
p18
aVorthorhombic
p19
aVmedia
p20
aVestimation
p21
aVanisotropy
p22
aVparameters
p23
aVimaging
p24
aVmoveout
p25
aVdiving
p26
aVwave
p27
aVfactorized
p28
aVanisotropic
p29
aVmedium
p30
aVseismic
p31
aVvelocities
p32
aVhalite
p33
aVsalt
p34
aVanisotropy
p35
aVheterogeneity
p36
aVdispersion
p37
aVtemperature
p38
aVpressure
p39
aVeffects
p40
aVzeta
p41
aVpotential
p42
aVporous
p43
aVrocks
p44
aVcontact
p45
aVmonovalent
p46
aVdivalent
p47
aVelectrolyte
p48
aVaqueous
p49
aVsolutions
p50
aVusing
p51
aVanisotropic
p52
aVeffective
p53
aVmedium
p54
aVtheories
p55
aVquantify
p56
aVelastic
p57
aVproperties
p58
aVsandstone
p59
aVshale
p60
aVlaminated
p61
aVrocks
p62
aVsimple
p63
aVhydromechanical
p64
aVapproach
p65
aVsimulating
p66
aVsquirt
p67
aVtype
p68
aVflow
p69
aVinduced
p70
aVpolarization
p71
aVresponse
p72
aVporous
p73
aVmedia
p74
aVmetallic
p75
aVparticles
p76
aV3
p77
aVnew
p78
aVapproach
p79
aVtime
p80
aVdomain
p81
aVinduced
p82
aVpolarization
p83
aVtomography
p84
aVinduced
p85
aVpolarization
p86
aVresponse
p87
aVporous
p88
aVmedia
p89
aVmetallic
p90
aVparticles
p91
aV4
p92
aVdetection
p93
aVmetallic
p94
aVnonmetallic
p95
aVtargets
p96
aVtime
p97
aVdomain
p98
aVinduced
p99
aVpolarization
p100
aVtomography
p101
aVself
p102
aVconsistent
p103
aVmodels
p104
aVcapable
p105
aVjointly
p106
aVmodeling
p107
aVelastic
p108
aVvelocity
p109
aVelectrical
p110
aVconductivity
p111
aVreservoir
p112
aVsandstones
p113
aVsimulation
p114
aVmodeling
p115
aVultrasonic
p116
aVpitch
p117
aVcatch
p118
aVtubing
p119
aVlogging
p120
aVsolid
p121
aVviscosity
p122
aVfluid
p123
aVsaturated
p124
aVporous
p125
aVrock
p126
aVsquirt
p127
aVflows
p128
aVseismic
p129
aVfrequencies
p130
aVmacroscopic
p131
aVframework
p132
aVviscoelasticity
p133
aVporoelasticity
p134
aVwave
p135
aVinduced
p136
aVfluid
p137
aVflows
p138
aV2
p139
aVeffective
p140
aVmedia
p141
aVcalibration
p142
aVresponse
p143
aVsimulation
p144
aVtriaxial
p145
aVinduction
p146
aVtool
p147
aVmetal
p148
aVmandrel
p149
aVrock
p150
aVphysics
p151
aVmodels
p152
aVheterogeneous
p153
aVcreeping
p154
aVrocks
p155
aVviscous
p156
aVfluids
p157
aVexperimental
p158
aVstudy
p159
aVeffects
p160
aVfractures
p161
aVelastic
p162
aVwave
p163
aVpropagation
p164
aVsynthetic
p165
aVlayered
p166
aVrocks
p167
aVelastic
p168
aVproperties
p169
aVheavy
p170
aVoil
p171
aVsands
p172
aVeffects
p173
aVtemperature
p174
aVpressure
p175
aVmicrostructure
p176
aVconditional
p177
aVreconstruction
p178
aValternative
p179
aVstrategy
p180
aVdigital
p181
aVrock
p182
aVphysics
p183
aVfeasibility
p184
aVelectromagnetic
p185
aVmethods
p186
aVdetect
p187
aVimage
p188
aVsteam
p189
aVassisted
p190
aVgravity
p191
aVdrainage
p192
aVsteam
p193
aVchambers
p194
aVlaboratory
p195
aVinvestigation
p196
aVthermoelectric
p197
aVeffect
p198
aVdetection
p199
aVquantification
p200
aV3d
p201
aVhydraulic
p202
aVfractures
p203
aVvertical
p204
aVborehole
p205
aVinduction
p206
aVresistivity
p207
aVmeasurements
p208
aVapproximate
p209
aVsemianalytical
p210
aVsolutions
p211
aVelectromagnetic
p212
aVresponse
p213
aVdipping
p214
aVsphere
p215
aVinteracting
p216
aVconductive
p217
aVoverburden
p218
aVtime
p219
aVlapse
p220
aVmonitoring
p221
aVfluid
p222
aVinduced
p223
aVgeophysical
p224
aVproperty
p225
aVvariations
p226
aVunstable
p227
aVearthwork
p228
aVusing
p229
aVp
p230
aVwave
p231
aVrefraction
p232
aVsurface
p233
aVwave
p234
aVmethods
p235
aVanomaly
p236
aVdetection
p237
aVseismoelectromagnetic
p238
aVhomogeneous
p239
aVspace
p240
aVgreen
p241
aVfunctions
p242
aVgravity
p243
aVgradient
p244
aVtensor
p245
aVcylinder
p246
aVdenoising
p247
aVgravity
p248
aVgradient
p249
aVdata
p250
aVusing
p251
aVequivalent
p252
aVsource
p253
aVtechnique
p254
aVreverse
p255
aVtime
p256
aVimaging
p257
aVground
p258
aVpenetrating
p259
aVradar
p260
aVsh
p261
aVseismic
p262
aVdata
p263
aVincluding
p264
aVeffects
p265
aVwave
p266
aVloss
p267
aVjoint
p268
aVoptimization
p269
aVvertical
p270
aVcomponent
p271
aVgravity
p272
aVp
p273
aVwave
p274
aVarrivals
p275
aVsimulated
p276
aVannealing
p277
aVhybrid
p278
aVcombination
p279
aVgenetic
p280
aValgorithm
p281
aVcontrolled
p282
aVgradient
p283
aVmethod
p284
aVtrain
p285
aVneural
p286
aVnetwork
p287
aVintelligent
p288
aVmeshing
p289
aVtechnique
p290
aV2d
p291
aVresistivity
p292
aVinverse
p293
aVproblems
p294
aVmethod
p295
aVcalculating
p296
aVfracture
p297
aVporosity
p298
aVtight
p299
aVfracture
p300
aVreservoirs
p301
aVdecomposing
p302
aVwaveform
p303
aVborehole
p304
aVacoustic
p305
aVdata
p306
aVapplication
p307
aVdata
p308
aVnorth
p309
aVsea
p310
aVrelative
p311
aVlocation
p312
aVmicroseismic
p313
aVevents
p314
aVmultiple
p315
aVmasters
p316
aVbiot
p317
aVcoefficient
p318
aVdistinct
p319
aVeffective
p320
aVpressure
p321
aVcoefficient
p322
aVestimation
p323
aVrock
p324
aVphysics
p325
aVproperties
p326
aVseismic
p327
aVattributes
p328
ag139
aVapplications
p329
aVanalytic
p330
aVwavelet
p331
aVtransform
p332
aVgeneralized
p333
aVmorse
p334
aVwavelets
p335
aVdetect
p336
aVfluvial
p337
aVchannels
p338
aVbohai
p339
aVbay
p340
aVbasin
p341
aVchina
p342
aVcrosshole
p343
aVseismic
p344
aVtomography
p345
aVcross
p346
aVfiring
p347
aVgeometry
p348
aVarrival
p349
aVtraveltime
p350
aVtomography
p351
aVanisotropic
p352
aVmedia
p353
aVusing
p354
aVadjoint
p355
aVstate
p356
aVmethod
p357
aVnew
p358
aVparameterization
p359
aVwaveform
p360
aVinversion
p361
aVacoustic
p362
aVorthorhombic
p363
aVmedia
p364
aVestimation
p365
aVacoustic
p366
aVmacro
p367
aVmodels
p368
aVusing
p369
aVgenetic
p370
aVwaveform
p371
aVinversion
p372
aVapplications
p373
aVmarmousi
p374
aVmodel
p375
aVamplitude
p376
aVvariation
p377
aVoffset
p378
aVinversion
p379
aVusing
p380
aVreflectivity
p381
aVmethod
p382
aVp
p383
aVwave
p384
aVvelocity
p385
aVmodels
p386
aVshallow
p387
aVdry
p388
aVsand
p389
aVformations
p390
aVsurface
p391
aVwave
p392
aVmultimodal
p393
aVinversion
p394
aVestimating
p395
aVstarting
p396
aVmodel
p397
aVwaveform
p398
aVinversion
p399
aVusing
p400
aVglobal
p401
aVoptimization
p402
aVmethod
p403
aVtime
p404
aVlapse
p405
aVwaveform
p406
aVinversion
p407
aVocean
p408
aVcable
p409
aVdata
p410
aVapplication
p411
aVvalhall
p412
aVfield
p413
aVacoustic
p414
aVwavefield
p415
aVimaging
p416
aVusing
p417
aVenergy
p418
aVnorm
p419
aVaccelerating
p420
aVextended
p421
aVsquares
p422
aVmigration
p423
aVweighted
p424
aVconjugate
p425
aVgradient
p426
aViteration
p427
aVp
p428
aVdecompositions
p429
aVelastic
p430
aVwavefields
p431
aVusing
p432
aVcomplex
p433
aVseismic
p434
aVtraces
p435
aVapplications
p436
aVcalculating
p437
aVpoynting
p438
aVvectors
p439
aVangle
p440
aVdomain
p441
aVcommon
p442
aVimage
p443
aVgathers
p444
aVreverse
p445
aVtime
p446
aVmigrations
p447
aVmitigation
p448
aVdefocusing
p449
aVstatics
p450
aVnear
p451
aVsurface
p452
aVvelocity
p453
aVerrors
p454
aVinterferometric
p455
aVsquares
p456
aVmigration
p457
aVreference
p458
aVdatum
p459
aVisotropic
p460
aVelastic
p461
aVwavefield
p462
aVimaging
p463
aVusing
p464
aVenergy
p465
aVnorm
p466
aVefficient
p467
aVstep
p468
aVlength
p469
aVformula
p470
aVcorrelative
p471
aVsquares
p472
aVreverse
p473
aVtime
p474
aVmigration
p475
aVpolarized
p476
aVwavefield
p477
aVmagnitudes
p478
aVoptical
p479
aVflow
p480
aVelastic
p481
aVangle
p482
aVdomain
p483
aVcommon
p484
aVimage
p485
aVgathers
p486
aVanalysis
p487
aVdecomposed
p488
aVacoustic
p489
aVreverse
p490
aVtime
p491
aVmigration
p492
aVimages
p493
aVcommon
p494
aVimage
p495
aVgathers
p496
aVusing
p497
aVexcitation
p498
aVamplitude
p499
aVimaging
p500
aVcondition
p501
aVq
p502
aVcompensated
p503
aVsquares
p504
aVreverse
p505
aVtime
p506
aVmigration
p507
aVusing
p508
aVlow
p509
aVrank
p510
aVstep
p511
aVwave
p512
aVextrapolation
p513
aVabsorbing
p514
aVboundary
p515
aVcondition
p516
aVacoustic
p517
aVwave
p518
aVpropagation
p519
aVusing
p520
aVmesh
p521
aVfree
p522
aVmethod
p523
ag139
aV5d
p524
aVfinite
p525
aVdifference
p526
aValgorithm
p527
aVelastic
p528
aVwave
p529
aVmodeling
p530
aVusing
p531
aVnear
p532
aVoptimal
p533
aVquadratures
p534
aVelastic
p535
aVwave
p536
aVpropagation
p537
aVfractured
p538
aVmedia
p539
aVusing
p540
aVdiscontinuous
p541
aVgalerkin
p542
aVmethod
p543
aVeffective
p544
aVanisotropic
p545
aVporoelastic
p546
aVmodel
p547
aVelastic
p548
aVwave
p549
aVpropagation
p550
aVfinely
p551
aVlayered
p552
aVmedia
p553
aVautomatic
p554
aVtime
p555
aVdomain
p556
aVvelocity
p557
aVestimation
p558
aVbased
p559
aVaccelerated
p560
aVclustering
p561
aVmethod
p562
aVnew
p563
aVparameter
p564
aVset
p565
aVanisotropic
p566
aVmultiparameter
p567
aVwaveform
p568
aVinversion
p569
aVapplication
p570
aVnorth
p571
aVsea
p572
aVdata
p573
aVset
p574
aVfully
p575
aVautomated
p576
aVnear
p577
aVsurface
p578
aVanalysis
p579
aVsurface
p580
aVconsistent
p581
aVrefraction
p582
aVmethod
p583
aVdamped
p584
aVmultichannel
p585
aVsingular
p586
aVspectrum
p587
aVanalysis
p588
aV3d
p589
aVrandom
p590
aVnoise
p591
aVattenuation
p592
aVstacking
p593
aVapertures
p594
aVestimation
p595
aVstrategies
p596
aVreflection
p597
aVdiffraction
p598
aVenhancement
p599
aVmultiples
p600
aVsignal
p601
aVnoise
p602
aVmarine
p603
aVguided
p604
aVwaves
p605
aVsubbottom
p606
aVproperty
p607
aVestimation
p608
aVfiltering
p609
aVusing
p610
aVphysical
p611
aVmodeling
p612
aVdata
p613
aVseismic
p614
aVdeghosting
p615
aVusing
p616
aVgreen
p617
aVtheorem
p618
aVmonte
p619
aVcarlo
p620
aVdata
p621
aVdriven
p622
aVtight
p623
aVframe
p624
aVseismic
p625
aVdata
p626
aVrecovery
p627
aVautomatic
p628
aVmicroseismic
p629
aVdenoising
p630
aVonset
p631
aVdetection
p632
aVusing
p633
aVsynchrosqueezed
p634
aVcontinuous
p635
aVwavelet
p636
aVtransform
p637
aVnuclear
p638
aVmagnetic
p639
aVresonance
p640
aVnear
p641
aVsurface
p642
aVapplications
p643
aVintroduction
p644
aVmodel
p645
aVbased
p646
aVsubtraction
p647
aVspikes
p648
aVsurface
p649
aVnuclear
p650
aVmagnetic
p651
aVresonance
p652
aVdata
p653
aVmrsmatlab
p654
aVsoftware
p655
aVtool
p656
aVprocessing
p657
aVmodeling
p658
aVinversion
p659
aVmagnetic
p660
aVresonance
p661
aVsounding
p662
aVdata
p663
aVinterpretation
p664
aVmagnetic
p665
aVresonance
p666
aVmeasurements
p667
aVvarying
p668
aVearth
p669
aVmagnetic
p670
aVfield
p671
aVfrequency
p672
aVcycling
p673
aVcompensation
p674
aVundesired
p675
aVresonance
p676
aVeffects
p677
aVsurface
p678
aVnuclear
p679
aVmagnetic
p680
aVresonance
p681
aVcontribution
p682
aVmagnetic
p683
aVresonance
p684
aVsoundings
p685
aVcharacterizing
p686
aVwater
p687
aVstorage
p688
aVunsaturated
p689
aVzone
p690
aVkarst
p691
aVaquifers
p692
aVdetermining
p693
aVuncertainties
p694
aVmagnetic
p695
aVresonance
p696
aVsounding
p697
aVestimated
p698
aVtransmissivities
p699
aVgroundwater
p700
aVmodeling
p701
aVprocessing
p702
aVsurface
p703
aVnuclear
p704
aVmagnetic
p705
aVresonance
p706
aVdata
p707
aVsites
p708
aVhigh
p709
aVnoise
p710
aVlevels
p711
aVadiabatic
p712
aVpulses
p713
aVenhance
p714
aVsurface
p715
aVnuclear
p716
aVmagnetic
p717
aVresonance
p718
aVmeasurement
p719
aVsurvey
p720
aVspeed
p721
aVgroundwater
p722
aVinvestigations
p723
aValgorithms
p724
aVremoving
p725
aVsurface
p726
aVwater
p727
aVsignals
p728
aVsurface
p729
aVnuclear
p730
aVmagnetic
p731
aVresonance
p732
aVinfiltration
p733
aVsurveys
p734
aVlocalization
p735
aVidentification
p736
aVoil
p737
aVlayers
p738
aVusing
p739
aVslim
p740
aVborehole
p741
aVnuclear
p742
aVmagnetic
p743
aVresonance
p744
aVtool
p745
a.