(lp0
VSweden
p1
aVSweden
p2
aVCanada
p3
aVSweden
p4
aVCanada
p5
aVAustralia
p6
aVUSA
p7
aVUSA
p8
aVJordan
p9
aVJordan
p10
aVUSA
p11
aVIran
p12
aVIran
p13
aVUSA
p14
aVFrance
p15
aVUSA
p16
aVNorway
p17
aVBelgium
p18
aVBelgium
p19
aVDenmark
p20
aVItaly
p21
aVItaly
p22
aVAustralia
p23
aVUSA
p24
aVAustralia
p25
aVCanada
p26
aVCanada
p27
aVCanada
p28
aVCanada
p29
aVAustralia
p30
aVUSA
p31
aVUSA
p32
aVNew Zealand
p33
aVUSA
p34
aVUSA
p35
aVNorway
p36
aVNorway
p37
aVNorway
p38
aVUSA
p39
aVUSA
p40
aVUSA
p41
aVUSA
p42
aVCanada
p43
aVUSA
p44
aVUSA
p45
aVUSA
p46
aVUSA
p47
aVFrance
p48
aVFrance
p49
aVU. K.
p50
aVSouth Korea
p51
aVUSA
p52
aVU. K
p53
aVU. K
p54
aVNorway
p55
aVFrance
p56
aVU. K.
p57
aVFrance
p58
aVFrance
p59
aVFrance
p60
aVU. K.
p61
aVFrance
p62
aVFrance
p63
aVFrance
p64
aVFrance
p65
aVUSA
p66
aVUSA
p67
aVUSA
p68
aVIran
p69
aVIran
p70
aVAustralia
p71
aVSaudi Arabia
p72
aVNorway
p73
aVU.S.A.
p74
aVNorway
p75
aVUSA
p76
aVUSA
p77
aVSaudi Arabia
p78
aVUSA
p79
aVUSA
p80
aVChina
p81
aVBrazil
p82
aVBrazil
p83
aVU. K
p84
aVSwitzerland
p85
aVUSA
p86
aVFrance
p87
aVThe Netherlands
p88
aVThe Netherlands
p89
aVBrunei Darussalam
p90
aVNorway
p91
aVNorway
p92
aVUSA
p93
aVU.K
p94
aVFrance
p95
aVThe Netherlands
p96
aVThe Netherlands
p97
aVNorway
p98
aVUSA
p99
aVUSA
p100
aVNorway
p101
aVUSA
p102
aVUSA
p103
aVFrance
p104
aVFrance
p105
aVFrance
p106
aVNorway
p107
aVU. K
p108
aVU. K
p109
aVU. K
p110
aVU. K
p111
a.