(lp0
Vissue
p1
aVgeophysics
p2
aVscattering
p3
aVversus
p4
aVintrinsic
p5
aVattenuation
p6
aVvadose
p7
aVzone
p8
aVvsp
p9
aVexperiment
p10
aVmt
p11
aVreflection
p12
aVseismics
p13
aVnorthwestern
p14
aVskellefte
p15
aVore
p16
aVdistrict
p17
aVsweden
p18
aVapplication
p19
aVevaluation
p20
aVelectromagnetic
p21
aVmethods
p22
aVimaging
p23
aVsaltwater
p24
aVintrusion
p25
aVcoastal
p26
aVaquifers
p27
aVseaside
p28
aVgroundwater
p29
aVbasin
p30
aVcalifornia
p31
aVmapping
p32
aVgroundwater
p33
aVsalinization
p34
aVusing
p35
aVtransient
p36
aVelectromagnetic
p37
aVdirect
p38
aVcurrent
p39
aVresistivity
p40
aVmethods
p41
aVazraq
p42
aVbasin
p43
aVjordan
p44
aVeffect
p45
aVkerogen
p46
aVelastic
p47
aVanisotropy
p48
aVorganic
p49
aVrich
p50
aVshales
p51
aVeffect
p52
aVadsorption
p53
aVknudsen
p54
aVdiffusion
p55
aVsteady
p56
aVstate
p57
aVpermeability
p58
aVmicroporous
p59
aVrocks
p60
aVapplication
p61
aVgabor
p62
aVdeconvolution
p63
aVzero
p64
aVoffset
p65
aVvsp
p66
aVdata
p67
aVelectric
p68
aVpotential
p69
aVsource
p70
aVlocalization
p71
aVreveals
p72
aVborehole
p73
aVleak
p74
aVhydraulic
p75
aVfracturing
p76
aVmarine
p77
aVcontrolled
p78
aVsource
p79
aVelectromagnetic
p80
aVmethod
p81
aVshallow
p82
aVwater
p83
aVautomated
p84
aVidentification
p85
aVchanges
p86
aVelectrode
p87
aVcontact
p88
aVproperties
p89
aVlong
p90
aVterm
p91
aVpermanent
p92
aVert
p93
aVmonitoring
p94
aVexperiments
p95
aVtest
p96
aVsite
p97
aVcalibration
p98
aVvalidation
p99
aVairborne
p100
aVground
p101
aVbased
p102
aVtem
p103
aVsystems
p104
aVfast
p105
aVinterpretation
p106
aVself
p107
aVpotential
p108
aVdata
p109
aVusing
p110
aVdepth
p111
aVextreme
p112
aVpoints
p113
aVmethod
p114
aVsolving
p115
aV3d
p116
aVanisotropic
p117
aVelastic
p118
aVwave
p119
aVequations
p120
aVparallel
p121
aVgpu
p122
aVdevices
p123
aV3d
p124
aVstochastic
p125
aVgravity
p126
aVinversion
p127
aVusing
p128
aVnonstationary
p129
aVcovariances
p130
aVminimum
p131
aVstructure
p132
aVborehole
p133
aVgravity
p134
aVinversion
p135
aVmineral
p136
aVexploration
p137
aVsynthetic
p138
aVmodeling
p139
aVstudy
p140
aVsemiautomated
p141
aVquantification
p142
aVinfluence
p143
aVdata
p144
aVrichness
p145
aVconfidence
p146
aVgeologic
p147
aVinterpretation
p148
aVaeromagnetic
p149
aVmaps
p150
aVclustering
p151
aVrevisited
p152
aVspectral
p153
aVanalysis
p154
aVmicroseismic
p155
aVevents
p156
aVpropagation
p157
aVdisturbance
p158
aVsmoothly
p159
aVvarying
p160
aVheterogeneous
p161
aVporous
p162
aVmedium
p163
aVsaturated
p164
aVfluid
p165
aVphases
p166
aVinverse
p167
aVrock
p168
aVphysics
p169
aVmodeling
p170
aVreservoir
p171
aVquality
p172
aVprediction
p173
aVseismic
p174
aVcharacterization
p175
aVreservoirs
p176
aVasymmetric
p177
aVfractures
p178
aVempirical
p179
aVmode
p180
aVdecomposition
p181
aVseismic
p182
aVtime
p183
aVfrequency
p184
aVanalysis
p185
aVintegrating
p186
aV3d
p187
aVseismic
p188
aVcurvature
p189
aVcurvature
p190
aVgradient
p191
aVattributes
p192
aVfracture
p193
aVcharacterization
p194
aVmethodologies
p195
aVinterpretational
p196
aVimplications
p197
aVmethods
p198
aVcompute
p199
aVfault
p200
aVimages
p201
aVextract
p202
aVfault
p203
aVsurfaces
p204
aVestimate
p205
aVfault
p206
aVthrows
p207
aV3d
p208
aVseismic
p209
aVimages
p210
aVdeep
p211
aVwater
p212
aVsubsurface
p213
aVimaging
p214
aVusing
p215
aVobs
p216
aVinterferometry
p217
aVregularized
p218
aVseismic
p219
aVwaveform
p220
aVinversion
p221
aVprior
p222
aVmodel
p223
aVinformation
p224
aVefficient
p225
aVlaplace
p226
aVdomain
p227
aVwaveform
p228
aVinversion
p229
aVusing
p230
aVcyclic
p231
aVshot
p232
aVsubsampling
p233
aVmethod
p234
aVdata
p235
aVdriven
p236
aVestimation
p237
aVsensitivity
p238
aVtarget
p239
aVoriented
p240
aVtime
p241
aVlapse
p242
aVseismic
p243
aVimaging
p244
aVsource
p245
aVgeometry
p246
aVanisotropic
p247
aV3d
p248
aVwaveform
p249
aVinversion
p250
aVparameterization
p251
aVsuitable
p252
aVacoustic
p253
aVvertical
p254
aVtransverse
p255
aVisotropic
p256
aVwaveform
p257
aVinversion
p258
aV1
p259
aVsensitivity
p260
aVtrade
p261
aVanalysis
p262
aVparameterization
p263
aVsuitable
p264
aVacoustic
p265
aVvertical
p266
aVtransverse
p267
aVisotropic
p268
aVwaveform
p269
aVinversion
p270
aV2
p271
aVsynthetic
p272
aVreal
p273
aVdata
p274
aVcase
p275
aVstudies
p276
aVvalhall
p277
aVsubsalt
p278
aVimaging
p279
aVtarget
p280
aVoriented
p281
aVinversion
p282
aVbased
p283
aVimaging
p284
aV3d
p285
aVfield
p286
aVdata
p287
aVexample
p288
aVway
p289
aVwave
p290
aVequation
p291
aVmigration
p292
aVlog
p293
aVpolar
p294
aVcoordinates
p295
aVtime
p296
aVlapse
p297
aVwave
p298
aVequation
p299
aVmigration
p300
aVvelocity
p301
aVanalysis
p302
aVwavefield
p303
aVextrapolation
p304
aVpseudodepth
p305
aVdomain
p306
aVimaging
p307
aVextended
p308
aVreach
p309
aVhorizontal
p310
aVusing
p311
aVconverted
p312
aVshear
p313
aVwaves
p314
aVrig
p315
aVsource
p316
aVdynamic
p317
aVwarping
p318
aVseismic
p319
aVimages
p320
aV3d
p321
aVangle
p322
aVgathers
p323
aVplane
p324
aVwave
p325
aVreverse
p326
aVtime
p327
aVmigration
p328
aVautomatic
p329
aVtraveltime
p330
aVpicking
p331
aVusing
p332
aVinstantaneous
p333
aVtraveltime
p334
aVmoveout
p335
aVbased
p336
aVwave
p337
aVequation
p338
aVmigration
p339
aVvelocity
p340
aVanalysis
p341
aVseismic
p342
aVspectral
p343
aVdecomposition
p344
aVusing
p345
aVdeconvolutive
p346
aVshort
p347
aVtime
p348
aVfourier
p349
aVtransform
p350
aVspectrogram
p351
aVhigh
p352
aVresolution
p353
aVgathers
p354
aVinverse
p355
aVq
p356
aVfiltering
p357
aVwavelet
p358
aVdomain
p359
aVhigh
p360
aVprecision
p361
aVestimation
p362
aVsplit
p363
aVps
p364
aVwave
p365
aVtime
p366
aVdelays
p367
aVpolarization
p368
aVdirections
p369
aVbroadband
p370
aVseismology
p371
aVoil
p372
aVgas
p373
aVexploration
p374
aVproduction
p375
aVintroduction
p376
aVbroadband
p377
aVseismic
p378
aVdata
p379
aVimportance
p380
aVlow
p381
aVfrequencies
p382
aVlow
p383
aVfrequency
p384
aVseismic
p385
aVdeghosting
p386
aVl1
p387
aVpseudo
p388
aVvz
p389
aVestimation
p390
aVdeghosting
p391
aVsingle
p392
aVcomponent
p393
aVmarine
p394
aVtowed
p395
aVstreamer
p396
aVdata
p397
aVvariable
p398
aVdepth
p399
aVstreamer
p400
aVacquisition
p401
aVbroadband
p402
aVdata
p403
aVimaging
p404
aVinversion
p405
aVwavefield
p406
aVdecomposition
p407
aVbased
p408
aVacoustic
p409
aVreciprocity
p410
aVtheory
p411
aVapplications
p412
aVmarine
p413
aVacquisition
p414
aVwavefield
p415
aVseparation
p416
aVmethods
p417
aVdual
p418
aVsensor
p419
aVtowed
p420
aVstreamer
p421
aVdata
p422
aVdirectional
p423
aVwavefield
p424
aVdecomposition
p425
aVapplication
p426
aVgreen
p427
aVtheorem
p428
aVderived
p429
aVsource
p430
aVreceiver
p431
aVdeghosting
p432
aVdeep
p433
aVwater
p434
aVgulf
p435
aVmexico
p436
aVsynthetic
p437
aVseam
p438
aVfield
p439
aVdata
p440
aVgeneration
p441
aVlow
p442
aVfrequencies
p443
aVmodern
p444
aVseismic
p445
aVvibrators
p446
aVhelmholtz
p447
aVtomography
p448
aVambient
p449
aVnoise
p450
aVsurface
p451
aVwave
p452
aVdata
p453
aVestimate
p454
aVscholte
p455
aVwave
p456
aVphase
p457
aVvelocity
p458
aVvalhall
p459
aVlife
p460
aVfield
p461
aVfrequency
p462
aVdependent
p463
aVseismic
p464
aVanisotropy
p465
aVfractures
p466
aVfluid
p467
aVflow
p468
aVversus
p469
aVscattering
p470
aVsource
p471
aVreceiver
p472
aVreverse
p473
aVtime
p474
aVimaging
p475
aVdual
p476
aVsource
p477
aVvector
p478
aVacoustic
p479
aVseismic
p480
aVdata
p481
aVbroadband
p482
aVextended
p483
aVimages
p484
aVjoint
p485
aVinversion
p486
aVmultiple
p487
aVblended
p488
aVwavefields
p489
a.