(lp0
VSweden
p1
aVSweden
p2
aVSweden
p3
aVSweden
p4
aVIran
p5
aVSweden
p6
aVChina
p7
aVChina
p8
aVChina
p9
aVChina
p10
aVNorway
p11
aVNorway
p12
aVNorway
p13
aVUSA
p14
aVUSA
p15
aVUSA
p16
aVUSA
p17
aVCanada
p18
aVMexico
p19
aVCanada
p20
aVUSA
p21
aVUSA
p22
aVThailand
p23
aVUSA
p24
aVChina
p25
aVUK
p26
aVUSA
p27
aVUSA
p28
aVNorway
p29
aVNorway
p30
aVAustralia
p31
aVChina
p32
aVChina
p33
aVChina
p34
aVUSA
p35
aVUSA
p36
aVUSA
p37
aVFrance
p38
aVUSA
p39
aVCanada
p40
aVUK
p41
aVUSA
p42
aVUSA
p43
aVUSA
p44
aVSwitzerland
p45
aVItaly
p46
aVItaly
p47
aVItaly
p48
aVItaly
p49
aVItaly
p50
aVItaly
p51
aVFrance
p52
aVNorway
p53
aVNorway
p54
aVFrance
p55
aVCanada
p56
aVThe Netherlands
p57
aVNorway
p58
aVNorway
p59
aVNetherlands
p60
aVNetherlands
p61
aVNetherlands
p62
aVNorway
p63
aVFrance
p64
aVNorway
p65
aVUK
p66
aVIndia
p67
aVIndia
p68
aVNorway
p69
aVNorway
p70
aVNorway
p71
aVSaudi Arabia
p72
aVChina
p73
aVCanada
p74
aVChina
p75
aVUSA
p76
aVChina
p77
aVUSA
p78
aVChina
p79
aVUSA
p80
aVNorway
p81
aVNorway
p82
aVNorway
p83
aVUSA
p84
aVUSA
p85
aVSaudi Arabia
p86
aVChina
p87
aVChina
p88
aVSwitzerland
p89
aVChina
p90
aVItaly
p91
aVBrazil
p92
aVNorway
p93
aVUSA
p94
aVIreland
p95
aVCanada
p96
aVChina
p97
aVBrazil
p98
aVBrazil
p99
aVBrazil
p100
aVBrazil
p101
aVBrazil
p102
aVNorway
p103
aVChina
p104
aVChina
p105
aVChina
p106
aVUSA
p107
aVChina
p108
aVChina
p109
aVChina
p110
aVChina
p111
aVChina
p112
aVUSA
p113
aVChina
p114
aVCanada
p115
aVChina
p116
aVChina
p117
aVChina
p118
aVUSA
p119
aVNetherlands
p120
aVChina
p121
aVChina
p122
aVUSA
p123
aVUSA
p124
a.