(lp0
Vissue
p1
aVgeophysics
p2
aVestimating
p3
aVrock
p4
aVvector
p5
aVmagnetization
p6
aVcoincident
p7
aVmeasurements
p8
aVmagnetic
p9
aVfield
p10
aVgravity
p11
aVgradient
p12
aVtensor
p13
aVconsistency
p14
aVinvestigation
p15
aVvertical
p16
aVgravity
p17
aVestimation
p18
aVinversion
p19
aVairborne
p20
aVgravity
p21
aVgradient
p22
aVdata
p23
aVcase
p24
aVstudy
p25
aVnorthern
p26
aVsweden
p27
aVapplication
p28
aV3d
p29
aVseismic
p30
aVattributes
p31
aVoptimize
p32
aVplacement
p33
aVhorizontal
p34
aVwells
p35
aVtight
p36
aVgas
p37
aVsand
p38
aVreservoir
p39
aVordos
p40
aVbasin
p41
aVchina
p42
aVquantitative
p43
aVuncertainty
p44
aVevaluation
p45
aVseismic
p46
aVfacies
p47
aVclassification
p48
aVcase
p49
aVstudy
p50
aVnortheast
p51
aVchina
p52
aVanalytic
p53
aVcalculation
p54
aVphase
p55
aVgroup
p56
aVvelocities
p57
aVp
p58
aVwaves
p59
aVorthorhombic
p60
aVmedia
p61
aVp
p62
aVwave
p63
aVslowness
p64
aVsurface
p65
aVapproximation
p66
aVtilted
p67
aVorthorhombic
p68
aVmedia
p69
aVupscaling
p70
aVorthorhombic
p71
aVmedia
p72
aVbehavior
p73
aVelastic
p74
aVparameters
p75
aVheterogeneous
p76
aVfractured
p77
aVearth
p78
aVseismic
p79
aVwave
p80
aVattenuation
p81
aVmodulus
p82
aVdispersion
p83
aVsandstones
p84
aVvertical
p85
aVseismic
p86
aVwave
p87
aVgradiometry
p88
aVapplication
p89
aVsan
p90
aVandreas
p91
aVfault
p92
aVobservatory
p93
aVdepth
p94
aVcomparative
p95
aVstudy
p96
aVanisotropic
p97
aVdynamic
p98
aVstatic
p99
aVelastic
p100
aVmoduli
p101
aVunconventional
p102
aVreservoir
p103
aVshales
p104
aVimplication
p105
aVgeomechanical
p106
aVinvestigations
p107
aVevolution
p108
aVelastic
p109
aVproperties
p110
aVorganic
p111
aVrich
p112
aVshale
p113
aVpyrolysis
p114
aVinduced
p115
aVthermal
p116
aVmaturation
p117
aVnumerical
p118
aVsimulation
p119
aVazimuthal
p120
aVacoustic
p121
aVlogging
p122
aVborehole
p123
aVpenetrating
p124
aVrock
p125
aVformation
p126
aVboundary
p127
aVelectromagnetic
p128
aVinduction
p129
aVnoise
p130
aVtowed
p131
aVelectromagnetic
p132
aVstreamer
p133
aVdirect
p134
aVcurrent
p135
aVresponse
p136
aVelectrically
p137
aVconducting
p138
aVfractures
p139
aVexcited
p140
aVgrounded
p141
aVcurrent
p142
aVsource
p143
aVlow
p144
aVrank
p145
aVapproximation
p146
aVlarge
p147
aVscale
p148
aV3d
p149
aVcontrolled
p150
aVsource
p151
aVelectromagnetic
p152
aVgauss
p153
aVnewton
p154
aVinversion
p155
aVinterpreting
p156
aVdirection
p157
aVgravity
p158
aVgradient
p159
aVtensor
p160
aVeigenvectors
p161
aVrelation
p162
aVcurvature
p163
aVparameters
p164
aVgravity
p165
aVfield
p166
aVshear
p167
aVwave
p168
aVvelocity
p169
aVstructure
p170
aVshallow
p171
aVsediments
p172
aVbohai
p173
aVsea
p174
aVocean
p175
aVseismometer
p176
aVsurvey
p177
aVjoint
p178
aVinversion
p179
aVmultiple
p180
aVgeophysical
p181
aVdata
p182
aVusing
p183
aVguided
p184
aVfuzzy
p185
aVc
p186
aVmeans
p187
aVclustering
p188
aVautomatic
p189
aVboundary
p190
aVextraction
p191
aVmagnetic
p192
aVfield
p193
aVdata
p194
aVusing
p195
aVtriangular
p196
aVmeshes
p197
aVnature
p198
aVlong
p199
aVperiod
p200
aVlong
p201
aVduration
p202
aVseismic
p203
aVevents
p204
aVdetected
p205
aVhydraulic
p206
aVfracturing
p207
aVmicroseismic
p208
aVevent
p209
aVlocalization
p210
aVacoustic
p211
aVtime
p212
aVreversal
p213
aVextrapolation
p214
aVintegrated
p215
aVmicroseismic
p216
aVgeomechanical
p217
aVstudy
p218
aVbarnett
p219
aVshale
p220
aVformation
p221
aVefficient
p222
aVglobal
p223
aVoptimization
p224
aVreservoir
p225
aVgeomechanical
p226
aVparameters
p227
aVbased
p228
aVsynthetic
p229
aVaperture
p230
aVradar
p231
aVderived
p232
aVground
p233
aVdisplacements
p234
aVestimation
p235
aVrock
p236
aVphysics
p237
aVproperties
p238
aVseismic
p239
aVattributes
p240
aV1
p241
aVstrategy
p242
aVsensitivity
p243
aVanalysis
p244
aVviscoelastic
p245
aVamplitude
p246
aVvariation
p247
aVoffset
p248
aVequations
p249
aVaccount
p250
aVtaken
p251
aVjumps
p252
aVattenuation
p253
aVangle
p254
aVwavefield
p255
aVmarine
p256
aVsurvey
p257
aVdesign
p258
aVusing
p259
aVmultiples
p260
aVestimation
p261
aVsource
p262
aVsignatures
p263
aVair
p264
aVguns
p265
aVfired
p266
aVvarious
p267
aVdepths
p268
aVfield
p269
aVtest
p270
aVsource
p271
aVscaling
p272
aVlaw
p273
aVmechanical
p274
aVvibrator
p275
aVearth
p276
aVcontact
p277
aVgeometry
p278
aVdynamics
p279
aVreducing
p280
aVhigh
p281
aVfrequency
p282
aVghost
p283
aVcavitation
p284
aVsignals
p285
aVmarine
p286
aVair
p287
aVgun
p288
aVarrays
p289
aVrelating
p290
aVsource
p291
aVreceiver
p292
aVinterferometry
p293
aVinverse
p294
aVscattering
p295
aVseries
p296
aVderive
p297
aVnew
p298
aVmethod
p299
aVestimate
p300
aVinternal
p301
aVmultiples
p302
aVfeasibility
p303
aVapproximate
p304
aVbroadband
p305
aVestimation
p306
aVacoustic
p307
aVimpedance
p308
aVprofile
p309
aVprinciples
p310
aVband
p311
aVlimited
p312
aVreflection
p313
aVdata
p314
aVgaussian
p315
aVbased
p316
aVframework
p317
aVlocal
p318
aVbayesian
p319
aVinversion
p320
aVgeophysical
p321
aVdata
p322
aVrock
p323
aVproperties
p324
aVmodel
p325
aVwavenumber
p326
aVinversion
p327
aVemphasis
p328
aVappropriate
p329
aVwavenumber
p330
aVcontinuation
p331
aVhierarchical
p332
aVelastic
p333
aVwaveform
p334
aVinversion
p335
aVscheme
p336
aVbased
p337
aVwavefield
p338
aVseparation
p339
aVmultistep
p340
aVlength
p341
aVapproach
p342
aVmodified
p343
aVgauss
p344
aVnewton
p345
aVwaveform
p346
aVinversion
p347
aVexplained
p348
aVsparsity
p349
aVpromoting
p350
aVupdates
p351
aVmatter
p352
aVmultiwavelet
p353
aVprestack
p354
aVkirchhoff
p355
aVmigration
p356
aVsquares
p357
aVgaussian
p358
aVbeam
p359
aVmigration
p360
aVsubsurface
p361
aVreflectivity
p362
aVestimation
p363
aVimaging
p364
aVprimaries
p365
aVmultiples
p366
aVusing
p367
aVamplitude
p368
aVnormalized
p369
aVseparated
p370
aVwavefields
p371
aVscattering
p372
aVdip
p373
aVangle
p374
aVdecomposition
p375
aVbased
p376
aVsubsurface
p377
aVoffset
p378
aVextended
p379
aVwave
p380
aVequation
p381
aVmigration
p382
aVanalysis
p383
aVrtm
p384
aVextended
p385
aVimages
p386
aVvti
p387
aVmedia
p388
aVmodeling
p389
aVpure
p390
aVacoustic
p391
aVwave
p392
aVtilted
p393
aVtransversely
p394
aVisotropic
p395
aVmedia
p396
aVusing
p397
aVoptimized
p398
aVpseudo
p399
aVdifferential
p400
aVoperators
p401
aVfermat
p402
aVprinciple
p403
aVsnell
p404
aVlaw
p405
aVlossy
p406
aVanisotropic
p407
aVmedia
p408
aVseparating
p409
aVwavefield
p410
aVpropagation
p411
aVdirection
p412
aVdynamic
p413
aVlattice
p414
aVmethod
p415
aVelastic
p416
aVseismic
p417
aVmodeling
p418
aVanisotropic
p419
aVmedia
p420
aVautomatic
p421
aVdata
p422
aVextrapolation
p423
aVzero
p424
aVoffset
p425
aVlocal
p426
aVslope
p427
aVmethod
p428
aVlow
p429
aVfrequency
p430
aVnoise
p431
aVsuppression
p432
aVbased
p433
aVmathematical
p434
aVmorphology
p435
aVmicroseismic
p436
aVmonitoring
p437
aVseismic
p438
aVsparse
p439
aVspike
p440
aVdeconvolution
p441
aVtoeplitz
p442
aVsparse
p443
aVmatrix
p444
aVfactorization
p445
aVestimation
p446
aVprimaries
p447
aVsparse
p448
aVinversion
p449
aVscattering
p450
aVbased
p451
aVmultiple
p452
aVpredictions
p453
aVdata
p454
aVlarge
p455
aVgaps
p456
aVstable
p457
aVinversion
p458
aVbased
p459
aVmultitrace
p460
aVdeabsorption
p461
aVmethod
p462
aVspatial
p463
aVcontinuity
p464
aVpreservation
p465
aVweak
p466
aVsignal
p467
aVcompensation
p468
aVperiodically
p469
aVvarying
p470
aVcode
p471
aVimproving
p472
aVdeblending
p473
aVsimultaneous
p474
aVsources
p475
aVmarine
p476
aVacquisition
p477
aVfree
p478
aVsurface
p479
aVmultiple
p480
aVattenuation
p481
aVblended
p482
aVdata
p483
aVinvestigation
p484
aVgeneralized
p485
aVtransform
p486
aVanalysis
p487
aVwindows
p488
aVtime
p489
aVfrequency
p490
aVanalysis
p491
aVseismic
p492
aVreflection
p493
aVdata
p494
a.