(lp0
VItaly
p1
aVDenmark
p2
aVCanada
p3
aVIreland
p4
aVSouth Africa
p5
aVIreland
p6
aVIreland
p7
aVSouth Africa
p8
aVIreland
p9
aVGermany
p10
aVSouth Africa
p11
aVCanada
p12
aVDenmark
p13
aVFrance
p14
aVDenmark
p15
aVDenmark
p16
aVDenmark
p17
aVUSA
p18
aVUSA
p19
aVChina
p20
aVUSA
p21
aVUSA
p22
aVUSA
p23
aVUK
p24
aVIran
p25
aVIran
p26
aVIran
p27
aVIran
p28
aVIran
p29
aVIran
p30
aVChina
p31
aVUSA
p32
aVUSA
p33
aVUSA
p34
aVCanada
p35
aVDenmark
p36
aVItaly
p37
aVUnited Kingdom
p38
aVItaly
p39
aVSweden
p40
aVSweden
p41
aVItaly
p42
aVChina
p43
aVGermany
p44
aVSouth Africa
p45
aVUK
p46
aVUK
p47
aVCanada
p48
aVUSA
p49
aVNorway
p50
aVUSA
p51
aVGermany
p52
aVGermany
p53
aVGermany
p54
aVNorway
p55
aVUSA
p56
aVChina
p57
aVNorway
p58
aVSaudi Arabia
p59
aVAustralia
p60
aVUSA
p61
aVJapan
p62
aVUSA
p63
aVSaudi Arabia
p64
aVUSA
p65
aVRussia
p66
aVRussia
p67
aVRussia
p68
aVKazakstan
p69
aVRussia
p70
aVKazakstan
p71
aVUSA
p72
aVUK
p73
aVUK
p74
aVSwitzerland
p75
a.