(lp0
Vissue
p1
aVgeophysics
p2
aVcomputationally
p3
aVefficient
p4
aVtool
p5
aVassessing
p6
aVdepth
p7
aVresolution
p8
aVlarge
p9
aVscale
p10
aVpotential
p11
aVfield
p12
aVinversion
p13
aVdetailed
p14
aVtopography
p15
aVdevonian
p16
aVgrosmont
p17
aVformation
p18
aVsurface
p19
aVlegacy
p20
aVhigh
p21
aVresolution
p22
aVseismic
p23
aVprofiles
p24
aVnortheast
p25
aValberta
p26
aVaudio
p27
aVmagnetotelluric
p28
aVinvestigation
p29
aVotjiwarongo
p30
aVkatima
p31
aVmulilo
p32
aVregions
p33
aVnamibia
p34
aVcooperative
p35
aVconstrained
p36
aVinversion
p37
aVmultiple
p38
aVelectromagnetic
p39
aVdata
p40
aVsets
p41
aVassessment
p42
aVnear
p43
aVsurface
p44
aVmapping
p45
aVcapabilities
p46
aVairborne
p47
aVtransient
p48
aVelectromagnetic
p49
aVdata
p50
aVextensive
p51
aVcomparison
p52
aVconventional
p53
aVborehole
p54
aVdata
p55
aVdirection
p56
aVdependence
p57
aVfracture
p58
aVcompliance
p59
aVinduced
p60
aVslickensides
p61
aVfast
p62
aValgorithms
p63
aVelastic
p64
aVwave
p65
aVmode
p66
aVseparation
p67
aVvector
p68
aVdecomposition
p69
aVusing
p70
aVlow
p71
aVrank
p72
aVapproximation
p73
aVanisotropic
p74
aVmedia
p75
aVsimulation
p76
aVeffect
p77
aVstress
p78
aVinduced
p79
aVanisotropy
p80
aVborehole
p81
aVcompressional
p82
aVwave
p83
aVpropagation
p84
aVstable
p85
aVq
p86
aVanalysis
p87
aVvertical
p88
aVseismic
p89
aVprofiling
p90
aVdata
p91
aVempirical
p92
aVestimation
p93
aVuniaxial
p94
aVcompressive
p95
aVstrength
p96
aVshale
p97
aVformations
p98
aVprediction
p99
aVseismic
p100
aVwave
p101
aVvelocities
p102
aVrock
p103
aVvarious
p104
aVconfining
p105
aVpressures
p106
aVbased
p107
aVunconfined
p108
aVdata
p109
aVpore
p110
aVpressure
p111
aVprediction
p112
aVcarbonate
p113
aVrock
p114
aVusing
p115
aVwavelet
p116
aVtransformation
p117
aVrapid
p118
aVforward
p119
aVmodeling
p120
aVmultidetector
p121
aVlogging
p122
aVdrilling
p123
aVsigma
p124
aVmeasurements
p125
aV3d
p126
aVfinite
p127
aVelement
p128
aVforward
p129
aVmodeling
p130
aVelectromagnetic
p131
aVdata
p132
aVusing
p133
aVvector
p134
aVscalar
p135
aVpotentials
p136
aVunstructured
p137
aVgrids
p138
aVsensitivity
p139
aVfunctions
p140
aVtransient
p141
aVelectromagnetic
p142
aVmethods
p143
aVjoint
p144
aVinversion
p145
aVrayleigh
p146
aVwave
p147
aVdispersion
p148
aVp
p149
aVwave
p150
aVrefraction
p151
aVdata
p152
aVlaterally
p153
aVvarying
p154
aVlayered
p155
aVmodels
p156
aVintegrated
p157
aV2d
p158
aVmodeling
p159
aVinterpretation
p160
aVgeophysical
p161
aVgeotechnical
p162
aVdata
p163
aVdelineate
p164
aVquick
p165
aVclays
p166
aVlandslide
p167
aVsite
p168
aVsouthwest
p169
aVsweden
p170
aVdetection
p171
aVsharp
p172
aVlateral
p173
aVdiscontinuities
p174
aVanalysis
p175
aVsurface
p176
aVwave
p177
aVpropagation
p178
aV3d
p179
aVinversion
p180
aVairborne
p181
aVgravity
p182
aVgradiometry
p183
aVdata
p184
aVusing
p185
aVcokriging
p186
aVvertical
p187
aVradar
p188
aVprofiling
p189
aVcombined
p190
aVanalysis
p191
aVtraveltimes
p192
aVamplitudes
p193
aVreflections
p194
aVreducing
p195
aVdependence
p196
aVanalytic
p197
aVsignal
p198
aVamplitude
p199
aVaeromagnetic
p200
aVdata
p201
aVsource
p202
aVvector
p203
aVdirection
p204
aVstructural
p205
aVindex
p206
aVgravity
p207
aVmagnetic
p208
aVinterpretation
p209
aVerrors
p210
aVuses
p211
aVabuses
p212
aVkrauklis
p213
aVwave
p214
aVtrilayer
p215
aVfast
p216
aVacoustic
p217
aVvelocity
p218
aVtomography
p219
aVfocusing
p220
aVoperators
p221
aVnonlinear
p222
aVjoint
p223
aVinversion
p224
aVtomographic
p225
aVdata
p226
aVusing
p227
aVswarm
p228
aVintelligence
p229
aVvalue
p230
aVinformation
p231
aVanalysis
p232
aVbayesian
p233
aVinversion
p234
aVclosed
p235
aVskew
p236
aVnormal
p237
aVdistributions
p238
aVapplications
p239
aVseismic
p240
aVamplitude
p241
aVvariation
p242
aVoffset
p243
aVdata
p244
aVstaining
p245
aValgorithm
p246
aVseismic
p247
aVmodeling
p248
aVmigration
p249
aVanalytical
p250
aVapproximations
p251
aVdiving
p252
aVwave
p253
aVimaging
p254
aVconstant
p255
aVgradient
p256
aVmedium
p257
aVreverse
p258
aVtime
p259
aVmigration
p260
aVtopography
p261
aVsquares
p262
aVmigration
p263
aVpresence
p264
aVvelocity
p265
aVerrors
p266
aVaccuracy
p267
aVanalysis
p268
aVhamiltonian
p269
aVparticle
p270
aVmethod
p271
aVstaggered
p272
aVparticles
p273
aVseismic
p274
aVwave
p275
aVmodeling
p276
aVincluding
p277
aVsurface
p278
aVtopography
p279
aVnumerical
p280
aVmodeling
p281
aVelastic
p282
aVwave
p283
aVscattering
p284
aVnear
p285
aVsurface
p286
aVheterogeneities
p287
aVnumerical
p288
aVstudy
p289
aVinterface
p290
aVerrors
p291
aVfinite
p292
aVdifference
p293
aVsimulations
p294
aVseismic
p295
aVwaves
p296
aVeffects
p297
aVnear
p298
aVsource
p299
aVheterogeneity
p300
aVshear
p301
aVwave
p302
aVevolution
p303
aVmethod
p304
aVcorrecting
p305
aVacoustic
p306
aVfinite
p307
aVdifference
p308
aVamplitudes
p309
aVelastic
p310
aVeffects
p311
a.