(lp0
VGermany
p1
aVUSA
p2
aVGermany
p3
aVNorway
p4
aVCanada
p5
aVUK
p6
aVCanada
p7
aVCanada
p8
aVSaudi Arabia
p9
aVUK
p10
aVUSA
p11
aVCzech Republic
p12
aVThe Netherlands
p13
aVThe Netherlands
p14
aVThe Netherlands
p15
aVFrance
p16
aVUSA
p17
aVUSA
p18
aVUSA
p19
aVUSA
p20
aVChina
p21
aVGermany
p22
aVAustralia
p23
aVChina
p24
aVCanada
p25
aVChina
p26
aVChina
p27
aVChina
p28
aVUSA
p29
aVUSA
p30
aVUSA
p31
aVUSA
p32
aVChina
p33
aVUSA
p34
aVChina
p35
aVUSA
p36
aVUSA
p37
aVUK
p38
aVUK
p39
aVUSA
p40
aVChina
p41
aVChina
p42
aVUSA
p43
aVUSA
p44
aVUSA
p45
aVGermany
p46
aVGermany
p47
aVChina
p48
aVUSA
p49
aVRussia
p50
aVRussia
p51
aVRussia
p52
aVUSA
p53
aVUSA
p54
aVNew Mexico
p55
aVUSA
p56
aVNew Mexico
p57
aVUSA
p58
aVUSA
p59
aVUSA
p60
aVUSA
p61
aVUSA
p62
aVChina
p63
aVChina
p64
aVChina
p65
aVChina
p66
aVFrance
p67
aVAustralia
p68
aVFrance
p69
aVAustralia
p70
aVAustralia
p71
aVAustralia
p72
aVAustralia
p73
aVUSA
p74
aVUSA
p75
aVUSA
p76
aVChina
p77
aVItaly
p78
aVAustralia
p79
aVUK
p80
aVAustralia
p81
aVCanada
p82
aVAustralia
p83
aVAustralia
p84
aVUSA
p85
aVUSA
p86
aVUSA
p87
aVUSA
p88
aVSaudi Arabia
p89
aVNetherlands
p90
aVNetherlands
p91
aVChina
p92
aVFrance
p93
aVFrance
p94
aVFrance
p95
aVFrance
p96
aVUSA
p97
aVUSA
p98
aVUSA
p99
aVUSA
p100
aVNorway
p101
aVUSA
p102
aVUSA
p103
aVUSA
p104
aVUSA
p105
aVUK
p106
aVUSA
p107
aVUSA
p108
aVUSA
p109
aVUSA
p110
aVUSA
p111
aVUSA
p112
aVUSA
p113
aVUSA
p114
aVUSA
p115
aVUSA
p116
aVUSA
p117
aVUSA
p118
aVGermany
p119
aVGermany
p120
aVGermany
p121
aVUSA
p122
aVUSA
p123
aVWest Africa
p124
a.