(lp0
Vissue
p1
aVgeophysics
p2
aVspecific
p3
aVpolarizability
p4
aVsands
p5
aVsand
p6
aVclay
p7
aVmixtures
p8
aVstructure
p9
aVconstrained
p10
aVrelative
p11
aVacoustic
p12
aVimpedance
p13
aVusing
p14
aVstratigraphic
p15
aVcoordinates
p16
aVvariable
p17
aVsource
p18
aVdepth
p19
aVacquisition
p20
aVimproved
p21
aVmarine
p22
aVbroadband
p23
aVseismic
p24
aVdata
p25
aVtraveltime
p26
aVtomography
p27
aVdense
p28
aVwide
p29
aVangle
p30
aVprofile
p31
aVorphan
p32
aVbasin
p33
aViterative
p34
aVfast
p35
aVsweeping
p36
aVbased
p37
aVeikonal
p38
aVsolver
p39
aV3d
p40
aVtilted
p41
aVanisotropic
p42
aVmedia
p43
aVdetermination
p44
aVparameters
p45
aVviscoelastic
p46
aVanisotropy
p47
aVray
p48
aVvelocity
p49
aVray
p50
aVattenuation
p51
aVtheory
p52
aVnumerical
p53
aVmodeling
p54
aVexperimental
p55
aVvalidation
p56
aVfracture
p57
aVaperture
p58
aVdetermination
p59
aVborehole
p60
aVelectric
p61
aVmicroresistivity
p62
aVmeasurements
p63
aVmodeling
p64
aVattenuation
p65
aVdispersion
p66
aVporous
p67
aVheterogeneous
p68
aVrocks
p69
aVdynamic
p70
aVfluid
p71
aVmodulus
p72
aVnuclear
p73
aVmagnetic
p74
aVresonance
p75
aVaverage
p76
aVpore
p77
aVsize
p78
aVestimations
p79
aVoutside
p80
aVfast
p81
aVdiffusion
p82
aVregime
p83
aVexperiment
p84
aVstudy
p85
aVpore
p86
aVstructure
p87
aVeffects
p88
aVvelocities
p89
aVsynthetic
p90
aVcarbonate
p91
aVrocks
p92
aVseismic
p93
aVreflection
p94
aVdispersion
p95
aVwave
p96
aVinduced
p97
aVfluid
p98
aVflow
p99
aVheterogeneous
p100
aVreservoir
p101
aVrocks
p102
aVfast
p103
aValgorithm
p104
aVforward
p105
aVmodel
p106
aVtriaxial
p107
aVinduction
p108
aVlogging
p109
aVresponse
p110
aVlayered
p111
aVtransversely
p112
aVisotropic
p113
aVdipping
p114
aVformations
p115
aV2d
p116
aVinversion
p117
aVbased
p118
aVinterpretation
p119
aVlogging
p120
aVdrilling
p121
aVthermal
p122
aVneutron
p123
aVgamma
p124
aVray
p125
aVtime
p126
aVdecays
p127
aVeffect
p128
aVflood
p129
aVbasalt
p130
aVstratigraphy
p131
aVphase
p132
aVseismic
p133
aVwaveforms
p134
aVrecorded
p135
aVoffshore
p136
aVfaroe
p137
aVislands
p138
aVinvestigating
p139
aVinternal
p140
aVmagnetic
p141
aVfield
p142
aVgradients
p143
aVaquifer
p144
aVsediments
p145
aVforward
p146
aVbackward
p147
aVamplitude
p148
aVphase
p149
aVestimation
p150
aVmethod
p151
aVdispersion
p152
aVanalysis
p153
aVborehole
p154
aVsonic
p155
aVmeasurements
p156
aVhigh
p157
aVsalinity
p158
aVpolarization
p159
aVsandstones
p160
aVefficient
p161
aV2
p162
aV5d
p163
aVelectromagnetic
p164
aVmodeling
p165
aVusing
p166
aVboundary
p167
aVintegral
p168
aVequations
p169
aVfractional
p170
aVdiffusion
p171
aVanalysis
p172
aVelectromagnetic
p173
aVfield
p174
aVfractured
p175
aVmedia
p176
ag162
aV3d
p177
aVapproach
p178
aVmarine
p179
aVcsem
p180
aVscarborough
p181
aVgas
p182
aVfield
p183
ag162
aV2d
p184
aVinversion
p185
aVgeophysicist
p186
aVreplied
p187
aVmodel
p188
aVwant
p189
aVimaging
p190
aVlateral
p191
aVheterogeneity
p192
aVusing
p193
aVreflected
p194
aVsurface
p195
aVwaves
p196
aVgraphics
p197
aVprocessing
p198
aVunit
p199
aVimplementation
p200
aVtime
p201
aVdomain
p202
aVwaveform
p203
aVinversion
p204
aV2d
p205
aVsequential
p206
aVinversion
p207
aVtotal
p208
aVmagnitude
p209
aVtotal
p210
aVmagnetic
p211
aVanomaly
p212
aVdata
p213
aVaffected
p214
aVremanent
p215
aVmagnetization
p216
aVbody
p217
aVwave
p218
aVreconstruction
p219
aVambient
p220
aVseismic
p221
aVnoise
p222
aVcorrelations
p223
aVunderground
p224
aVcomparison
p225
aVcoherency
p226
aVmeasurement
p227
aVusing
p228
aVsemblance
p229
aVmultiple
p230
aVsignal
p231
aVclassification
p232
aVseismic
p233
aVdrilling
p234
aVperspective
p235
aVembedded
p236
aVbound
p237
aVmethod
p238
aVestimating
p239
aVchange
p240
aVrock
p241
aVmoduli
p242
aVpore
p243
aVmineral
p244
aVphase
p245
aVsubstitution
p246
aVfluid
p247
aVsubstitution
p248
aVmultimineralic
p249
aVrocks
p250
aVlarge
p251
aVmineral
p252
aVstiffness
p253
aVcontrast
p254
aVinversion
p255
aVmethod
p256
aVseafloor
p257
aVelastic
p258
aVparameters
p259
aVcoherency
p260
aVambient
p261
aVseismic
p262
aVnoise
p263
aVrecorded
p264
aVland
p265
aVsurveys
p266
aVresulting
p267
aVimplications
p268
aVeffectiveness
p269
aVgeophone
p270
aVarrays
p271
aVoptimal
p272
aVsurvey
p273
aVdesign
p274
aVbig
p275
aVdata
p276
aVhorizontal
p277
aVcontraction
p278
aVimage
p279
aVdomain
p280
aVvelocity
p281
aVinversion
p282
aVconditioning
p283
aVwaveform
p284
aVinversion
p285
aVgradient
p286
aVwelcome
p287
aVanisotropy
p288
aVimaging
p289
aVblended
p290
aVvertical
p291
aVseismic
p292
aVprofiling
p293
aVdata
p294
aVusing
p295
aVwavefield
p296
aVmigration
p297
aVcommon
p298
aVreceiver
p299
aVdomain
p300
aV2d
p301
aV3d
p302
aVfrequency
p303
aVdomain
p304
aVelastic
p305
aVwave
p306
aVmodeling
p307
aVcomplex
p308
aVmedia
p309
aVparallel
p310
aViterative
p311
aVsolver
p312
aVremoving
p313
aVsmearing
p314
aVeffect
p315
aVartifacts
p316
aVangle
p317
aVdomain
p318
aVcommon
p319
aVimage
p320
aVgathers
p321
aVreverse
p322
aVtime
p323
aVmigration
p324
aVsensitivity
p325
aVkernel
p326
aVbased
p327
aVtomographic
p328
aVmigration
p329
aVvelocity
p330
aVanalysis
p331
aVusing
p332
aVreverse
p333
aVtime
p334
aVmigration
p335
aVangle
p336
aVimage
p337
aVgathers
p338
aVimage
p339
aVregistration
p340
aVguided
p341
aVwavefield
p342
aVtomography
p343
aVshear
p344
aVwave
p345
aVvelocity
p346
aVmodel
p347
aVbuilding
p348
aVmultimodel
p349
aVadaptive
p350
aVsubtraction
p351
aVregularized
p352
aVparameter
p353
aVselection
p354
aVgeneralized
p355
aVinformation
p356
aVcriterion
p357
aVimage
p358
aVhorizon
p359
aVguided
p360
aVinterpolation
p361
aVnear
p362
aVsurface
p363
aVgeophysics
p364
aVinvestigating
p365
aVdynamic
p366
aVcoastal
p367
aVenvironment
p368
aVintroduction
p369
aVshoreface
p370
aVravinement
p371
aVevolution
p372
aVtracked
p373
aVrepeat
p374
aVgeophysical
p375
aVsurveys
p376
aVfollowing
p377
aVhurricane
p378
aVike
p379
aVbolivar
p380
aVpeninsula
p381
aVtexas
p382
aV2008
p383
aV2013
p384
aVsoil
p385
aVdensity
p386
aVelasticity
p387
aVsoil
p388
aVwater
p389
aVcharacteristic
p390
aVcurve
p391
aVinverted
p392
aVfield
p393
aVbased
p394
aVseismic
p395
aVp
p396
aVwave
p397
aVvelocity
p398
aVshallow
p399
aVnearly
p400
aVsaturated
p401
aVlayered
p402
aVsoils
p403
aVairborne
p404
aVground
p405
aVgeophysical
p406
aVmapping
p407
aVcoastal
p408
aVclays
p409
aVeastern
p410
aVfriesland
p411
aVgermany
p412
aVseismic
p413
aVimaging
p414
aVhelp
p415
aVunderstand
p416
aVmanage
p417
aVwater
p418
aVquality
p419
aVcoastal
p420
aVb
p421
aVnin
p422
aVwest
p423
aVafrica
p424
a.