(lp0
VUSA
p1
aVChina
p2
aVChina
p3
aVChina
p4
aVUSA
p5
aVSaudi Arabia
p6
aVUSA
p7
aVGermany
p8
aVItaly
p9
aVAustralia
p10
aVSwitzerland
p11
aVAustralia
p12
aVAustralia
p13
aVAustralia
p14
aVAustralia
p15
aVAustralia
p16
aVAustralia
p17
aVSaudi Arabia
p18
aVAustralia
p19
aVAustralia
p20
aVAustralia
p21
aVAustralia
p22
aVSwitzerland
p23
aVAustralia
p24
aVAustralia
p25
aVAustralia
p26
aVAustralia
p27
aVAustralia
p28
aVAustralia
p29
aVSaudi Arabia
p30
aVUSA
p31
aVThailand
p32
aVUSA
p33
aVAustralia
p34
aVChina
p35
aVUSA
p36
aVChina
p37
aVUnited Arab Emirates
p38
aVUSA
p39
aVUSA
p40
aVUSA
p41
aVPortugal
p42
aVPortugal
p43
aVPortugal
p44
aVPortugal
p45
aVPortugal
p46
aVPortugal
p47
aVUSA
p48
aVUSA
p49
aVFrance
p50
aVUSA
p51
aVUSA
p52
aVUSA
p53
aVUSA
p54
aVHong Kong
p55
aVUSA
p56
aVUSA
p57
aVUSA
p58
aVSaudi Arabia
p59
aVJapan
p60
aVChina
p61
aVChina
p62
aVUSA
p63
aVUSA
p64
aVCanada
p65
aVCanada
p66
aVCanada
p67
aVCanada
p68
aVCanada
p69
aVItaly
p70
aVNorway
p71
aVNorway
p72
aVNorway
p73
aVGreece
p74
aVGreece
p75
aVUnited Arab Emirates
p76
aVBrazil
p77
aVBrazil
p78
aVBrazil
p79
aVBrazil
p80
aVBrazil
p81
aVUSA
p82
aVUSA
p83
aVCanada
p84
aVUSA
p85
aVAustralia
p86
aVAustralia
p87
aVUSA
p88
aVFrance
p89
aVSwitzerland
p90
aVSwitzerland
p91
aVUSA
p92
aVUSA
p93
aVUSA
p94
aVUSA
p95
aVUSA
p96
aVUSA
p97
aVUSA
p98
aVUSA
p99
aVCanada
p100
aVUSA
p101
aVUSA
p102
aVChina
p103
aVAustralia
p104
aVAustralia
p105
aVChina
p106
aVBrazil
p107
aVUSA
p108
aVBrazil
p109
aVSaudi Arabia
p110
aVSaudi Arabia
p111
aVSaudi Arabia
p112
aVLebanon
p113
aVChina
p114
aVUSA
p115
aVUSA
p116
aVUSA
p117
aVUSA
p118
aVUSA
p119
aVUK
p120
aVUK
p121
aVNorway
p122
aVBrazil
p123
aVBrazil
p124
aVThe People\u2019s Republic of China
p125
aVUSA
p126
aVUSA
p127
aVNetherlands
p128
aVUSA
p129
aVUSA
p130
aVFrance
p131
aVChina
p132
aVSaudi Arabia
p133
aVSaudi Arabia
p134
aVCanada
p135
aVChina
p136
aVChina
p137
aVChina
p138
aVUSA
p139
aVUSA
p140
aVUSA
p141
a.