(lp0
Vissue
p1
aVgeophysics
p2
aVvelocity
p3
aVanalysis
p4
aVusing
p5
aVsimilarity
p6
aVweighted
p7
aVsemblance
p8
aVimaging
p9
aVnear
p10
aVsurface
p11
aVheterogeneities
p12
aVscattered
p13
aVelastic
p14
aVwaves
p15
aVautomated
p16
aVdelineation
p17
aVground
p18
aVpenetrating
p19
aVradar
p20
aVfacies
p21
aVclastic
p22
aVsediments
p23
aVexample
p24
aVstratified
p25
aVglaciofluvial
p26
aVdeposits
p27
aVlaser
p28
aVscan
p29
aVgravity
p30
aVjoint
p31
aVinvestigation
p32
aVsubsurface
p33
aVcavity
p34
aVexploration
p35
aVgrotta
p36
aVgigante
p37
aVbenchmark
p38
aVfeasibility
p39
aVco2
p40
aVplume
p41
aVdetection
p42
aVusing
p43
aV4d
p44
aVseismic
p45
aVco2crc
p46
aVotway
p47
aVproject
p48
aVcase
p49
aVstudy
p50
aV1
p51
aVrock
p52
aVphysics
p53
aVmodeling
p54
aVfeasibility
p55
aVco2
p56
aVplume
p57
aVdetection
p58
aVusing
p59
aV4d
p60
aVseismic
p61
aVco2crc
p62
aVotway
p63
aVproject
p64
aVcase
p65
aVstudy
p66
aV2
p67
aVdetectability
p68
aVanalysis
p69
aVmultiscale
p70
aVmethodology
p71
aVanalysis
p72
aVvelocity
p73
aVanisotropy
p74
aVorganic
p75
aVrich
p76
aVshale
p77
aVdetermination
p78
aVeffective
p79
aVgrain
p80
aVgeometry
p81
aVelectrical
p82
aVmodeling
p83
aVsedimentary
p84
aVrocks
p85
aVinvestigation
p86
aVhigh
p87
aVfrequency
p88
aVwavefield
p89
aVcenter
p90
aVmonopole
p91
aVacoustic
p92
aVlogging
p93
aVdrilling
p94
aVtool
p95
aVprobabilistic
p96
aVformulation
p97
aVavo
p98
aVmodeling
p99
aVavo
p100
aVattribute
p101
aVbased
p102
aVfacies
p103
aVclassification
p104
aVusing
p105
aVlogs
p106
aVadsorbed
p107
aVwater
p108
aVclusters
p109
aVgarnet
p110
aVcracks
p111
aVdetected
p112
aVimpedance
p113
aVraman
p114
aVspectroscopies
p115
aVsupercooled
p116
aVwater
p117
aVphase
p118
aVtransition
p119
aVmeasurements
p120
aVelastic
p121
aVelectrical
p122
aVproperties
p123
aVunconventional
p124
aVorganic
p125
aVshale
p126
aVdifferential
p127
aVloading
p128
aVnumerical
p129
aVhomogenization
p130
aVmethod
p131
aVheterogeneous
p132
aVanisotropic
p133
aVelastic
p134
aVmedia
p135
aVbased
p136
aVmultiscale
p137
aVtheory
p138
aVsaturation
p139
aVpath
p140
aVdependency
p141
aVp
p142
aVwave
p143
aVvelocity
p144
aVattenuation
p145
aVsandstone
p146
aVsaturated
p147
aVco2
p148
aVbrine
p149
aVrevealed
p150
aVsimultaneous
p151
aVmeasurements
p152
aVwaveforms
p153
aVx
p154
aVray
p155
aVcomputed
p156
aVtomography
p157
aVimages
p158
aVparallel
p159
aVfinite
p160
aVelement
p161
aVtime
p162
aVdomain
p163
aVmethod
p164
aVtransient
p165
aVelectromagnetic
p166
aVsimulation
p167
aVsmoke
p168
aVrings
p169
aVproduced
p170
aVloop
p171
aVburied
p172
aVconductive
p173
aVhalf
p174
aVspace
p175
aVcombining
p176
aVspatial
p177
aVcomponents
p178
aVhilbert
p179
aVtransforms
p180
aVinterpret
p181
aVground
p182
aVtime
p183
aVdomain
p184
aVelectromagnetic
p185
aVdata
p186
aVmultiple
p187
aVtransmitter
p188
aVreceiver
p189
aVelectromagnetic
p190
aVimproved
p191
aVtarget
p192
aVdetection
p193
aVestimation
p194
aVsurface
p195
aVwave
p196
aVgroup
p197
aVvelocity
p198
aVusing
p199
aVslant
p200
aVstack
p201
aVgeneralized
p202
aVtransform
p203
aVdomain
p204
aVjoint
p205
aVinversion
p206
aVseismic
p207
aVelectric
p208
aVdata
p209
aVapplied
p210
aV2d
p211
aVmedia
p212
aVgeophysical
p213
aVinvestigation
p214
aVdetection
p215
aVliquefaction
p216
aVphenomena
p217
aVarchaeological
p218
aVsite
p219
aVlechaion
p220
aVgreece
p221
aVefficient
p222
aVgravity
p223
aVinversion
p224
aVdiscontinuous
p225
aVbasement
p226
aVrelief
p227
aVcomparison
p228
aVairborne
p229
aVgravity
p230
aVprocessing
p231
aVresults
p232
aVgravpro
p233
aVnewton
p234
aVsoftware
p235
aVpackages
p236
aVmultidomain
p237
aVpetrophysically
p238
aVconstrained
p239
aVinversion
p240
aVgeology
p241
aVdifferentiation
p242
aVusing
p243
aVguided
p244
aVfuzzy
p245
aVc
p246
aVmeans
p247
aVclustering
p248
aVcomparison
p249
aVradiated
p250
aVenergy
p251
aVdiamond
p252
aVimpregnated
p253
aVcoring
p254
aVreverse
p255
aVcirculation
p256
aVpercussion
p257
aVdrilling
p258
aVmethods
p259
aVhard
p260
aVrock
p261
aVenvironments
p262
aVfeasibility
p263
aVinversion
p264
aVsingle
p265
aVmicroseismic
p266
aVdata
p267
aVmoment
p268
aVtensor
p269
aVnoise
p270
aVbased
p271
aVmonitoring
p272
aVimaging
p273
aVaseismic
p274
aVtransient
p275
aVdeformation
p276
aVinduced
p277
aV2006
p278
aVbasel
p279
aVreservoir
p280
aVstimulation
p281
aVstrain
p282
aVamplitude
p283
aVdependence
p284
aVshear
p285
aVmodulus
p286
aVheavy
p287
aVoils
p288
aVrheometer
p289
aVversus
p290
aVtension
p291
aVcompression
p292
aVtechnique
p293
aVeffect
p294
aVmicrite
p295
aVcontent
p296
aVacoustic
p297
aVvelocity
p298
aVcarbonate
p299
aVrocks
p300
aVbayesian
p301
aVinversion
p302
aVpressure
p303
aVdiffusivity
p304
aVmicroseismicity
p305
aVlow
p306
aVfrequency
p307
aVreflection
p308
aVdata
p309
aVaugmentation
p310
aVinpainting
p311
aVmethod
p312
aV1d
p313
aVacoustic
p314
aVmedia
p315
aVelastic
p316
aVwaveform
p317
aVinversion
p318
aVusing
p319
aVsecond
p320
aVgeneration
p321
aVwavelet
p322
aVadaptive
p323
aVoperator
p324
aVlength
p325
aVscheme
p326
aVcooperative
p327
aVjoint
p328
aVinversion
p329
aV3d
p330
aVseismic
p331
aVmagnetotelluric
p332
aVdata
p333
aVapplication
p334
aVmineral
p335
aVprovince
p336
aVcorrelation
p337
aVbased
p338
aVreflection
p339
aVwaveform
p340
aVinversion
p341
aVtime
p342
aVdomain
p343
aVmultiscale
p344
aVwaveform
p345
aVinversion
p346
aVusing
p347
aVrapid
p348
aVexpansion
p349
aVmethod
p350
aVefficient
p351
aVstep
p352
aVlength
p353
aVestimation
p354
aVshot
p355
aVangle
p356
aVdomain
p357
aVwave
p358
aVequation
p359
aVtraveltime
p360
aVinversion
p361
aVreflection
p362
aVdata
p363
aVsynthetic
p364
aVfield
p365
aVdata
p366
aVexamples
p367
aVpossibilities
p368
aVsquares
p369
aVmigration
p370
aVinternally
p371
aVscattered
p372
aVseismic
p373
aVenergy
p374
aVefficient
p375
aVsymplectic
p376
aVreverse
p377
aVtime
p378
aVmigration
p379
aVmethod
p380
aVusing
p381
aVlocal
p382
aVnearly
p383
aVanalytic
p384
aVdiscrete
p385
aVoperator
p386
aVacoustic
p387
aVtransversely
p388
aVisotropic
p389
aVmedia
p390
aVvertical
p391
aVsymmetry
p392
aVaxis
p393
aViterative
p394
aVestimation
p395
aVreflectivity
p396
aVimage
p397
aVtexture
p398
aVsquares
p399
aVmigration
p400
aVempirical
p401
aVbayes
p402
aVapproach
p403
aVscalar
p404
aVimaging
p405
aVcondition
p406
aVelastic
p407
aVreverse
p408
aVtime
p409
aVmigration
p410
aVvector
p411
aVacoustic
p412
aVreverse
p413
aVtime
p414
aVmigration
p415
aVvolve
p416
aVocean
p417
aVcable
p418
aVdata
p419
aVset
p420
aVdecomposed
p421
aVwavefields
p422
aVprestack
p423
aVtime
p424
aVmigration
p425
aVvelocity
p426
aVanalysis
p427
aVusing
p428
aVremigration
p429
aVtrajectories
p430
aVstaggered
p431
aVdiscontinuous
p432
aVgalerkin
p433
aVmethod
p434
aVsimulation
p435
aVseismic
p436
aVwaves
p437
aVsurface
p438
aVtopography
p439
aVseismic
p440
aVmodeling
p441
aVradial
p442
aVbasis
p443
aVfunction
p444
aVgenerated
p445
aVfinite
p446
aVdifferences
p447
aVcomparison
p448
aValgorithms
p449
aVisotropic
p450
aVelastic
p451
aVp
p452
aVvector
p453
aVdecomposition
p454
aVvalidity
p455
aVacoustic
p456
aVapproximation
p457
aVelastic
p458
aVwaves
p459
aVheterogeneous
p460
aVmedia
p461
aVdiscontinuous
p462
aVcollocated
p463
aVgrid
p464
aVimplementation
p465
aVhigh
p466
aVorder
p467
aVfinite
p468
aVdifference
p469
aVmodeling
p470
aVshot
p471
aVangle
p472
aVdomain
p473
aVwave
p474
aVequation
p475
aVtraveltime
p476
aVinversion
p477
aVreflection
p478
aVdata
p479
aVtheory
p480
aVseparation
p481
aVreconstruction
p482
aVsimultaneous
p483
aVsource
p484
aVdata
p485
aViterative
p486
aVrank
p487
aVreduction
p488
aVstudy
p489
aVstationarity
p490
aVgaussianity
p491
aVbackground
p492
aVnoise
p493
aVland
p494
aVseismic
p495
aVprospecting
p496
aV5d
p497
aVseismic
p498
aVdata
p499
aVcompletion
p500
aVdenoising
p501
aVusing
p502
aVnovel
p503
aVclass
p504
aVtensor
p505
aVdecompositions
p506
a.