(lp0
Vn
p1
aVh
p2
aVr
p3
aVc
p4
aVl
p5
aVe
p6
ag2
ag6
aVe
p7
ag3
aVf
p8
aVg
p9
ag6
aVp
p10
ag2
ag4
ag10
ag3
aVv
p11
ag6
ag1
ag11
ag6
ag3
ag11
ag6
aVw
p12
ag8
ag5
ag5
ag6
ag4
ag2
ag1
ag4
ag5
ag3
ag4
ag5
ag6
ag1
ag2
aVu
p13
ag6
ag8
ag2
ag6
aVj
p14
ag13
ag3
ag1
ag5
aVw
p15
ag6
aVg
p16
ag2
ag6
ag6
aVb
p17
ag5
ag1
ag4
ag6
ag4
ag1
ag17
ag6
ag13
ag6
ag8
ag3
ag10
ag3
ag11
ag1
ag16
ag2
ag6
ag10
ag6
ag3
ag8
ag3
ag1
ag4
ag6
ag8
ag3
ag1
ag5
ag6
ag17
ag5
ag1
ag4
ag6
ag8
ag3
ag10
ag6
ag4
ag8
ag4
ag6
aVw
p18
ag6
ag2
ag11
ag6
ag6
ag11
ag6
ag5
ag10
ag6
ag1
ag11
ag6
ag5
ag10
ag10
ag3
ag4
ag2
ag8
ag3
ag10
ag3
ag6
ag4
aVk
p19
ag11
ag6
ag5
ag4
ag1
ag5
ag13
ag1
ag16
ag12
ag6
ag16
ag2
ag6
ag6
ag17
ag5
ag1
ag4
ag6
ag2
ag6
ag1
ag11
ag6
ag5
ag4
ag6
ag8
ag3
ag8
ag8
ag6
ag3
ag6
ag1
ag12
ag6
ag16
ag2
ag1
ag16
ag4
ag3
ag6
ag3
ag1
ag12
ag2
ag4
ag2
ag2
ag6
ag5
ag4
ag5
ag5
ag3
ag17
ag6
ag12
ag6
ag6
ag1
ag6
ag4
ag2
ag3
ag4
ag6
ag1
ag3
ag6
ag8
ag6
ag3
ag6
ag1
ag4
ag6
ag3
ag4
ag6
ag13
ag6
ag1
ag2
ag6
ag1
ag6
ag2
ag1
ag5
ag12
ag5
ag3
ag4
ag3
ag3
ag6
ag10
ag1
ag6
ag1
ag6
ag10
ag1
ag3
ag10
ag1
ag1
ag4
ag1
ag16
ag1
ag4
ag3
ag3
ag6
ag4
ag11
ag6
ag13
ag12
ag2
ag4
ag2
ag2
ag13
ag5
ag17
ag6
ag16
ag11
ag6
ag1
ag5
ag5
ag12
ag6
ag16
ag2
ag1
ag2
ag6
ag2
ag6
ag3
ag2
ag1
ag2
ag16
ag2
ag5
ag3
ag4
ag3
ag3
ag6
ag10
ag1
ag6
ag10
ag1
ag1
ag4
ag1
ag16
ag4
ag3
ag3
ag6
ag4
ag11
ag6
ag13
ag2
ag2
ag13
ag5
ag17
ag6
ag16
ag11
ag6
ag1
ag2
ag16
ag2
ag12
ag6
ag16
ag2
ag13
ag3
ag10
ag10
ag3
ag4
ag2
ag4
ag13
ag5
ag5
ag17
ag6
ag6
ag8
ag8
ag6
ag4
ag11
ag6
ag5
ag13
ag6
ag8
ag3
ag1
ag5
aVz
p20
ag1
ag16
aVv
p21
ag1
ag5
ag6
ag12
ag2
ag1
ag4
ag3
ag6
ag6
ag3
ag6
ag5
ag13
ag1
ag4
ag10
ag3
ag6
ag12
ag2
aVb
p22
ag6
ag17
ag5
ag1
ag4
ag6
ag1
ag2
ag6
ag4
ag1
ag8
ag6
ag5
ag4
ag1
ag10
ag1
ag16
ag2
ag6
ag3
ag6
ag1
ag3
ag6
ag2
ag16
ag2
ag6
ag3
ag3
ag6
ag5
ag13
ag1
ag13
ag1
ag16
ag2
ag6
ag10
ag10
ag3
ag4
ag2
ag12
ag6
ag6
ag11
ag6
ag5
ag10
ag6
ag10
ag10
ag5
ag4
ag1
ag8
ag2
ag6
ag10
ag3
ag10
ag6
ag6
ag2
ag1
ag10
ag3
ag6
ag4
ag19
ag6
ag8
ag13
ag3
ag2
ag6
ag3
ag4
ag1
ag8
ag3
ag6
ag2
ag2
ag6
ag4
ag19
ag6
ag13
ag1
ag16
ag2
ag6
ag5
ag3
ag12
ag6
ag16
ag2
ag6
ag6
ag17
ag5
ag1
ag4
ag6
ag4
ag13
ag5
ag17
ag1
ag17
ag6
ag6
ag3
ag6
ag1
ag6
ag3
ag16
ag8
ag4
ag13
ag6
ag6
ag11
ag6
ag1
aVw
p23
ag6
ag2
ag11
ag6
ag6
ag11
ag6
ag5
ag10
ag6
ag1
ag6
ag5
ag4
ag3
ag6
ag11
ag6
ag3
ag6
ag6
ag16
ag3
ag1
aVr
p24
ag10
ag10
ag3
ag4
ag2
ag8
ag3
ag16
ag1
ag16
ag1
ag6
ag3
ag13
ag3
ag8
ag4
ag6
ag2
ag6
ag6
ag3
ag16
ag6
ag1
ag6
ag6
ag13
ag4
ag2
ag19
ag3
ag8
ag6
ag13
ag3
ag6
ag13
ag1
ag16
ag4
ag6
ag3
ag6
ag12
ag11
ag6
ag6
ag16
ag17
aVp
p25
ag1
ag13
ag3
ag8
ag4
ag6
ag12
ag11
ag6
aVk
p26
ag1
ag12
ag5
ag6
ag16
ag6
ag8
ag5
ag4
ag1
ag1
ag3
ag6
ag1
ag16
ag2
ag8
ag2
ag6
ag4
ag6
ag3
ag6
ag3
ag2
ag6
ag5
ag10
ag1
ag6
ag4
ag16
ag1
ag16
ag13
ag3
ag11
ag6
ag10
ag5
ag1
ag1
ag1
ag16
ag1
ag16
ag6
ag6
ag4
ag2
ag1
ag4
ag5
ag6
ag4
ag2
ag3
ag4
ag6
ag3
ag20
ag1
ag6
ag5
ag6
ag4
ag12
ag11
ag6
ag10
ag3
ag10
ag16
ag1
ag8
ag3
aVr
p27
ag12
ag6
ag13
ag6
ag1
ag6
ag5
ag4
ag16
ag16
ag6
ag3
ag6
ag16
ag3
ag8
ag1
ag6
ag8
ag8
ag6
ag3
ag6
ag1
ag4
ag6
ag4
ag2
ag6
ag6
ag2
ag6
ag4
ag6
ag3
ag6
ag17
ag13
ag3
ag8
ag4
ag6
ag12
ag11
ag6
ag10
ag3
ag11
ag6
ag10
ag5
ag5
ag5
ag13
ag1
ag1
ag1
ag12
ag11
ag6
ag1
ag13
ag17
ag6
ag3
ag4
ag11
ag6
ag3
ag16
ag6
ag8
ag2
ag6
ag1
ag6
ag3
ag13
ag3
ag8
ag4
ag6
ag2
ag6
ag3
ag11
ag6
ag5
ag2
ag3
ag20
ag1
ag5
ag5
ag5
ag1
ag16
ag2
ag6
ag8
ag3
ag6
ag6
ag13
ag3
ag8
ag4
ag6
aVw
p28
ag6
ag6
ag6
ag2
ag6
ag6
ag5
ag4
aVr
p29
ag10
ag10
ag3
ag4
ag2
ag1
ag1
ag2
ag6
ag4
ag13
ag5
ag6
ag13
ag1
ag16
ag8
ag1
ag6
ag8
ag8
ag6
ag3
ag6
ag1
ag4
ag6
ag5
ag11
ag6
ag3
ag1
ag8
ag13
ag1
ag17
ag6
ag3
ag17
ag13
aVg
p30
ag3
ag13
ag1
ag10
ag6
ag1
ag6
ag3
ag1
ag16
ag3
ag3
aVg
p31
aVp
p32
aVr
p33
ag1
ag6
ag17
ag5
ag2
ag6
ag16
ag6
ag10
ag2
ag4
ag5
ag6
ag2
ag6
aVx
p34
ag10
ag5
ag3
ag6
ag1
ag6
ag3
ag13
ag3
ag8
ag4
ag6
ag6
ag6
ag1
ag3
ag6
ag1
ag11
ag3
ag1
ag6
ag1
ag1
ag6
ag3
ag10
ag3
ag6
ag1
ag16
aVg
p35
aVp
p36
aVr
p37
ag16
ag6
ag5
ag3
ag16
ag6
ag5
ag17
ag6
ag1
ag1
ag13
ag5
ag10
ag3
ag4
ag6
ag13
ag3
ag6
ag8
ag5
ag5
ag12
ag1
ag16
ag4
ag1
ag4
ag6
ag10
ag19
ag1
ag12
ag1
aVg
p38
aVp
p39
aVr
p40
ag8
ag4
ag6
ag1
ag5
aVw
p41
ag6
ag2
ag11
ag6
ag6
ag11
ag6
ag5
ag10
ag6
ag1
ag11
ag6
ag5
ag3
ag6
ag16
ag1
ag16
ag13
ag2
aVg
p42
aVp
p43
aVr
p44
ag8
ag4
ag6
ag1
ag5
ag3
ag16
ag6
ag5
ag13
ag6
ag1
ag3
ag6
ag17
ag14
ag6
ag4
ag11
ag6
ag1
ag1
ag6
ag3
aVf
p45
ag3
ag12
ag6
ag4
ag5
ag4
ag13
ag5
ag6
aV1
p46
aV3
p47
ag6
ag34
ag13
ag3
ag5
ag3
ag17
ag13
ag6
aVq
p48
ag13
ag1
ag8
aVg
p49
aVp
p50
aVr
p51
ag3
ag6
ag8
ag5
ag6
ag4
ag1
ag4
ag2
ag3
ag4
ag6
ag3
ag4
ag2
ag6
ag1
ag2
ag17
ag6
ag3
ag6
ag13
ag4
ag6
ag13
ag1
ag16
ag10
ag3
ag1
ag4
ag10
ag5
ag4
ag10
ag1
ag6
ag1
ag1
ag5
aVf
p52
ag1
ag5
ag5
ag12
ag6
ag16
ag6
ag2
ag6
ag1
ag1
ag16
ag10
ag3
ag1
ag4
ag10
ag5
ag4
ag10
ag1
ag6
ag1
ag13
ag1
ag16
ag4
ag10
ag6
ag16
ag1
ag16
ag1
ag4
ag5
ag8
ag2
ag6
ag13
ag1
ag16
ag1
ag3
ag4
ag5
ag13
ag6
ag3
ag1
ag16
ag6
ag2
ag2
ag6
ag10
ag6
ag1
ag5
ag8
ag2
ag12
ag3
ag19
ag8
ag5
ag12
ag6
ag11
ag5
ag13
ag6
ag13
ag1
ag16
aV2
p53
aVg
p54
aVp
p55
aVr
p56
ag8
ag6
ag5
ag6
ag34
ag10
ag5
ag6
ag4
ag5
ag5
ag6
ag4
ag6
ag4
ag3
ag3
ag8
ag6
ag16
ag5
ag4
ag8
ag5
ag13
ag11
ag5
ag6
ag10
ag13
ag3
ag3
ag6
ag13
ag5
ag6
ag1
ag3
ag6
ag2
ag2
ag6
ag6
ag3
ag11
ag6
ag8
ag4
ag6
ag16
ag6
ag3
ag6
ag12
ag6
ag5
ag5
ag4
ag3
ag3
ag6
ag5
ag6
ag12
ag2
ag2
ag6
ag4
ag10
ag1
ag1
ag2
ag6
ag10
ag3
ag8
ag2
ag6
ag6
ag6
ag1
ag19
ag1
ag12
ag1
ag8
ag3
ag1
ag6
ag10
ag6
ag1
ag6
ag1
ag17
ag3
ag6
ag2
ag5
ag6
ag5
ag16
ag13
ag3
ag1
ag5
ag3
ag6
ag16
ag6
ag6
ag1
ag10
ag3
ag11
ag6
ag2
ag6
ag1
ag6
ag3
ag10
ag3
ag6
ag17
ag5
ag8
aVg
p57
aVp
p58
aVr
p59
ag1
ag12
ag5
ag5
ag2
ag6
ag5
ag10
ag1
aVw
p60
ag6
ag2
ag11
ag6
ag13
ag6
ag17
ag16
ag19
ag3
ag4
ag4
ag11
ag6
aVg
p61
ag3
aVg
p62
ag16
ag1
ag6
ag1
ag1
ag3
ag2
ag6
ag3
ag1
ag5
ag13
ag1
ag16
ag1
ag1
ag1
ag11
ag11
ag6
ag4
ag17
ag1
ag1
ag8
ag5
ag6
ag3
ag4
ag1
ag1
ag16
ag3
ag11
aVw
p63
ag6
ag6
ag8
ag3
ag12
ag3
ag6
ag5
ag2
ag6
ag16
ag3
ag11
ag1
ag5
ag13
ag6
ag2
ag6
ag4
ag11
ag11
ag6
ag3
ag8
ag4
ag10
ag17
ag5
ag12
ag2
ag2
ag6
aVb
p64
ag13
ag16
ag13
ag6
ag3
ag8
ag6
ag5
ag1
ag6
ag1
ag8
ag2
ag6
ag6
ag11
ag6
ag1
ag13
ag5
ag10
ag3
ag6
ag6
ag1
ag4
ag6
ag8
ag2
ag6
ag3
ag13
ag3
ag4
ag6
ag8
ag16
ag3
ag11
ag1
ag5
ag6
ag6
ag1
ag11
ag13
ag12
ag10
ag6
ag3
ag8
ag3
ag6
ag10
ag3
ag6
ag5
ag1
ag3
ag5
ag6
ag2
ag6
ag1
ag13
ag20
ag6
ag8
ag17
ag6
ag2
ag4
ag13
ag5
ag17
ag6
ag6
ag6
ag4
ag6
ag17
ag2
ag6
ag16
ag3
ag11
ag13
ag3
ag11
ag6
ag2
ag6
ag47
ag6
ag1
ag6
ag5
ag8
ag2
ag6
aVg
p65
ag3
aVg
p66
ag16
ag1
ag6
ag12
ag4
ag1
ag3
ag13
ag4
ag6
ag13
ag1
ag16
ag16
ag6
ag6
ag3
ag4
ag4
ag1
ag3
ag1
ag2
ag6
ag5
ag6
ag3
ag4
ag1
ag6
ag12
ag2
ag4
ag2
ag10
ag10
ag6
ag2
ag6
ag1
ag6
ag3
ag1
ag5
ag3
ag10
ag2
ag5
ag16
ag6
ag8
ag2
ag6
ag4
ag11
ag6
ag1
ag6
ag1
ag6
ag13
ag3
ag6
ag6
ag1
ag1
ag4
ag5
ag5
ag6
ag4
ag6
ag3
ag4
ag19
ag10
ag5
ag6
ag2
ag6
ag5
ag6
ag3
ag10
ag1
ag4
ag5
ag13
ag12
ag3
ag6
ag13
ag4
ag6
ag1
ag6
ag1
ag8
ag5
ag6
ag3
ag6
ag8
ag3
ag2
ag6
ag13
ag5
ag6
ag3
ag1
ag13
ag17
ag11
ag6
ag1
ag12
ag13
ag3
ag8
ag4
ag6
ag3
ag6
ag10
ag3
ag6
ag6
ag1
ag1
ag16
ag2
ag6
ag11
ag13
ag5
ag1
ag2
ag6
ag8
ag5
ag3
ag8
ag2
ag6
ag4
ag11
ag6
ag4
ag3
ag3
ag6
ag4
ag5
ag6
ag8
ag1
ag6
ag2
ag6
ag10
ag3
ag6
ag5
ag2
ag6
ag1
ag6
ag1
ag6
ag1
ag11
ag5
ag13
ag6
ag17
ag1
ag6
ag8
ag3
ag5
ag17
ag3
ag3
ag6
ag13
ag3
ag6
ag6
ag1
ag12
ag16
ag1
ag6
ag2
ag6
ag10
ag3
aVw
p67
ag6
ag4
ag10
ag13
ag6
ag2
ag6
ag16
ag3
ag11
ag6
ag8
ag8
ag6
ag4
ag8
ag2
ag6
ag6
ag5
ag19
ag6
ag17
ag14
ag6
ag4
ag11
ag6
ag8
ag16
ag6
ag53
ag8
ag2
ag6
aVc
p68
ag10
ag6
ag3
ag11
ag6
aVr
p69
ag6
ag6
ag3
ag4
ag2
aVc
p70
ag6
ag1
ag3
ag6
ag8
ag3
aVg
p71
ag3
ag6
ag6
ag1
ag2
ag13
ag6
aVg
p72
ag6
ag4
ag2
ag1
ag5
ag16
ag6
ag12
aVp
p73
ag3
ag14
ag6
ag4
ag6
ag11
ag5
ag13
ag6
ag2
ag6
ag6
ag4
ag6
ag6
ag4
ag1
ag5
ag8
ag16
ag3
ag6
ag6
ag1
ag2
ag13
ag6
ag16
ag1
ag14
ag6
ag4
ag6
ag1
ag5
ag1
ag6
ag48
ag13
ag8
ag6
ag3
aVf
p74
ag3
ag2
ag10
ag13
ag3
ag10
ag6
ag1
ag14
ag6
ag4
ag1
ag8
ag5
ag5
ag13
ag1
ag8
aVc
p75
ag53
ag3
ag4
ag2
ag16
ag1
ag2
ag6
aVp
p76
ag3
ag6
aVf
p77
ag3
ag1
ag5
ag1
ag6
ag48
ag13
ag8
ag6
ag3
ag5
ag4
ag6
ag6
ag10
ag2
ag8
ag10
ag10
ag3
ag34
ag6
ag5
ag46
aV5
p78
ag19
ag10
ag5
ag1
ag1
ag6
aVb
p79
ag6
ag8
ag3
ag6
ag2
ag6
ag1
ag14
ag6
ag4
ag1
ag6
ag34
ag10
ag6
ag3
ag6
ag1
ag13
ag1
ag6
ag3
ag19
ag6
ag1
ag12
ag6
ag6
ag6
ag2
ag6
ag6
ag6
ag4
ag17
ag5
ag8
ag1
ag14
ag6
ag4
ag6
ag16
ag12
ag2
ag6
ag4
ag6
ag2
ag1
ag6
ag5
ag1
ag16
ag13
ag19
ag6
ag17
ag14
ag6
ag4
ag11
ag6
ag8
ag2
ag13
ag12
ag6
ag5
ag4
ag2
ag1
ag16
ag6
ag1
ag6
ag5
ag4
ag10
ag3
ag10
ag6
ag3
ag6
ag4
ag13
ag6
ag17
aVc
p80
ag53
ag13
ag3
ag1
ag6
ag8
ag8
ag6
ag4
ag13
ag1
ag16
ag10
ag3
ag6
ag4
ag1
ag8
ag3
ag6
ag6
ag3
ag11
ag3
ag13
ag5
ag1
ag2
ag6
ag1
ag12
ag6
ag6
ag17
ag5
ag2
ag6
ag1
ag6
ag5
ag4
ag10
ag3
ag10
ag6
ag3
ag10
ag3
ag3
ag6
ag5
ag1
ag5
ag1
ag19
ag2
ag6
ag3
ag6
ag6
ag3
ag11
ag3
ag8
ag5
ag12
ag6
ag5
ag1
ag2
ag6
ag6
ag5
ag4
ag10
ag3
ag10
ag6
ag3
ag6
ag8
ag2
ag6
ag13
ag17
ag13
ag3
ag8
ag4
ag6
aVp
p81
ag3
ag6
ag4
ag1
ag16
ag4
ag2
ag1
ag16
ag6
ag1
ag6
ag5
ag4
ag10
ag3
ag10
ag6
ag3
ag6
ag3
ag6
ag48
ag13
ag3
ag6
ag13
ag17
ag5
ag6
ag11
ag6
ag5
ag4
ag13
ag3
ag1
ag3
ag6
ag5
ag1
ag4
ag2
ag6
ag1
ag10
ag10
ag3
ag10
ag3
ag6
ag11
ag6
ag5
ag4
ag13
ag3
ag1
ag3
ag6
ag5
ag1
ag12
ag6
ag1
ag5
ag20
ag6
ag2
ag6
ag6
ag8
ag8
ag6
ag4
ag8
ag8
ag5
ag13
ag3
ag17
ag13
ag1
ag1
ag2
ag6
ag6
ag5
ag10
ag6
ag6
ag4
ag3
ag19
ag6
ag17
ag14
ag6
ag4
ag11
ag6
ag8
ag16
ag6
ag53
ag8
ag2
ag6
aVc
p82
ag10
ag6
ag3
ag11
ag6
aVr
p83
ag6
ag6
ag3
ag4
ag2
aVc
p84
ag6
ag1
ag3
ag6
ag8
ag3
aVg
p85
ag3
ag6
ag6
ag1
ag2
ag13
ag6
aVg
p86
ag6
ag4
ag2
ag1
ag5
ag16
ag6
aVc
p87
ag53
aVc
p88
aVr
p89
aVc
p90
ag12
aVp
p91
ag3
ag14
ag6
ag4
ag6
ag34
ag10
ag5
ag3
ag6
ag2
ag6
ag17
ag5
ag8
ag2
ag6
ag6
ag4
ag3
ag6
ag8
ag5
ag6
ag4
ag1
ag6
ag2
ag6
ag6
ag4
ag1
ag1
ag3
ag1
ag14
ag6
ag4
ag1
ag8
ag5
ag5
ag13
ag1
ag8
ag16
ag3
ag6
ag6
ag1
ag2
ag13
ag6
ag16
ag1
ag5
ag1
ag6
ag8
ag3
ag1
ag6
ag11
ag6
ag5
ag10
ag6
ag1
ag8
ag6
ag4
ag1
ag3
ag1
ag16
ag10
ag3
ag16
ag3
ag3
ag6
ag48
ag13
ag3
ag6
ag1
ag13
ag1
ag6
ag3
ag1
ag1
ag16
ag8
ag6
ag34
ag10
ag6
ag4
ag6
ag6
ag5
ag10
ag6
aVl
p92
ag6
ag4
ag16
ag1
ag5
aVh
p93
ag6
ag1
ag4
ag6
ag17
ag6
ag8
ag3
ag6
ag13
ag4
ag2
ag1
ag1
ag14
ag6
ag4
ag1
ag6
ag34
ag10
ag6
ag3
ag6
ag1
ag13
ag1
ag6
ag3
ag19
ag6
ag1
ag12
ag6
ag6
ag6
ag2
ag6
ag8
ag6
ag17
ag5
ag8
ag6
ag4
ag1
ag3
ag1
ag16
ag1
ag6
ag5
ag1
ag16
ag13
aVc
p94
ag1
ag6
ag3
ag1
ag16
ag3
ag6
ag5
ag4
ag16
ag3
ag17
ag13
ag1
ag1
ag8
ag6
ag3
ag3
ag6
ag8
ag3
ag3
ag6
ag6
ag3
ag11
ag3
ag13
ag5
ag1
ag12
ag6
ag1
ag5
ag20
ag6
ag2
ag6
ag1
ag8
ag5
ag13
ag6
ag1
ag4
ag6
ag8
ag11
ag3
ag13
ag8
ag4
ag3
ag1
ag14
ag6
ag4
ag1
ag11
ag5
ag13
ag6
ag6
ag8
ag6
ag3
ag1
ag14
ag6
ag4
ag1
ag1
ag3
ag6
ag5
ag20
ag1
ag8
ag2
ag6
ag3
ag6
ag6
ag3
ag11
ag3
ag8
ag5
ag12
ag6
ag5
ag1
ag2
ag6
aVl
p95
ag6
ag4
ag16
ag1
ag5
aVh
p96
ag12
ag6
ag11
ag6
ag3
ag2
ag6
ag10
ag10
ag5
ag4
ag17
ag5
ag8
ag6
ag4
ag1
ag3
ag1
ag16
ag6
ag10
ag6
ag1
ag1
ag1
ag5
ag1
ag2
ag6
ag3
ag6
ag1
ag16
ag2
ag8
ag2
ag6
aVl
p97
ag6
ag4
ag16
ag1
ag5
ag17
ag13
ag5
ag1
ag2
ag6
ag1
ag6
ag5
ag6
ag11
ag6
ag5
ag8
ag2
ag6
ag6
ag4
aVh
p98
ag6
ag1
ag4
ag6
ag6
ag6
ag2
ag6
ag6
ag6
ag4
ag17
ag5
ag8
ag16
ag1
ag2
ag6
ag13
ag17
ag13
ag3
ag8
ag4
ag6
ag12
ag6
ag2
ag11
ag6
ag6
ag11
ag6
ag5
ag10
ag6
ag12
ag3
ag19
ag8
ag5
ag12
ag2
ag1
ag6
ag16
ag3
ag6
aVc
p99
ag2
ag1
ag16
ag6
ag1
ag2
ag6
ag13
ag3
ag4
ag6
ag8
ag11
ag6
ag5
ag4
ag1
ag3
ag10
ag1
ag2
ag6
ag3
ag3
ag6
ag5
ag11
ag6
ag16
ag1
ag13
ag6
ag13
ag3
ag1
ag10
ag3
ag16
ag3
ag6
ag6
ag1
ag3
ag16
ag1
ag4
ag3
ag4
ag2
ag2
ag5
ag6
ag3
ag6
ag5
ag5
ag1
ag4
ag10
ag5
ag6
ag6
ag5
ag4
ag2
ag3
ag4
ag6
ag3
ag20
ag6
ag1
ag2
ag6
ag3
ag4
ag19
ag10
ag2
ag4
ag5
ag6
ag3
ag13
ag3
ag6
ag3
ag6
ag13
ag5
ag8
ag2
ag6
ag1
ag4
ag3
ag6
ag1
ag16
ag10
ag3
ag1
ag4
ag6
ag8
ag3
ag16
ag1
ag4
ag3
ag4
ag2
ag2
ag5
ag6
ag13
ag1
ag4
ag1
ag11
ag6
ag1
ag1
ag5
ag3
ag6
ag6
ag3
ag11
ag3
ag3
ag6
ag2
ag3
ag13
ag16
ag2
ag13
ag1
ag6
ag3
ag1
ag1
ag16
ag8
ag2
ag6
ag6
ag5
ag4
ag17
ag6
ag2
ag11
ag3
ag8
ag2
ag5
ag6
ag1
ag6
ag6
ag6
aVw
p100
ag6
ag2
ag11
ag6
ag8
ag3
ag13
ag5
ag6
ag4
ag10
ag3
ag6
ag2
ag6
ag1
ag11
ag6
ag13
ag5
ag10
ag2
ag4
ag13
ag5
ag4
ag5
ag6
ag6
ag34
ag10
ag6
ag3
ag6
ag1
ag5
ag6
ag2
ag5
ag16
ag8
ag3
ag2
ag6
ag4
ag2
ag3
ag4
ag6
ag3
ag20
ag1
ag8
ag2
ag6
ag1
ag3
ag1
ag4
ag1
ag5
ag2
ag8
ag4
ag1
ag1
ag6
ag34
ag3
ag1
ag4
ag10
ag5
ag2
ag8
ag4
ag1
ag8
ag4
ag3
ag4
ag1
ag3
ag17
ag13
ag1
ag16
ag11
ag6
ag5
ag4
ag1
ag3
ag10
ag10
ag10
ag5
ag4
ag1
ag8
ag2
ag6
ag2
ag5
ag16
ag13
ag1
ag13
ag3
ag6
ag10
ag5
ag6
ag5
ag6
ag1
ag17
ag5
ag6
ag2
ag6
ag4
ag2
ag3
ag4
ag6
ag3
ag20
ag1
ag8
ag2
ag6
ag2
ag5
ag6
ag8
ag3
ag6
ag8
ag3
ag8
ag5
ag13
ag13
ag17
ag13
ag1
ag6
ag5
ag1
ag16
ag2
ag6
ag6
ag2
ag5
ag16
ag4
ag5
ag8
ag3
ag6
ag12
ag3
ag19
ag12
ag2
ag6
ag1
ag6
ag6
ag1
ag6
ag8
ag8
ag11
ag6
ag1
ag13
ag3
ag5
ag5
ag13
ag3
ag6
ag3
ag16
ag1
ag4
ag3
ag4
ag2
ag2
ag5
ag6
ag10
ag5
ag6
ag1
ag2
ag6
ag34
ag10
ag6
ag3
ag6
ag1
ag5
ag6
ag2
ag5
ag16
ag12
ag6
ag4
ag17
ag1
ag6
ag4
ag5
ag4
ag5
ag3
ag4
ag19
ag10
ag2
ag4
ag6
ag13
ag3
ag6
ag6
ag1
ag6
ag16
ag13
ag5
ag3
ag1
ag4
ag11
ag6
ag5
ag4
ag1
ag6
ag6
ag3
ag16
ag6
ag1
ag2
ag16
ag2
ag3
ag6
ag5
ag13
ag1
ag16
ag1
ag16
ag6
ag4
ag2
ag1
ag48
ag13
ag6
ag13
ag4
ag2
aVx
p101
ag3
ag8
ag8
ag3
ag4
ag4
ag13
ag3
ag6
ag6
ag5
ag6
ag4
ag3
ag4
ag5
ag6
ag5
ag1
ag16
ag8
ag6
ag6
ag1
ag3
ag3
ag4
ag19
ag4
ag3
ag13
ag4
ag5
ag8
ag3
ag2
ag6
ag1
ag6
ag3
ag10
ag3
ag6
ag1
ag8
ag6
ag5
ag6
ag4
ag3
ag4
ag5
ag13
ag3
ag11
ag6
ag1
ag13
ag19
ag6
ag1
ag4
ag4
ag13
ag1
ag2
ag6
ag16
ag6
ag6
ag3
ag4
ag1
ag8
ag3
ag1
ag8
ag2
ag6
ag3
ag4
ag19
ag16
ag3
ag1
aVw
p102
ag6
ag2
ag11
ag6
ag6
ag11
ag6
ag5
ag10
ag6
ag1
ag1
ag4
ag3
ag6
ag6
ag1
ag5
ag6
ag5
ag8
ag3
ag2
ag6
ag13
ag5
ag10
ag2
ag6
ag6
ag5
ag6
ag4
ag3
ag4
ag5
ag4
ag1
ag13
ag4
ag11
ag8
ag6
ag6
ag1
ag3
ag3
ag4
ag19
ag1
ag2
ag6
ag2
ag6
ag3
ag6
ag4
ag5
ag17
ag8
ag8
ag8
ag6
ag3
ag6
ag1
ag5
ag6
ag8
ag8
ag6
ag4
ag11
ag6
ag6
ag13
ag6
ag5
ag2
ag6
ag6
ag11
ag6
ag5
ag10
ag6
ag1
ag4
ag3
ag6
ag6
ag1
ag5
ag6
ag5
ag12
ag8
ag3
ag11
ag5
ag6
ag1
ag4
ag5
ag6
ag1
ag1
ag4
ag5
ag3
ag4
ag2
ag1
ag1
ag6
ag1
ag2
ag6
ag1
ag10
ag10
ag5
ag6
ag13
ag5
ag6
ag2
ag6
ag4
ag1
ag13
ag4
ag11
ag8
ag8
ag11
ag6
ag16
ag5
ag5
ag4
ag3
ag6
ag6
ag3
ag4
ag19
ag10
ag5
ag6
ag12
ag2
ag8
ag8
ag6
ag3
ag6
ag1
ag10
ag6
ag4
ag3
ag8
ag16
ag3
ag1
ag10
ag6
ag4
ag3
ag2
ag6
ag4
ag1
ag13
ag4
ag11
ag4
ag5
ag4
ag13
ag5
ag6
ag8
ag13
ag1
ag4
ag1
ag8
ag12
ag6
ag3
ag4
ag1
ag13
ag4
ag11
ag8
ag13
ag5
ag5
ag12
ag6
ag3
ag13
ag3
ag1
ag1
ag1
ag6
ag8
ag8
ag6
ag4
ag11
ag6
ag16
ag3
ag1
ag10
ag6
ag4
ag3
ag8
ag3
ag12
ag10
ag2
ag6
ag6
ag13
ag6
ag6
ag3
ag1
ag6
ag3
ag6
ag10
ag3
ag13
ag4
ag6
ag2
ag6
ag6
ag5
ag6
ag4
ag3
ag4
ag5
ag17
ag6
ag2
ag11
ag3
ag8
ag2
ag6
ag16
ag5
ag3
ag4
ag19
ag12
ag8
ag13
ag1
ag2
ag2
ag6
ag6
ag8
ag8
ag6
ag4
ag11
ag6
ag16
ag3
ag1
ag10
ag6
ag4
ag3
ag4
ag1
ag6
ag2
ag6
ag3
ag17
ag6
ag6
ag6
ag3
ag1
ag6
ag1
ag5
ag4
ag5
ag5
ag3
ag6
ag6
ag8
ag3
ag2
ag6
ag10
ag6
ag4
ag3
ag10
ag6
ag4
ag3
ag13
ag5
ag1
ag19
ag17
ag6
ag12
ag6
ag6
ag1
ag2
ag6
ag17
ag1
ag6
ag6
ag8
ag8
ag6
ag4
ag11
ag6
ag16
ag3
ag1
ag10
ag6
ag4
ag3
ag1
ag2
ag6
ag4
ag6
ag6
ag1
ag1
ag4
ag6
ag8
ag8
ag13
ag3
ag1
ag16
ag5
ag16
ag16
ag1
ag16
ag12
ag2
ag5
ag6
ag3
ag5
ag5
ag1
ag16
aVl
p103
aVw
p104
ag10
ag6
ag3
ag1
ag4
ag10
ag5
ag6
ag34
ag3
ag5
ag5
ag3
ag1
ag16
ag11
ag6
ag6
ag1
ag1
ag2
ag6
ag12
ag6
ag16
ag2
ag8
ag2
ag6
ag3
ag5
ag5
ag10
ag10
ag6
ag8
ag6
ag1
ag5
ag6
ag6
ag13
ag3
ag6
ag6
ag1
ag5
ag2
ag1
ag4
ag6
ag1
ag3
ag5
ag20
ag6
ag2
ag6
ag3
ag6
ag8
ag3
ag6
ag13
ag6
ag8
ag2
ag6
ag3
ag6
ag10
ag1
ag6
ag8
ag1
ag8
ag8
ag4
ag6
ag1
ag6
ag3
ag4
ag13
ag4
aVl
p105
aVw
p106
ag5
ag3
ag6
ag6
ag6
ag1
ag5
ag8
ag4
ag5
ag6
ag17
ag6
ag6
ag3
ag1
ag6
ag3
ag10
ag3
ag6
ag1
ag8
ag6
ag13
ag3
ag6
ag6
ag1
ag6
ag1
ag1
ag4
ag13
ag5
ag3
ag5
ag5
ag1
ag16
ag6
ag1
ag11
ag3
ag1
ag6
ag1
ag13
ag4
ag2
ag13
ag6
ag12
ag5
ag5
ag17
ag6
ag2
ag6
ag5
ag10
ag8
ag13
ag5
ag8
ag3
ag5
ag6
ag16
ag1
ag1
ag10
ag3
ag4
ag6
ag1
ag16
aVw
p107
ag6
ag13
ag6
ag8
ag1
ag6
ag8
ag8
ag6
ag3
ag6
ag1
ag4
ag6
ag6
ag2
ag13
ag5
ag6
ag2
ag6
ag3
ag6
ag10
ag1
ag6
ag8
ag1
ag1
ag4
ag6
ag1
ag3
ag5
ag20
ag6
ag1
ag10
ag5
ag6
ag4
ag13
ag4
aVl
p108
aVw
p109
ag5
ag2
ag16
ag2
ag8
ag3
ag6
ag48
ag13
ag6
ag1
ag4
ag46
aV0
p110
ag19
aVh
p111
ag20
aVw
p112
ag6
ag1
ag5
ag20
ag6
ag2
ag6
ag6
ag8
ag8
ag6
ag4
ag1
ag2
ag6
ag12
ag11
ag6
ag8
ag3
ag8
ag3
ag3
ag6
ag4
ag6
ag11
ag6
ag3
ag8
ag8
ag6
ag3
ag6
ag1
ag20
ag13
ag2
ag4
ag13
ag6
ag17
ag1
ag8
ag8
ag4
ag6
ag1
ag6
ag3
ag5
ag12
ag2
ag8
ag8
ag6
ag3
ag1
ag16
ag13
ag1
ag8
ag8
ag8
ag6
aVw
p113
ag6
ag13
ag6
ag11
ag6
ag5
ag4
ag6
ag6
ag17
ag5
ag1
ag4
ag6
ag1
ag10
ag6
ag3
ag1
ag1
ag5
ag6
ag2
ag2
ag6
ag5
ag10
ag13
ag13
ag1
ag6
ag3
ag1
ag2
ag6
ag6
ag1
ag2
ag6
ag12
ag11
ag6
ag8
ag3
ag8
ag8
ag6
ag3
ag6
ag1
ag20
ag13
ag2
ag3
ag6
ag4
ag6
ag11
ag6
ag3
ag8
ag3
ag8
ag8
ag6
ag3
ag6
ag1
ag5
ag8
ag8
ag6
aVw
p114
ag6
ag2
ag11
ag6
ag8
ag13
ag1
ag2
ag2
ag6
ag12
ag11
ag6
ag8
ag3
ag1
ag2
ag6
ag3
ag6
ag4
ag1
ag8
ag2
ag6
ag5
ag8
ag8
ag6
ag2
ag12
ag2
ag6
ag3
ag6
ag2
ag6
ag8
ag5
ag13
ag4
ag5
ag13
ag1
ag5
ag5
ag6
ag12
ag6
ag3
ag6
ag8
ag8
ag6
ag4
ag6
ag2
ag6
aVw
p115
ag11
ag6
ag8
ag3
aVw
p116
ag6
ag2
ag11
ag6
ag6
ag11
ag6
ag5
ag10
ag6
ag10
ag3
ag17
ag17
ag5
ag4
ag8
ag3
ag13
ag5
ag1
ag6
ag3
ag11
ag6
ag2
ag6
ag10
ag3
ag17
ag17
ag5
ag6
ag1
ag8
ag13
ag1
ag4
ag1
ag8
ag10
ag5
ag13
ag6
ag11
ag3
ag1
ag12
ag2
ag8
ag8
ag6
aVv
p117
ag3
ag17
ag13
ag6
ag16
ag11
ag6
ag1
ag2
ag6
ag3
ag17
ag13
ag1
ag8
ag6
ag5
ag4
ag10
ag3
ag10
ag6
ag3
ag6
ag1
ag2
ag6
ag4
ag1
ag6
ag34
ag8
aVv
p118
ag1
ag5
ag8
ag12
ag6
ag5
ag5
ag5
ag16
ag2
ag6
ag10
ag3
ag10
ag6
ag10
ag3
ag17
ag17
ag5
ag4
ag8
ag3
ag13
ag5
ag1
ag1
ag4
ag5
ag13
ag6
ag2
ag6
ag1
ag5
ag4
ag5
ag6
ag34
ag10
ag3
ag6
ag1
ag8
ag2
ag6
ag10
ag6
ag3
ag3
ag3
ag17
ag13
ag1
ag1
ag4
ag1
ag3
ag17
ag13
ag6
ag2
ag6
ag4
ag3
ag3
ag6
ag4
ag10
ag3
ag10
ag16
ag1
ag8
ag2
ag6
ag13
ag1
ag4
ag6
ag3
ag1
ag2
ag3
ag13
ag16
ag2
ag2
ag6
aVv
p119
ag6
ag5
aVw
p120
ag2
ag6
ag1
ag2
ag1
ag5
ag10
ag6
ag3
ag8
ag3
ag6
ag1
ag6
ag4
ag2
ag8
ag4
ag6
ag2
ag6
ag3
ag6
ag13
ag5
ag1
ag16
ag10
ag6
ag3
ag3
ag10
ag3
ag17
ag17
ag5
ag6
ag1
ag8
ag13
ag1
ag4
ag1
ag8
aVv
p121
ag3
ag17
ag13
ag6
ag4
ag1
ag1
ag6
ag17
ag2
ag6
ag6
ag5
ag4
ag3
ag17
ag13
ag6
ag1
ag2
ag6
ag13
ag1
ag6
ag3
ag5
ag1
ag16
ag5
ag16
ag8
ag4
ag6
ag4
ag5
ag8
ag4
ag1
ag4
ag1
ag17
ag6
ag13
ag6
ag1
aVb
p122
ag6
ag1
ag1
ag11
ag6
ag3
ag1
ag12
ag3
ag19
ag8
ag5
ag12
ag17
ag1
ag2
ag6
aVv
p123
ag3
ag17
ag13
ag6
ag17
ag6
ag8
ag4
ag6
ag4
ag5
ag8
ag4
ag1
ag2
ag4
ag5
ag8
ag4
ag1
ag2
ag6
ag1
ag4
ag10
ag3
ag6
ag12
ag2
ag2
ag6
ag10
ag6
ag3
ag10
ag2
ag4
ag5
ag5
ag16
ag8
ag4
ag6
ag10
ag3
ag8
ag5
ag6
ag1
ag4
ag1
ag17
ag6
ag6
ag34
ag6
ag1
ag6
ag2
ag6
ag6
ag1
ag3
ag6
ag3
ag6
ag6
ag3
ag11
ag3
ag6
ag5
ag8
ag1
ag11
ag6
ag3
ag6
ag6
ag4
ag3
ag17
ag13
ag6
ag3
ag6
ag11
ag5
ag17
ag5
ag6
aVw
p124
ag6
ag6
ag1
ag3
ag6
ag2
ag6
ag6
ag2
ag5
ag16
ag1
ag6
ag8
ag3
ag1
ag1
ag2
ag3
ag6
ag16
ag2
ag1
ag16
ag3
ag6
ag6
ag3
ag11
ag3
ag1
ag6
ag34
ag2
ag6
ag1
ag2
ag6
ag4
ag17
ag1
ag1
ag8
ag6
ag5
ag6
ag4
ag3
ag4
ag10
ag6
ag1
ag4
ag6
ag1
aVr
p125
ag1
ag10
ag6
ag4
ag3
ag4
ag10
ag6
ag2
ag6
ag1
ag5
ag8
ag2
ag6
ag13
ag10
ag6
ag3
ag4
ag5
ag6
ag12
ag6
ag3
ag10
ag2
ag6
ag3
ag1
ag1
ag6
ag1
ag17
ag5
ag6
ag2
ag6
ag6
ag6
ag4
ag1
ag8
ag3
ag17
ag6
ag12
ag6
ag3
ag4
ag5
ag13
ag6
ag3
ag1
ag16
ag3
ag1
ag6
ag1
ag6
ag3
ag5
ag8
ag5
ag6
ag13
ag4
ag16
ag3
ag1
ag6
ag10
ag5
ag6
ag2
ag3
ag1
ag1
ag3
ag6
ag11
ag6
ag5
ag6
ag17
ag4
ag2
ag1
ag16
ag6
ag1
ag2
ag6
ag10
ag3
ag6
ag6
ag3
ag6
ag13
ag3
ag6
ag17
ag17
ag2
ag6
ag4
ag2
ag1
ag48
ag13
ag6
ag5
ag12
ag6
ag10
ag6
ag3
ag13
ag3
ag6
ag4
ag53
ag53
ag110
aVk
p126
ag1
ag3
ag17
ag13
ag6
ag3
ag17
ag6
ag12
ag6
ag3
ag4
ag5
ag13
ag6
ag3
ag1
ag2
ag6
ag12
ag5
ag5
ag8
ag16
ag3
ag1
ag6
ag4
ag3
ag4
ag19
ag2
ag6
ag13
ag8
ag2
ag3
ag1
ag1
ag16
ag11
ag6
ag10
ag3
ag1
ag1
ag16
ag2
ag1
ag2
ag6
ag12
ag6
ag3
ag3
ag4
ag19
ag1
ag6
ag3
ag4
ag1
ag1
ag6
ag8
ag2
ag6
ag10
ag3
ag1
ag10
ag1
ag1
ag2
ag6
ag13
ag8
ag3
ag4
ag19
ag5
ag6
ag3
ag1
ag2
ag6
ag6
ag5
ag6
ag4
ag3
ag4
ag10
ag6
ag4
ag3
ag12
ag6
ag3
ag6
ag8
ag6
ag2
ag6
aVh
p127
ag11
ag3
ag5
ag19
aVn
p128
ag6
ag16
ag6
ag5
ag8
ag6
ag5
ag6
ag4
ag3
ag4
ag3
ag6
ag5
ag34
ag1
ag1
ag6
ag1
ag17
ag5
ag6
ag2
ag6
ag6
ag1
ag8
ag2
ag6
ag4
ag11
ag1
ag6
ag1
ag6
ag3
ag16
ag8
ag2
ag6
ag6
ag5
ag6
ag4
ag3
ag4
ag3
ag6
ag5
ag34
ag1
ag10
ag3
ag4
ag6
aVe
p129
aV7
p130
aV6
p131
ag47
ag19
aVj
p132
ag5
ag46
ag12
ag2
ag4
ag2
ag2
ag16
ag2
ag6
ag3
ag2
ag1
ag2
ag6
ag6
ag1
ag6
ag3
ag16
ag3
ag17
ag13
ag6
ag12
ag6
ag3
ag5
ag6
ag4
ag13
ag5
ag6
ag3
ag6
ag3
ag6
ag1
ag1
ag1
ag17
ag13
ag5
ag19
ag4
ag6
aVw
p133
ag6
ag6
ag6
ag3
ag1
ag6
ag2
ag2
ag6
ag1
ag6
ag3
ag16
ag2
ag13
ag5
ag17
ag6
ag3
ag6
ag5
ag6
ag12
ag2
ag2
ag6
ag1
ag6
ag3
ag4
ag1
ag8
ag3
ag4
ag6
ag17
ag6
ag12
ag6
ag6
ag1
ag2
ag6
ag3
ag17
ag6
ag12
ag6
ag3
ag4
ag5
ag13
ag6
ag3
ag1
ag2
ag6
ag4
ag3
ag4
ag19
ag12
ag5
ag5
ag2
ag2
ag1
ag6
ag3
ag2
ag6
ag3
ag6
ag3
ag6
ag1
aVw
p134
ag6
ag2
ag11
ag6
ag6
ag11
ag6
ag5
ag10
ag6
ag1
ag6
ag34
ag10
ag6
ag3
ag6
ag1
ag5
ag10
ag10
ag3
ag4
ag2
ag13
ag5
ag1
ag6
ag13
ag5
ag6
ag13
ag3
ag6
ag2
ag6
ag3
ag6
ag6
ag10
ag6
ag1
ag6
ag1
ag4
ag6
ag8
ag13
ag5
ag3
ag1
ag4
ag12
ag11
ag6
ag11
ag6
ag5
ag4
ag6
ag46
aVh
p135
ag20
ag1
ag2
ag6
ag3
ag6
ag8
ag3
ag6
ag2
ag6
ag4
ag10
ag1
ag6
ag1
ag8
ag2
ag6
ag13
ag1
ag3
ag1
ag6
ag6
ag5
ag4
ag8
ag8
ag1
ag6
ag6
ag1
ag3
ag12
ag6
ag5
ag5
ag2
ag6
ag4
ag10
ag1
ag6
ag1
ag8
ag2
ag6
ag4
ag10
ag5
ag6
ag34
ag4
ag1
ag13
ag4
ag11
ag6
ag1
ag3
ag1
ag2
ag6
ag8
ag3
ag6
ag48
ag13
ag6
ag1
ag4
ag3
ag1
ag16
ag6
ag8
ag3
ag46
ag110
ag110
aVh
p136
ag20
ag46
ag110
aVh
p137
ag20
aVw
p138
ag6
ag10
ag6
ag3
ag8
ag3
ag6
ag2
ag6
ag6
ag34
ag10
ag6
ag3
ag6
ag1
ag1
ag4
ag5
ag1
ag3
ag4
ag5
ag4
ag3
ag6
ag10
ag5
ag6
ag8
ag3
ag2
ag6
aVh
p139
ag1
ag6
ag11
ag5
ag5
ag6
aVf
p140
ag3
ag1
ag10
ag3
ag8
ag10
ag10
ag3
ag34
ag6
ag5
ag110
ag110
aV8
p141
ag17
ag13
ag1
ag12
ag6
ag3
ag6
ag34
ag4
ag5
ag13
ag6
ag1
ag4
ag5
ag4
ag1
ag6
ag1
ag5
ag5
ag5
ag6
ag10
ag10
ag3
ag34
ag6
ag5
ag47
ag110
aV4
p142
ag110
ag12
aVw
p143
ag6
ag10
ag6
ag3
ag8
ag3
ag6
ag6
ag34
ag10
ag6
ag3
ag6
ag1
ag13
ag1
ag6
ag3
ag4
ag1
ag3
ag5
ag5
ag6
ag4
ag1
ag8
ag1
ag1
ag16
ag1
ag10
ag3
ag6
ag8
ag5
ag13
ag10
ag3
ag6
ag13
ag3
ag6
ag4
ag2
ag6
ag11
ag1
ag16
ag8
ag8
ag6
ag3
ag6
ag1
ag5
ag10
ag3
ag6
ag13
ag3
ag6
ag6
ag3
ag6
ag10
ag3
ag6
ag6
ag1
ag11
ag6
ag8
ag13
ag4
ag2
ag2
ag1
ag13
ag3
ag6
ag6
ag3
ag11
ag3
ag4
ag1
ag1
ag3
ag6
ag4
ag1
ag5
ag6
ag13
ag3
ag6
ag6
ag1
ag12
ag6
ag3
ag6
ag6
ag13
ag1
ag16
ag1
ag6
ag10
ag6
ag1
ag6
ag1
ag4
ag48
ag13
ag1
ag3
ag3
ag10
ag6
ag20
ag6
ag5
ag6
ag4
ag3
ag4
ag4
ag3
ag5
ag1
ag1
ag1
ag10
ag5
ag3
ag20
ag1
ag16
ag6
ag5
ag6
ag4
ag3
ag6
ag3
ag17
ag13
ag6
ag20
ag13
ag2
ag5
ag5
ag1
ag2
ag6
ag4
ag3
ag6
ag10
ag5
ag6
ag6
ag34
ag6
ag3
ag1
ag5
ag13
ag3
ag8
ag4
ag6
ag2
ag6
ag17
ag6
ag1
ag16
ag10
ag5
ag1
ag6
ag17
ag6
ag1
ag16
ag5
ag1
ag16
ag2
ag6
ag34
ag8
ag2
ag6
ag4
ag5
ag1
ag3
ag4
ag5
ag4
ag3
ag6
ag10
ag5
ag6
aVu
p144
ag5
ag3
ag1
ag4
ag12
ag11
ag6
ag8
ag3
ag12
ag6
ag3
ag6
ag3
ag6
ag4
ag3
ag6
ag1
ag2
ag16
ag2
ag3
ag6
ag5
ag13
ag1
ag4
ag5
ag5
ag4
ag10
ag6
ag2
ag6
ag6
ag11
ag6
ag5
ag10
ag6
ag1
ag8
ag3
ag6
ag5
ag17
ag5
ag6
ag6
ag2
ag8
ag3
ag13
ag10
ag4
ag5
ag1
ag16
ag8
ag1
ag6
ag4
ag5
ag6
ag6
ag5
ag8
ag6
ag5
ag4
ag6
ag2
ag5
ag1
ag16
ag17
ag6
ag6
ag1
ag1
ag10
ag3
ag1
ag10
ag4
ag8
ag3
ag3
ag4
ag19
ag10
ag2
ag4
ag1
ag10
ag10
ag5
ag6
ag6
ag5
ag16
ag6
ag11
ag6
ag3
ag5
ag6
ag8
ag8
ag6
ag4
ag11
ag6
ag6
ag13
ag2
ag6
ag3
ag6
ag2
ag11
ag6
ag17
ag6
ag6
ag1
ag6
ag11
ag6
ag5
ag10
ag6
ag10
ag3
ag11
ag6
ag6
ag5
ag4
ag10
ag3
ag6
ag6
ag3
ag8
ag3
ag6
ag3
ag5
ag13
ag4
ag2
ag8
ag1
ag6
ag5
ag5
ag6
ag3
ag6
ag6
ag3
ag3
ag1
ag5
ag3
ag6
ag1
ag6
ag3
ag5
ag16
ag1
ag6
ag8
ag3
ag4
ag13
ag3
ag6
ag1
ag13
ag4
ag2
ag4
ag6
ag2
ag6
ag1
ag5
ag4
ag5
ag13
ag1
ag8
ag3
ag13
ag10
ag4
ag5
ag6
ag10
ag3
ag10
ag6
ag3
ag6
ag4
ag1
ag17
ag6
ag13
ag6
ag8
ag3
ag4
ag4
ag13
ag3
ag6
ag10
ag3
ag6
ag4
ag1
ag8
ag12
ag11
ag6
ag10
ag3
ag10
ag16
ag1
aVh
p145
ag12
ag6
ag11
ag6
ag3
ag13
ag4
ag2
ag2
ag6
ag3
ag6
ag4
ag1
ag1
ag17
ag6
ag10
ag10
ag5
ag6
ag3
ag6
ag4
ag5
ag2
ag16
ag6
ag1
ag20
ag6
ag6
ag5
ag4
ag6
ag12
ag2
ag3
ag6
ag4
ag10
ag5
ag6
ag34
ag3
ag17
ag3
ag3
ag10
ag5
ag2
ag6
ag6
ag3
ag16
ag6
ag1
ag6
ag2
ag6
ag3
ag6
ag8
ag3
ag6
ag12
ag6
ag2
ag11
ag6
ag10
ag3
ag10
ag6
ag1
ag13
ag6
ag3
ag4
ag5
ag2
ag16
ag6
ag1
ag20
ag1
ag5
ag16
ag3
ag2
ag17
ag6
ag1
ag13
ag5
ag4
ag5
ag6
ag8
ag1
ag6
ag6
ag5
ag6
ag6
ag1
ag6
ag2
ag8
ag3
ag13
ag5
ag1
ag16
ag6
ag5
ag4
ag12
ag11
ag6
ag10
ag3
ag10
ag16
ag1
ag1
ag2
ag6
ag6
ag3
ag16
ag6
ag1
ag6
ag13
ag1
ag3
ag10
ag4
ag6
ag5
ag4
ag6
ag10
ag6
ag4
ag8
ag4
ag5
ag5
ag13
ag3
ag6
ag2
ag13
ag6
ag13
ag5
ag4
ag5
ag6
ag17
ag8
ag13
ag1
ag4
ag1
ag17
ag1
ag6
ag8
ag3
ag5
ag4
ag5
ag5
ag1
ag6
ag3
ag6
ag5
ag4
ag10
ag3
ag17
ag5
ag6
ag12
ag2
ag10
ag10
ag3
ag10
ag3
ag6
ag5
ag6
ag8
ag1
ag6
ag17
ag13
ag1
ag3
ag4
ag1
ag1
aVh
p146
ag16
ag6
ag1
ag20
ag6
ag6
ag8
ag8
ag6
ag4
ag11
ag6
ag6
ag13
ag10
ag3
ag6
ag6
ag3
ag12
ag6
ag3
ag6
ag2
ag6
ag1
ag4
ag10
ag13
ag6
ag13
ag1
ag16
ag2
ag6
ag6
ag17
ag8
ag13
ag1
ag4
ag1
aVw
p147
ag6
ag10
ag6
ag3
ag8
ag3
ag6
ag5
ag17
ag3
ag3
ag6
ag34
ag10
ag6
ag3
ag6
ag1
ag6
ag13
ag3
ag6
ag4
ag10
ag3
ag6
ag1
ag5
aVp
p148
ag12
ag11
ag6
ag11
ag6
ag5
ag4
ag1
ag6
ag1
ag13
ag1
ag1
ag5
ag12
ag10
ag6
ag3
ag6
ag17
ag5
ag3
ag10
ag6
ag1
ag1
ag6
ag13
ag5
ag3
ag1
ag4
ag8
ag3
ag6
ag48
ag13
ag6
ag1
ag4
ag13
ag3
ag1
ag16
ag3
ag1
ag16
ag6
aVc
p149
ag53
ag1
ag14
ag6
ag4
ag1
ag1
ag17
ag17
ag1
ag17
ag3
ag1
ag6
ag1
ag14
ag6
ag4
ag1
aVx
p150
ag3
ag4
ag10
ag13
ag6
ag16
ag3
ag10
ag2
aVc
p151
ag16
ag6
ag8
ag2
ag6
ag3
ag4
ag19
ag10
ag5
ag6
ag12
ag6
ag3
ag6
ag13
ag5
ag1
ag6
ag13
ag5
ag3
ag6
ag4
ag3
ag6
ag13
ag3
ag1
ag16
ag2
ag6
ag1
ag14
ag6
ag4
ag1
ag1
ag2
ag6
ag17
ag8
ag2
ag6
aVc
p152
ag16
ag6
ag12
ag6
ag4
ag5
ag4
ag13
ag5
ag6
ag2
ag6
aVc
p153
ag53
ag13
ag3
ag1
ag1
ag6
ag10
ag3
ag5
ag6
ag10
ag2
ag6
ag3
ag2
ag10
ag6
ag11
ag5
ag13
ag6
ag2
ag6
ag8
ag3
aVf
p154
ag3
ag6
ag1
ag6
ag5
ag20
ag1
ag6
ag2
ag6
ag1
ag4
ag5
ag6
ag2
ag6
ag12
ag11
ag6
ag10
ag3
ag10
ag16
ag1
ag10
ag2
ag2
ag6
ag3
ag6
ag5
ag1
ag2
ag10
ag8
aVp
p155
ag12
ag11
ag6
ag11
ag6
ag5
ag4
ag1
ag2
ag8
ag6
ag1
ag13
ag1
ag2
ag6
aVc
p156
ag53
ag8
ag3
ag4
ag1
ag12
ag6
ag3
ag6
ag2
ag6
ag1
ag17
ag1
ag6
aVb
p157
ag2
ag3
ag6
ag5
ag1
ag2
ag10
ag2
ag12
ag6
ag1
ag1
ag13
ag1
ag48
ag13
ag6
ag1
ag6
ag12
ag2
ag3
ag6
ag3
ag19
ag17
ag5
ag6
ag2
ag6
ag3
ag6
ag1
ag3
ag1
ag16
ag6
ag17
ag17
ag1
ag4
ag4
ag5
ag6
ag6
ag34
ag10
ag5
ag1
ag2
ag6
ag1
ag1
ag13
ag1
ag48
ag13
ag6
ag3
ag6
ag5
ag1
ag2
ag10
ag8
aVp
p158
ag12
ag11
ag6
ag11
ag6
ag5
ag4
ag2
ag6
aVc
p159
ag53
ag8
ag3
ag4
ag1
ag12
ag6
ag1
ag11
ag6
ag16
ag6
ag2
ag6
ag4
ag1
ag1
ag13
ag13
ag3
ag1
ag10
ag4
ag2
ag13
ag3
ag1
ag6
ag5
ag17
ag13
ag1
ag16
ag6
ag34
ag10
ag1
ag6
ag1
ag10
ag6
ag13
ag4
ag3
ag3
ag6
ag5
ag1
ag2
ag6
ag1
ag1
ag13
ag1
ag48
ag13
ag6
ag3
ag6
ag5
ag1
ag2
ag10
ag8
ag11
ag6
ag5
ag4
ag2
ag6
aVc
p160
ag53
ag8
ag3
ag4
ag1
ag12
ag6
ag34
ag10
ag5
ag1
ag6
ag17
ag2
ag6
ag6
ag5
ag12
ag2
ag4
ag3
ag3
ag6
ag5
ag1
ag5
ag6
ag1
ag16
ag2
ag8
ag3
ag1
ag3
ag6
ag3
ag2
ag6
ag8
ag1
ag6
ag8
ag8
ag6
ag3
ag6
ag1
ag4
ag6
ag6
ag1
aVf
p161
ag6
ag2
ag2
ag17
ag6
ag6
ag1
ag12
ag6
ag5
ag13
ag6
ag10
ag6
ag3
ag8
ag3
ag3
ag1
ag6
ag1
ag6
ag5
ag6
ag4
ag3
ag16
ag1
ag6
ag4
ag13
ag5
ag1
aVc
p162
ag10
ag3
ag6
ag2
ag6
ag3
ag1
ag5
aVf
p163
ag6
ag2
ag2
ag6
ag8
ag1
ag6
ag6
ag5
ag6
ag6
ag1
ag6
ag1
aVf
p164
aVe
p165
ag6
ag2
ag12
ag2
ag13
ag1
ag3
ag13
ag4
ag13
ag3
ag6
ag6
ag2
ag6
ag1
ag1
ag10
ag11
ag6
ag6
ag6
ag10
ag10
ag1
ag16
ag4
ag2
ag6
ag6
ag2
ag2
ag6
ag10
ag6
ag1
ag5
ag3
ag4
ag5
ag5
ag4
ag13
ag12
ag1
ag2
ag6
ag1
ag13
ag17
ag6
ag3
ag8
ag13
ag1
ag19
ag1
ag12
ag1
ag1
ag2
ag6
ag1
ag13
ag17
ag6
ag3
ag8
ag6
ag6
ag10
aVh
p166
ag12
ag6
ag11
ag6
ag3
ag12
ag2
ag1
ag6
ag6
ag5
ag11
ag6
ag5
ag3
ag16
ag6
ag4
ag5
ag6
ag13
ag1
ag3
ag13
ag4
ag13
ag3
ag6
ag10
ag3
ag6
ag3
ag34
ag6
ag11
ag6
ag3
ag6
ag6
ag10
ag2
ag6
aVf
p167
aVe
p168
ag6
ag2
ag16
ag6
ag1
ag6
ag3
ag5
ag5
ag8
ag8
ag4
ag13
ag5
ag4
ag5
ag6
ag12
ag2
ag2
ag6
ag11
ag5
ag17
ag5
ag6
ag10
ag3
ag5
ag5
ag6
ag5
ag4
ag10
ag13
ag1
ag16
ag3
ag6
ag13
ag3
ag4
ag6
ag19
ag6
ag6
ag8
ag8
ag4
ag6
ag1
ag13
ag6
ag8
ag2
ag6
ag13
ag5
ag4
ag3
ag6
ag3
ag6
ag13
ag3
ag4
ag6
ag1
ag4
ag13
ag3
ag3
ag6
ag1
ag4
ag10
ag13
ag1
ag16
ag10
ag5
ag8
ag3
ag12
ag6
ag6
ag16
ag1
ag6
ag10
ag3
ag5
ag5
ag6
ag5
aVf
p169
aVe
p170
ag6
ag2
ag2
ag13
ag6
ag13
ag5
ag10
ag5
ag6
ag2
ag3
ag6
ag4
ag4
ag6
ag5
ag6
ag3
ag6
ag2
ag6
ag19
ag6
ag6
ag10
ag8
ag3
ag5
ag11
ag1
ag16
ag5
ag3
ag16
ag6
ag10
ag3
ag6
ag3
ag34
ag1
ag4
ag5
ag13
ag1
ag16
ag2
ag6
ag4
ag1
ag3
ag13
ag4
ag1
ag8
ag2
ag6
ag10
ag3
ag6
ag4
ag1
ag1
ag6
ag3
ag1
ag3
ag34
ag11
ag6
ag4
ag3
ag13
ag5
ag10
ag5
ag4
ag1
aVu
p171
ag1
ag16
ag4
ag13
ag20
ag6
ag1
ag4
ag10
ag5
ag6
ag6
aVc
p172
ag2
ag5
ag6
ag19
ag10
ag3
ag6
ag4
ag1
ag1
ag6
ag3
ag12
ag6
ag4
ag2
ag6
ag11
ag6
ag8
ag6
ag3
ag4
ag1
ag11
ag6
ag3
ag16
ag6
ag1
ag4
ag6
ag2
ag1
ag1
ag6
ag34
ag1
ag16
ag10
ag3
ag6
ag4
ag1
ag1
ag6
ag3
ag1
ag4
ag5
ag17
ag5
ag6
ag10
ag3
ag5
ag5
ag6
ag5
ag10
ag6
ag3
ag8
ag3
ag1
ag4
ag6
ag11
ag6
ag3
ag13
ag5
ag10
ag5
ag6
ag4
ag2
ag6
ag3
ag1
ag6
ag1
ag6
ag5
ag6
ag4
ag3
ag16
ag1
ag6
ag4
aVe
p173
ag3
ag6
ag10
ag1
ag6
ag8
ag12
ag3
ag6
ag5
ag10
ag2
ag6
ag13
ag3
ag8
ag4
ag6
ag8
ag2
ag6
ag6
ag3
ag2
ag2
ag17
ag6
ag6
ag1
ag13
ag6
ag1
ag6
ag5
ag8
ag3
ag6
ag11
ag6
ag3
ag5
ag6
ag4
ag6
aVw
p174
ag2
ag6
ag1
ag4
ag13
ag3
ag3
ag6
ag1
ag1
ag2
ag6
ag5
ag10
ag3
ag10
ag5
ag12
ag4
ag2
ag6
ag8
ag8
ag1
ag6
ag1
ag4
ag5
ag6
ag8
ag4
ag13
ag3
ag3
ag6
ag1
ag4
ag1
ag5
ag3
ag6
ag8
ag6
ag3
ag3
ag6
ag19
ag6
ag3
ag1
ag16
ag1
ag13
ag4
ag6
ag1
ag2
ag6
ag4
ag1
ag13
ag4
ag11
ag6
ag13
ag17
ag13
ag3
ag8
ag4
ag6
ag1
ag8
ag8
ag13
ag6
ag12
ag1
ag12
ag3
ag1
ag13
ag12
ag3
ag1
ag2
ag6
ag6
ag3
ag2
aVw
p175
ag2
ag2
ag1
ag17
ag6
ag6
ag1
ag13
ag6
ag2
ag3
ag13
ag16
ag2
ag5
ag2
ag6
ag3
ag6
ag10
ag1
ag6
ag8
ag5
ag10
ag17
ag13
ag3
ag6
ag12
ag2
ag1
ag4
ag1
ag13
ag4
ag11
ag6
ag6
ag13
ag16
ag2
ag17
ag6
ag2
ag6
ag4
ag6
ag1
ag2
ag6
ag3
ag1
ag6
ag6
ag1
ag11
ag3
ag1
ag6
ag1
ag3
ag12
ag2
ag6
ag1
aVe
p176
ag10
ag3
ag10
ag6
ag4
ag1
ag16
ag6
ag3
ag6
ag10
ag5
ag4
ag6
ag1
ag1
ag6
ag13
ag1
ag1
ag6
ag5
ag3
ag2
ag3
ag20
ag1
ag5
ag17
ag3
ag6
ag2
ag5
ag6
aVw
p177
ag6
ag2
ag11
ag6
ag6
ag34
ag1
ag6
ag2
ag6
aVe
p178
ag3
ag6
ag10
ag1
ag6
ag8
ag2
ag3
ag20
ag1
ag5
ag12
ag3
ag6
ag5
ag10
ag17
ag13
ag3
ag6
ag12
ag2
ag1
ag4
ag1
ag13
ag4
ag11
ag6
ag2
ag5
ag8
ag10
ag4
ag6
aVe
p179
ag34
ag10
ag3
ag6
ag1
ag12
ag6
ag3
ag6
ag6
ag3
ag11
ag6
ag8
ag3
ag2
ag6
ag20
ag13
ag2
ag5
ag6
ag5
ag6
ag4
ag3
ag4
ag8
ag6
ag5
ag1
ag4
ag3
ag3
ag6
ag10
ag1
ag1
ag16
ag11
ag6
ag3
ag4
ag5
ag1
ag3
ag5
ag16
ag1
ag6
ag4
ag8
ag6
ag5
ag13
ag3
ag3
ag6
ag13
ag5
ag2
ag12
ag6
ag2
ag12
ag2
ag6
ag1
ag2
ag6
ag5
ag10
ag8
ag3
ag8
ag3
ag2
ag6
ag6
ag3
ag2
ag3
ag1
ag6
ag3
ag8
ag4
ag6
ag1
ag16
ag5
ag6
ag19
ag6
ag3
ag1
ag16
ag6
ag8
ag8
ag13
ag6
ag3
ag5
ag5
ag13
ag12
ag3
ag8
ag3
ag2
ag6
ag3
ag1
ag6
ag3
ag12
ag2
ag5
ag6
ag2
ag6
ag6
ag5
ag6
ag4
ag3
ag4
ag8
ag6
ag5
ag1
ag4
ag3
ag3
ag6
ag10
ag1
ag1
ag16
ag4
ag13
ag3
ag3
ag6
ag1
ag6
ag1
ag6
ag4
ag12
aVw
p180
ag6
ag2
ag11
ag6
ag6
ag11
ag6
ag5
ag10
ag6
ag6
ag2
ag8
ag3
ag10
ag5
ag1
ag16
ag3
ag16
ag1
ag16
ag8
ag3
ag16
ag3
ag13
ag1
ag6
ag1
ag6
ag5
ag6
ag4
ag3
ag16
ag1
ag6
ag4
ag6
ag1
ag8
ag3
ag6
ag34
ag3
ag4
ag1
ag16
ag2
ag6
ag16
ag6
ag6
ag3
ag4
ag10
ag3
ag6
ag6
ag3
ag8
ag5
ag5
ag4
ag1
ag13
ag4
ag3
ag2
ag6
ag10
ag3
ag6
ag6
ag3
ag3
ag6
ag6
ag6
ag3
ag1
ag6
ag3
ag6
ag4
ag5
ag8
ag3
ag2
ag6
ag13
ag1
ag16
ag4
ag17
ag1
ag1
ag8
ag2
ag6
ag10
ag5
ag4
ag10
ag1
ag6
ag1
ag8
ag2
ag6
ag6
ag4
ag1
ag3
ag8
ag6
ag5
ag1
ag2
ag6
ag3
aVh
p181
ag5
ag17
ag6
ag3
ag3
ag1
ag8
ag3
ag2
ag6
ag10
ag1
ag8
ag2
ag6
ag3
ag16
ag6
ag4
ag1
ag4
ag6
ag12
ag2
ag2
ag6
ag10
ag6
ag19
ag8
ag2
ag6
ag6
ag1
ag6
ag3
ag16
ag6
ag1
ag11
ag6
ag5
ag10
ag6
aVe
p182
aVe
p183
ag3
ag2
ag6
ag4
ag10
ag1
ag6
ag1
ag8
ag2
ag6
ag3
ag6
ag10
ag1
ag6
aVh
p184
ag6
ag3
ag6
ag2
ag6
aVe
p185
aVe
p186
ag2
ag6
ag48
ag13
ag3
ag6
ag3
ag8
ag2
ag6
ag13
ag8
ag2
ag6
ag48
ag13
ag3
ag6
ag8
ag2
ag6
ag2
ag3
ag6
ag6
ag10
ag5
ag4
ag10
ag1
ag6
ag1
ag1
ag2
ag6
ag3
aVh
p187
ag5
ag17
ag6
ag3
ag3
ag1
ag8
ag3
ag12
ag2
ag6
ag3
ag6
ag2
ag6
ag4
ag10
ag1
ag6
ag1
ag3
ag6
ag10
ag1
ag6
ag1
ag1
ag5
ag16
ag13
ag48
ag13
ag1
ag2
ag6
ag34
ag4
ag5
ag13
ag6
ag2
ag6
aVh
p188
ag5
ag17
ag6
ag3
ag3
ag1
ag8
ag3
ag6
ag3
ag13
ag6
ag1
ag1
ag2
ag6
ag4
ag6
ag5
ag1
ag4
ag6
ag2
ag2
ag6
ag4
ag10
ag1
ag6
ag1
ag3
ag6
ag10
ag1
ag6
ag2
ag3
ag10
ag6
ag3
ag2
ag1
ag2
ag6
aVe
p189
aVe
p190
ag1
ag10
ag17
ag5
ag6
ag3
ag16
ag6
ag3
ag6
ag1
ag1
ag1
ag4
ag6
ag2
ag6
ag10
ag1
ag8
ag17
ag2
ag17
ag6
ag6
ag1
ag6
ag6
ag3
ag1
ag6
ag13
ag1
ag16
ag2
ag6
ag10
ag6
ag19
ag8
ag2
ag6
ag4
ag10
ag1
ag6
ag1
ag3
ag6
ag10
ag1
ag6
ag2
ag6
ag10
ag8
ag2
ag6
ag3
ag16
ag6
ag4
ag1
ag17
ag6
ag48
ag13
ag1
ag8
ag6
ag13
ag1
ag16
ag2
ag6
ag3
ag8
ag2
ag6
ag8
ag13
ag5
ag5
ag12
ag2
ag2
ag5
ag8
ag16
ag1
ag13
ag6
aVf
p191
aVw
p192
aVh
p193
ag8
ag2
ag6
ag4
ag10
ag1
ag6
ag1
ag3
ag6
ag10
ag1
ag6
ag1
aVw
p194
ag6
ag2
ag11
ag6
ag6
ag11
ag6
ag5
ag10
ag6
ag1
ag5
ag6
ag3
ag1
ag11
ag6
ag3
ag6
ag16
ag8
ag3
ag2
ag6
ag1
ag6
ag11
ag17
ag5
ag6
ag6
ag6
ag10
ag6
ag3
ag1
ag13
ag4
ag11
ag6
ag6
ag5
ag6
ag4
ag3
ag16
ag1
ag6
ag4
aVe
p195
ag6
ag34
ag10
ag5
ag3
ag1
ag12
ag2
ag4
ag2
ag12
ag5
ag5
ag17
ag6
ag3
ag6
ag48
ag13
ag3
ag6
ag2
ag5
ag5
ag12
ag6
ag10
ag3
ag6
ag6
ag34
ag2
ag13
ag6
aVr
p196
ag2
ag6
ag3
ag2
ag1
ag13
ag1
ag16
ag11
ag6
ag3
ag5
ag3
ag16
ag6
ag16
ag1
ag6
ag4
ag6
ag1
ag16
ag3
ag13
ag1
ag5
ag10
ag6
ag13
ag3
ag6
ag6
ag1
ag1
ag3
ag6
ag3
ag6
ag10
ag6
ag6
ag13
ag1
ag16
ag1
ag5
ag5
ag6
ag3
ag20
ag6
ag5
ag10
ag12
ag2
ag5
ag5
ag6
ag3
ag6
ag1
ag2
ag6
ag13
ag5
ag10
ag5
ag6
ag3
ag1
ag6
ag3
ag3
ag6
ag2
ag6
ag1
ag12
ag6
ag16
ag2
ag6
ag1
ag13
ag6
ag1
ag1
ag16
ag5
ag6
ag2
ag16
ag2
ag16
ag1
ag5
ag1
ag6
ag3
aVn
p197
ag4
ag10
ag6
ag3
ag1
ag6
ag3
ag2
ag6
ag4
ag10
ag6
ag3
ag1
ag6
ag3
ag4
ag1
ag17
ag6
ag2
ag13
ag16
ag2
ag8
ag10
ag10
ag3
ag4
ag6
ag1
ag16
ag6
ag2
ag2
ag13
ag6
ag2
ag6
ag4
ag5
ag5
ag6
ag4
ag6
ag13
ag5
ag3
ag1
ag6
ag3
ag4
ag1
ag3
ag13
ag4
ag13
ag5
ag6
ag3
ag1
ag6
ag3
ag12
ag2
ag4
ag2
ag34
ag20
ag6
ag2
ag6
ag4
ag13
ag10
ag5
ag1
ag16
ag10
ag3
ag4
ag13
ag5
ag3
ag3
ag16
ag6
ag2
ag6
ag10
ag10
ag3
ag10
ag3
ag6
ag3
ag1
ag6
ag3
ag12
ag6
ag16
ag2
ag13
ag6
ag12
ag5
ag5
ag6
ag10
ag6
ag1
ag1
ag2
ag6
ag3
ag16
ag6
ag5
ag4
ag1
ag1
ag16
ag6
ag6
ag3
ag1
ag13
ag4
ag2
ag8
ag8
ag6
ag3
ag6
ag1
ag12
ag6
ag16
ag2
ag1
ag16
ag4
ag2
ag6
ag6
ag5
ag5
ag12
ag8
ag3
ag2
ag6
ag4
ag1
ag3
ag13
ag4
ag1
ag8
ag8
ag8
ag6
ag3
ag6
ag1
ag4
ag10
ag6
ag3
ag1
ag6
ag3
ag6
ag4
ag2
ag8
ag12
ag2
ag4
ag2
ag12
ag5
ag5
ag34
ag5
ag5
ag2
ag16
ag2
ag5
ag16
ag2
ag8
ag8
ag6
ag3
ag6
ag1
ag3
ag16
ag6
aVw
p198
ag6
ag2
ag11
ag6
ag13
ag6
ag1
ag10
ag3
ag3
ag19
ag1
ag12
ag5
ag6
ag16
ag6
ag8
ag2
ag6
ag5
ag4
ag1
ag1
ag3
ag6
ag1
ag1
ag8
ag2
ag6
ag6
ag34
ag10
ag5
ag3
ag1
ag3
ag16
ag6
ag1
ag12
ag6
ag4
aVw
p199
ag6
ag2
ag11
ag6
ag6
ag11
ag6
ag5
ag10
ag6
ag2
ag6
ag5
ag1
ag4
ag19
ag1
ag16
ag10
ag10
ag3
ag4
ag2
ag1
ag2
ag6
ag16
ag6
ag1
ag6
ag3
ag5
ag20
ag6
ag3
ag1
ag8
ag3
aVg
p200
ag1
ag8
ag6
ag4
ag8
ag3
ag2
ag6
ag6
ag1
ag8
ag2
ag6
ag16
ag3
ag13
ag10
ag11
ag6
ag5
ag4
ag8
ag2
ag6
ag13
ag5
ag5
ag13
ag3
ag8
ag4
ag6
ag12
ag11
ag6
aVw
p201
ag6
ag13
ag6
ag12
ag11
ag6
ag3
ag1
ag8
ag2
ag6
aVg
p202
ag2
ag6
ag4
ag1
ag1
ag4
ag5
ag6
aVg
p203
ag13
ag6
ag4
ag1
ag1
ag4
ag5
ag1
ag16
ag8
ag4
ag3
ag1
ag2
ag6
aVg
p204
ag13
ag1
ag12
ag1
ag12
ag4
ag1
ag3
ag5
ag2
ag6
ag10
ag6
ag4
ag3
ag5
ag6
ag8
ag3
ag6
ag48
ag13
ag6
ag1
ag4
ag5
ag4
ag5
ag20
ag1
aVw
p205
ag6
ag8
ag13
ag1
ag2
ag5
ag5
ag6
ag3
ag4
ag5
ag1
ag16
ag8
ag4
ag3
ag2
ag13
ag5
ag17
ag6
ag4
ag2
ag6
ag1
ag8
ag3
ag2
ag6
ag5
ag12
ag8
ag3
ag6
ag48
ag13
ag6
ag1
ag4
ag13
ag3
ag8
ag4
ag6
ag12
ag11
ag6
ag12
ag2
ag6
ag3
ag6
ag8
ag3
ag2
ag16
ag2
ag6
ag3
ag8
ag3
ag6
ag48
ag13
ag6
ag1
ag4
ag6
ag5
ag3
ag16
ag6
ag3
ag4
ag5
ag1
ag16
ag8
ag4
ag3
ag2
ag13
ag5
ag17
ag6
ag4
ag2
ag6
ag1
ag2
ag6
ag3
ag6
ag8
ag3
ag6
ag2
ag6
ag3
ag1
ag8
ag3
ag6
ag34
ag2
ag17
ag3
ag6
ag8
ag8
ag1
ag2
ag6
ag16
ag3
ag13
ag10
ag11
ag6
ag5
ag4
ag3
ag6
ag5
ag13
ag1
ag8
ag5
ag12
ag8
ag3
ag6
ag48
ag13
ag6
ag1
ag4
ag6
ag12
ag2
ag5
ag5
ag11
ag5
ag13
ag6
ag8
ag2
ag6
ag4
ag5
ag1
ag16
ag8
ag4
ag3
ag1
ag2
ag6
ag16
ag3
ag13
ag10
ag11
ag6
ag5
ag4
ag3
ag6
ag5
ag13
ag1
ag8
ag2
ag16
ag2
ag8
ag3
ag6
ag48
ag13
ag6
ag1
ag4
ag6
ag12
ag2
ag5
ag3
ag16
ag6
ag11
ag5
ag13
ag6
ag8
ag2
ag6
ag4
ag5
ag1
ag16
ag8
ag4
ag3
ag2
ag6
ag8
ag6
ag3
ag1
ag8
ag3
ag1
ag2
ag6
ag3
ag11
ag6
ag3
ag1
ag8
ag2
ag6
aVg
p206
ag13
ag6
ag1
ag2
ag13
ag6
ag1
ag2
ag1
ag4
ag6
ag2
ag6
ag6
ag8
ag3
ag6
ag48
ag13
ag6
ag1
ag4
ag3
ag6
ag5
ag13
ag1
ag17
ag10
ag3
ag14
ag6
ag4
ag1
ag16
ag2
ag6
ag8
ag3
ag6
ag48
ag13
ag6
ag1
ag4
ag1
ag5
ag1
ag6
ag3
ag8
ag3
ag6
ag48
ag13
ag6
ag1
ag4
ag8
ag13
ag1
ag4
ag1
ag1
ag2
ag6
aVg
p207
ag13
ag1
ag12
ag1
ag12
ag2
ag10
ag3
ag10
ag6
ag3
ag5
ag5
ag12
ag6
ag13
ag6
ag6
ag2
ag6
ag16
ag3
ag13
ag10
ag11
ag6
ag5
ag4
ag8
ag3
ag17
ag3
ag6
ag2
ag17
ag6
ag1
ag2
ag6
ag6
ag4
aVp
p208
ag12
ag11
ag6
ag6
ag4
ag13
ag3
ag8
ag4
ag6
ag12
ag11
ag6
ag1
ag10
ag10
ag3
ag6
ag1
ag3
ag6
ag11
ag3
ag6
ag4
ag1
ag5
ag13
ag6
ag1
ag2
ag6
ag5
ag13
ag1
ag8
ag6
ag11
ag6
ag3
ag5
ag1
ag6
ag3
ag13
ag3
ag8
ag4
ag6
ag10
ag3
ag17
ag5
ag6
aVh
p209
ag12
ag6
ag11
ag6
ag3
ag2
ag6
ag5
ag13
ag1
ag1
ag1
ag13
ag1
ag48
ag13
ag6
ag1
ag6
ag1
ag2
ag6
ag1
ag3
ag1
ag4
ag5
ag1
ag8
ag2
ag6
ag6
ag6
ag2
ag4
ag1
ag4
ag13
ag6
ag1
ag4
ag1
ag6
ag1
ag4
ag1
ag2
ag6
ag8
ag1
ag5
ag3
ag6
ag13
ag5
ag10
ag6
ag3
ag1
ag4
ag13
ag3
ag11
ag6
ag8
ag13
ag3
ag8
ag4
ag6
ag12
ag11
ag6
aVp
p210
ag12
ag11
ag6
ag3
ag11
ag6
ag5
ag6
ag1
ag10
ag10
ag3
ag6
ag1
ag3
ag6
ag11
ag12
ag6
ag3
ag6
ag14
ag1
ag5
ag1
ag11
ag6
ag3
ag6
ag17
ag1
ag1
ag6
ag3
ag1
ag5
ag5
ag4
ag1
ag6
ag1
ag1
ag3
ag6
ag3
ag6
ag5
ag17
ag5
ag6
ag8
ag1
ag5
ag6
ag5
ag8
aVp
p211
ag1
ag12
ag11
ag6
ag11
ag6
ag5
ag4
ag6
ag1
ag3
ag6
ag11
ag4
ag5
ag5
ag6
ag4
ag1
ag8
ag46
ag5
ag6
ag3
ag6
ag6
ag5
ag12
ag17
ag1
ag6
ag17
ag6
ag6
ag3
ag1
ag4
ag14
ag1
ag1
ag11
ag6
ag3
ag1
ag5
ag16
ag3
ag2
ag17
ag6
ag1
ag2
ag6
ag5
ag6
ag3
ag5
ag5
ag4
ag1
ag3
ag1
ag6
ag1
ag11
ag6
ag3
ag1
ag4
ag2
ag6
ag6
ag2
ag6
ag2
ag3
ag6
ag6
ag6
ag12
ag6
ag3
ag6
ag14
ag1
ag5
ag1
ag11
ag6
ag3
ag6
ag10
ag1
ag16
ag2
ag6
ag6
ag3
ag13
ag4
ag13
ag3
ag6
ag1
aVp
p212
ag1
ag3
ag12
ag1
ag3
ag13
ag4
ag6
ag10
ag2
ag4
ag5
ag5
ag1
ag19
ag17
ag6
ag12
ag6
ag6
ag1
aVp
p213
ag1
ag12
ag11
ag6
ag11
ag6
ag5
ag4
ag6
ag17
ag6
ag6
ag3
ag4
ag1
ag3
ag1
ag2
ag6
ag1
ag11
ag6
ag3
ag1
aVn
p214
ag10
ag2
ag4
ag5
ag5
ag1
ag19
ag12
ag10
ag6
ag17
ag6
ag12
ag6
ag6
ag1
ag2
ag6
ag3
ag6
ag11
ag1
ag2
ag6
ag6
ag4
ag11
ag6
ag5
ag4
ag6
ag2
ag6
ag1
ag11
ag6
ag3
ag1
ag5
ag16
ag3
ag2
ag12
ag6
ag6
ag1
ag1
ag2
ag6
ag4
ag1
ag2
ag6
ag1
ag10
ag10
ag5
ag6
ag8
ag6
ag5
ag4
ag6
ag12
ag2
ag6
ag3
ag6
ag17
ag6
ag1
ag4
ag2
ag2
ag6
ag3
ag6
ag8
aVl
p215
ag6
ag4
ag2
ag1
ag5
ag4
ag6
ag1
ag2
ag6
ag1
ag3
ag2
ag6
ag6
ag3
ag1
ag10
ag3
ag8
ag2
ag6
aVp
p216
ag6
ag5
ag10
ag1
ag1
ag6
ag6
aVg
p217
ag3
ag6
ag6
ag4
ag6
ag8
ag16
ag3
ag6
ag3
ag4
ag2
ag6
ag5
ag16
ag4
ag5
ag1
ag6
ag3
ag6
ag17
ag6
ag4
ag13
ag6
ag3
ag6
ag10
ag3
ag6
ag6
ag1
ag2
ag6
ag12
ag6
ag6
ag3
ag1
ag2
ag3
ag17
ag3
ag8
ag1
ag4
ag6
ag1
aVc
p218
ag3
ag1
ag2
ag1
ag1
ag4
ag5
ag13
ag6
ag2
ag6
ag3
ag6
ag1
ag8
ag1
ag6
ag3
ag5
aVc
p219
ag2
ag3
ag1
ag17
ag5
ag4
ag6
ag3
ag6
ag13
ag3
ag1
ag16
ag6
ag3
ag6
ag8
ag6
ag3
ag2
ag48
ag13
ag19
ag6
ag1
ag2
ag6
ag34
ag2
ag4
ag6
ag1
ag13
ag3
aVn
p220
ag13
ag6
ag3
ag13
ag6
ag10
ag3
ag6
ag1
ag1
ag17
ag13
ag4
ag19
ag5
ag1
ag16
ag3
ag13
ag4
ag13
ag3
ag6
ag8
ag4
ag3
ag4
ag13
ag5
ag3
ag1
ag5
ag1
ag6
ag3
ag16
ag6
ag6
ag3
ag17
ag6
ag3
ag11
ag6
ag1
ag2
ag6
ag6
ag4
ag3
ag6
ag8
ag5
ag3
ag8
ag2
ag6
ag17
ag5
ag4
ag3
ag6
ag1
ag4
ag11
ag6
ag8
ag16
ag3
ag13
ag1
ag6
ag8
ag3
ag1
ag10
ag3
ag4
ag6
ag6
ag10
ag17
ag5
ag3
ag6
ag5
ag6
ag6
ag3
ag2
ag48
ag13
ag19
ag6
ag1
ag13
ag4
ag6
ag16
ag3
ag13
ag1
ag5
ag48
ag13
ag6
ag8
ag4
ag1
aVe
p221
ag5
ag6
ag4
ag3
ag16
ag1
ag6
ag4
ag12
ag2
ag4
ag1
ag13
ag4
ag11
ag6
ag6
ag3
ag16
ag3
ag13
ag1
ag10
ag6
ag1
ag6
ag3
ag1
ag16
ag3
ag3
aVg
p222
aVp
p223
aVr
p224
ag12
ag2
ag53
ag78
ag110
aVh
p225
ag20
ag2
ag6
ag5
ag6
ag1
ag6
ag1
ag1
ag1
ag6
ag5
ag6
ag4
ag3
ag4
aVe
p226
aVr
p227
ag6
ag2
ag2
ag11
ag6
ag17
ag6
ag6
ag1
ag10
ag10
ag5
ag6
ag1
ag1
ag6
ag8
ag8
ag3
ag13
ag2
ag6
ag10
ag3
ag10
ag6
ag3
ag6
ag8
ag2
ag6
ag13
ag17
ag3
ag13
ag1
ag6
ag1
ag8
ag1
ag4
ag11
ag6
ag8
ag6
ag13
ag3
ag6
ag3
ag6
ag5
ag6
ag16
ag3
ag13
ag1
ag5
ag48
ag13
ag6
ag8
ag4
ag1
ag10
ag2
ag6
ag1
ag6
ag1
ag2
ag6
ag6
ag5
ag6
ag4
ag3
ag16
ag1
ag6
ag4
ag13
ag3
ag11
ag6
ag2
ag12
ag13
ag6
ag3
ag6
ag4
ag1
ag1
ag1
ag4
ag6
ag6
ag2
ag12
ag2
ag17
ag2
ag4
ag5
ag3
ag6
ag1
ag1
ag10
ag3
ag11
ag6
ag11
ag5
ag13
ag17
ag5
ag6
ag1
ag8
ag3
ag1
ag2
ag3
ag13
ag16
ag2
ag10
ag3
ag4
ag6
ag1
ag16
ag6
ag1
ag8
ag1
ag16
ag20
ag1
ag6
ag8
ag2
ag16
ag2
ag6
ag3
ag4
ag1
ag13
ag4
ag11
aVw
p228
ag6
ag2
ag11
ag6
ag6
ag11
ag6
ag5
ag10
ag6
ag16
ag3
ag11
ag1
ag11
ag6
ag3
ag1
ag6
ag2
ag6
ag6
ag4
ag1
ag1
ag13
ag13
ag17
ag6
ag6
ag1
ag3
ag6
ag5
ag6
ag8
ag17
ag6
ag1
ag1
ag6
ag34
ag6
ag1
ag6
ag11
ag6
ag3
ag1
ag8
aVb
p229
ag6
ag2
ag2
ag5
ag5
ag12
ag11
ag3
ag17
ag5
ag6
ag6
ag1
ag4
ag1
ag3
ag17
ag6
ag12
ag6
ag6
ag1
ag6
ag6
ag1
ag1
ag17
ag6
ag6
ag1
ag10
ag20
ag6
ag2
ag6
ag13
ag5
ag13
ag8
ag2
ag6
ag5
ag13
ag1
ag4
ag3
ag3
ag6
ag4
ag1
ag6
ag4
ag2
ag6
ag3
ag1
ag1
ag10
ag3
ag11
ag6
ag8
ag3
ag5
ag13
ag1
ag17
ag5
ag20
ag1
ag1
ag5
ag5
ag12
ag6
ag17
ag1
ag5
ag1
ag6
ag3
ag10
ag10
ag3
ag34
ag1
ag17
ag5
ag20
ag6
ag17
ag2
ag6
ag5
ag11
ag3
ag1
ag8
ag13
ag1
ag4
ag1
ag5
ag2
ag4
ag3
ag3
ag6
ag4
ag5
ag10
ag2
ag6
ag2
ag3
ag20
ag1
ag5
ag10
ag1
ag8
ag2
ag6
ag6
ag34
ag1
ag16
ag2
ag16
ag2
ag1
ag16
ag5
ag6
ag8
ag13
ag5
ag17
ag13
ag10
ag3
ag13
ag4
ag6
ag10
ag3
ag6
ag6
ag8
ag2
ag6
ag17
ag1
ag6
ag10
ag2
ag13
ag17
ag6
ag48
ag13
ag6
ag1
ag6
ag3
ag1
ag13
ag10
ag6
ag2
ag6
ag6
ag10
ag2
ag6
ag6
ag12
ag3
ag2
ag6
ag4
ag3
ag3
ag6
ag4
ag11
ag5
ag13
ag6
ag2
ag6
ag6
ag6
ag10
ag3
ag6
ag6
ag3
ag11
ag1
ag16
ag2
ag6
ag4
ag3
ag3
ag6
ag4
ag8
ag13
ag5
ag2
ag3
ag20
ag1
ag5
ag10
ag1
ag1
ag5
ag5
ag12
ag6
ag17
ag5
ag20
ag6
ag6
ag4
ag2
ag5
ag13
ag1
ag4
ag3
ag3
ag6
ag4
ag1
ag17
ag2
ag6
ag2
ag1
ag6
ag4
ag1
ag3
ag1
ag12
ag2
ag13
ag1
ag11
ag6
ag3
ag1
ag16
ag1
ag3
ag34
ag2
ag6
ag6
ag2
ag12
ag13
ag17
ag1
ag5
ag5
ag3
ag6
ag6
ag8
ag8
ag4
ag6
ag1
ag2
ag1
ag2
ag6
ag1
ag1
ag5
ag1
ag6
ag3
ag6
ag2
ag12
ag2
ag4
ag2
ag5
ag11
ag6
ag6
ag8
ag5
ag1
ag6
ag3
ag6
ag48
ag13
ag1
ag17
ag2
ag6
ag4
ag1
ag14
ag13
ag16
ag6
ag16
ag3
ag6
ag1
ag6
ag2
ag6
ag4
ag2
ag6
ag3
ag1
aVf
p230
ag3
ag47
ag110
ag110
ag110
ag10
ag3
ag6
ag6
ag3
ag5
ag8
ag13
ag3
ag6
ag8
ag6
ag3
ag2
ag1
ag2
ag6
aVz
p231
ag6
ag3
ag5
ag6
ag1
ag16
ag2
ag10
ag3
ag1
ag16
ag16
ag3
ag11
ag6
ag1
ag3
ag13
ag4
ag2
ag2
ag6
ag4
ag3
ag16
aVl
p232
aVc
p233
ag6
ag13
ag3
ag1
ag19
ag6
ag3
ag17
ag3
ag1
ag6
aVg
p234
ag3
ag11
ag6
aVg
p235
ag3
ag6
ag12
ag6
ag5
ag13
ag6
ag1
ag3
ag17
ag3
ag1
ag6
ag16
ag3
ag11
ag6
ag3
ag10
ag10
ag5
ag4
ag1
ag13
ag6
ag2
ag6
ag3
ag11
ag3
ag13
ag5
ag5
ag3
ag8
ag8
ag3
ag6
ag6
ag4
ag2
ag3
ag4
ag6
ag3
ag4
aVh
p236
ag12
ag6
ag11
ag6
ag3
ag2
ag6
ag48
ag13
ag5
ag8
ag2
ag6
ag8
ag1
ag5
ag16
ag3
ag11
ag10
ag3
ag13
ag4
ag6
ag10
ag6
ag1
ag1
ag2
ag6
ag6
ag2
ag4
ag2
ag6
ag1
ag4
ag3
ag3
ag6
ag4
ag8
ag3
ag6
ag11
ag6
ag3
ag5
ag1
ag4
ag6
ag8
ag8
ag6
ag4
ag1
ag4
ag5
ag13
ag1
ag16
ag2
ag6
aVe
p237
ag11
ag4
ag3
ag3
ag6
ag4
ag1
ag2
ag6
ag11
ag6
ag3
ag4
ag5
ag4
ag4
ag6
ag5
ag6
ag3
ag1
ag4
ag3
ag3
ag6
ag4
ag1
ag8
ag2
ag6
ag11
ag1
ag16
ag3
ag4
ag3
ag8
ag1
ag2
ag6
ag1
ag3
ag13
ag6
ag1
ag10
ag5
ag8
ag3
ag5
ag4
ag3
ag3
ag6
ag4
ag1
aVf
p238
ag3
ag16
ag6
ag6
ag4
ag10
ag10
ag5
ag4
ag1
ag13
ag1
ag16
ag3
ag6
ag16
ag1
ag5
ag16
ag3
ag11
ag8
ag6
ag5
ag10
ag10
ag1
ag16
ag8
ag3
ag16
ag6
ag6
ag6
ag3
ag1
ag1
ag2
ag6
ag4
ag2
ag4
ag6
ag8
ag4
ag3
ag3
ag6
ag4
ag1
ag6
ag2
ag3
ag6
ag6
ag34
ag3
ag6
ag6
ag5
ag10
ag3
ag1
ag17
ag6
ag4
ag13
ag6
ag2
ag6
ag8
ag5
ag16
ag2
ag3
ag6
ag1
ag6
ag13
ag1
ag4
ag1
ag5
ag2
ag16
ag2
ag1
ag8
aVf
p239
ag3
ag2
ag3
ag6
ag1
ag1
ag1
ag13
ag10
ag10
ag3
ag8
ag2
ag6
aVg
p240
ag3
ag11
ag8
ag3
ag2
ag6
aVr
p241
ag6
ag6
ag8
ag1
ag1
ag8
ag2
ag6
ag6
ag3
ag4
ag1
aVv
p242
ag6
ag3
ag4
ag5
ag13
aVg
p243
aVr
p244
aVv
p245
ag10
ag3
ag14
ag6
ag4
ag2
ag6
aVn
p246
ag1
ag5
ag4
ag6
ag1
ag4
ag1
ag10
ag2
ag6
ag3
ag4
ag1
ag3
ag1
aVn
p247
ag1
ag5
aVg
p248
ag6
ag6
ag4
ag13
ag3
ag11
ag6
aVn
p249
aVg
p250
ag1
aVf
p251
ag13
ag16
ag3
aVg
p252
ag6
ag10
ag5
ag2
ag11
ag6
ag1
ag6
ag10
ag6
ag1
ag6
ag1
ag5
ag6
ag11
ag6
ag5
ag10
ag6
ag3
ag17
ag3
ag1
ag6
ag16
ag3
ag11
ag10
ag3
ag4
ag6
ag1
ag16
ag8
ag12
ag3
ag6
ag10
ag4
ag19
ag16
ag6
ag8
ag3
aVg
p253
ag4
ag5
ag5
ag6
aVn
p254
ag6
ag12
ag1
ag1
aVg
p255
ag3
ag11
aVp
p256
aVr
p257
ag3
ag6
ag10
aVg
p258
ag6
ag10
ag2
ag4
ag5
ag1
ag11
ag6
ag3
ag1
ag6
ag2
ag3
ag6
ag13
ag6
ag10
ag3
ag8
ag1
ag1
ag6
ag3
ag10
ag3
ag6
ag1
ag10
ag3
ag4
ag6
ag2
ag6
ag6
ag19
ag8
ag8
ag6
ag3
ag6
ag1
ag6
ag16
ag6
ag5
ag16
ag4
ag13
ag1
ag10
ag3
ag11
ag6
ag2
ag6
ag3
ag6
ag5
ag17
ag5
ag8
ag16
ag6
ag5
ag16
ag4
ag8
ag8
ag6
ag3
ag6
ag1
ag1
ag17
ag6
ag1
ag3
ag6
ag4
ag11
ag6
ag3
ag6
ag16
ag6
ag8
ag3
ag16
ag6
ag10
ag2
ag4
ag5
ag1
ag11
ag6
ag3
ag1
ag12
ag6
ag2
ag11
ag6
ag6
ag11
ag6
ag5
ag10
ag6
ag13
ag5
ag1
ag4
ag5
ag13
ag6
ag3
ag1
ag16
ag1
ag11
ag6
ag3
ag1
ag5
ag16
ag3
ag2
ag2
ag4
ag1
ag1
ag4
ag3
ag10
ag3
ag6
ag4
ag5
ag10
ag6
ag3
ag10
ag2
ag4
ag5
ag1
ag6
ag6
ag3
ag1
ag4
ag16
ag6
ag10
ag2
ag4
ag5
ag1
ag11
ag6
ag3
ag1
ag8
ag3
ag6
ag12
ag3
ag19
ag2
ag3
ag13
ag16
ag2
ag2
ag6
ag13
ag6
ag8
ag2
ag6
ag8
ag13
ag20
ag20
ag4
ag6
ag1
ag4
ag5
ag13
ag6
ag3
ag1
ag16
ag6
ag4
ag2
ag1
ag48
ag13
ag6
aVp
p259
ag6
ag3
ag10
ag2
ag4
ag5
ag3
ag6
ag3
ag6
ag6
ag1
ag2
ag6
ag10
ag3
ag6
ag6
ag3
ag1
ag1
ag2
ag6
ag6
ag12
ag2
ag16
ag6
ag10
ag2
ag4
ag5
ag3
ag6
ag3
ag6
ag6
ag1
ag2
ag6
ag10
ag5
ag1
ag1
ag2
ag6
ag6
ag12
ag8
ag8
ag6
ag3
ag6
ag1
ag10
ag6
ag8
ag3
ag6
ag13
ag5
ag1
ag6
ag13
ag5
ag1
ag11
ag6
ag3
ag6
ag1
ag2
ag6
ag3
ag3
ag6
ag10
ag6
ag4
ag11
ag6
ag1
ag2
ag3
ag13
ag16
ag2
ag2
ag6
ag1
ag20
ag1
ag8
ag1
ag16
ag5
ag6
ag4
ag1
ag17
ag14
ag6
ag4
ag11
ag6
ag8
ag13
ag1
ag4
ag1
ag2
ag6
ag3
ag6
ag13
ag5
ag1
ag16
ag10
ag2
ag4
ag5
ag10
ag3
ag10
ag6
ag3
ag6
ag5
ag2
ag1
ag3
ag2
ag6
ag16
ag6
ag10
ag2
ag4
ag5
ag1
ag10
ag6
ag3
ag10
ag2
ag4
ag5
ag1
ag2
ag6
ag3
ag6
ag8
ag3
ag6
ag4
ag1
ag3
ag6
ag10
ag3
ag6
ag6
ag1
ag2
ag6
ag6
ag3
ag2
ag17
ag6
ag6
ag3
ag2
ag1
ag16
ag6
ag10
ag2
ag4
ag5
ag1
ag11
ag6
ag3
ag1
ag6
ag5
ag2
ag5
ag6
ag5
ag2
ag1
ag3
ag2
ag6
ag16
ag6
ag10
ag2
ag4
ag5
aVg
p260
ag6
ag10
ag2
ag4
ag5
ag1
ag11
ag6
ag3
ag1
ag1
ag16
ag6
ag5
ag16
ag8
ag8
ag6
ag3
ag6
ag1
ag1
ag3
ag6
ag16
ag6
ag1
ag6
ag3
ag5
ag5
ag3
aVw
p261
ag6
ag4
ag10
ag3
ag6
ag1
ag1
ag5
ag20
ag6
ag2
ag3
ag3
ag4
ag19
ag3
ag5
ag5
ag1
ag16
ag6
ag5
ag4
ag6
ag1
ag6
ag3
ag16
ag6
ag1
ag17
ag6
ag12
ag6
ag6
ag1
ag1
ag10
ag3
ag6
ag16
ag1
ag6
ag4
ag3
ag1
ag16
ag1
ag3
ag6
ag11
ag6
ag3
ag6
ag4
ag3
ag4
ag13
ag5
ag1
aVr
p262
aVc
p263
ag10
ag6
ag3
ag4
ag13
ag1
ag3
ag5
ag5
ag1
ag16
ag6
ag2
ag8
ag3
ag1
ag6
ag34
ag10
ag6
ag3
ag6
ag1
aVb
p264
ag3
ag13
ag19
ag13
ag1
ag16
ag13
ag2
ag13
ag3
ag5
ag2
ag6
ag12
ag3
ag5
ag5
ag1
ag16
ag6
ag4
ag2
ag1
ag16
ag6
ag1
ag6
ag3
ag6
ag11
ag6
ag3
ag8
ag8
ag6
ag3
ag6
ag1
ag6
ag4
ag12
ag11
ag6
ag8
ag6
ag5
ag2
ag4
ag10
ag3
ag1
ag6
ag10
ag2
ag20
ag6
ag2
ag6
ag3
ag6
ag1
ag6
ag3
ag16
ag3
ag1
ag8
ag8
ag6
ag3
ag6
ag1
ag4
ag6
ag1
ag16
ag1
ag5
ag4
ag2
ag3
ag4
ag6
ag3
ag4
aVf
p265
ag3
ag2
ag6
ag8
ag6
ag5
ag17
ag1
ag11
ag6
ag16
ag1
ag16
ag2
ag6
ag3
ag12
ag6
ag1
ag6
ag3
ag16
ag8
ag3
ag6
ag48
ag13
ag6
ag1
ag4
ag1
ag5
ag1
ag4
ag3
ag4
ag3
ag3
ag6
ag5
ag1
ag6
ag2
ag6
ag6
ag4
ag3
ag6
ag4
ag3
ag8
ag3
ag10
ag6
ag3
ag4
ag13
ag11
ag6
aVr
p266
aVc
p267
ag3
ag5
ag5
ag1
ag16
ag10
ag3
ag11
ag6
ag3
ag1
ag16
ag1
ag4
ag1
ag2
ag2
ag6
ag3
ag5
ag5
ag17
ag6
ag1
ag6
ag3
ag16
ag4
ag13
ag5
ag17
ag6
ag13
ag17
ag5
ag6
ag8
ag3
ag3
ag5
ag5
ag17
ag6
ag4
ag16
ag1
ag16
ag10
ag13
ag3
ag10
ag6
ag2
ag6
ag6
ag1
ag6
ag3
ag16
ag3
ag1
ag8
ag3
ag2
ag6
ag10
ag6
ag3
ag4
ag13
ag11
ag6
aVr
p268
aVc
p269
ag17
ag4
ag13
ag5
ag5
ag10
ag3
ag11
ag6
ag2
ag16
ag2
ag3
ag6
ag5
ag13
ag1
ag16
ag6
ag12
ag2
ag17
ag3
ag6
ag2
ag5
ag6
ag6
ag4
ag4
ag48
ag13
ag1
ag1
ag4
ag1
ag3
ag4
ag10
ag3
ag17
ag5
ag6
ag3
ag5
ag5
ag1
ag16
ag4
ag1
ag1
ag2
ag6
ag4
ag3
ag1
ag16
ag3
ag5
ag5
ag1
ag16
ag13
ag1
ag16
ag1
ag10
ag3
ag6
ag16
ag1
ag6
ag4
ag3
ag1
ag16
ag17
ag12
ag48
ag13
ag6
ag2
ag6
ag3
ag6
ag4
ag13
ag4
ag6
ag1
ag6
ag3
ag16
ag8
ag3
ag2
ag3
ag5
ag5
ag1
ag16
ag6
ag4
ag2
ag1
ag12
ag8
ag8
ag4
ag13
ag5
ag6
ag6
ag4
ag17
ag13
ag3
ag8
ag4
ag6
ag3
ag6
ag4
ag6
ag11
ag6
ag3
ag3
ag3
ag1
ag2
ag6
ag3
ag6
ag12
ag1
ag4
ag2
ag6
ag6
ag34
ag1
ag16
ag10
ag3
ag16
ag12
ag6
ag5
ag4
ag4
ag6
ag10
ag6
ag1
ag2
ag6
ag4
ag3
ag6
ag4
ag4
ag13
ag1
ag6
ag3
ag2
ag6
ag10
ag17
ag5
ag8
ag13
ag1
ag17
ag16
ag13
ag13
ag6
ag1
ag8
ag8
ag13
ag5
ag5
ag6
ag4
ag6
ag1
ag6
ag1
ag3
ag8
ag3
ag2
ag3
ag6
ag6
ag4
ag10
ag1
ag6
ag1
ag3
ag6
ag4
ag3
ag6
ag1
ag1
ag16
ag5
ag6
ag3
ag16
ag2
ag17
ag3
ag6
ag2
ag5
ag6
ag2
ag6
ag6
ag6
ag1
ag8
ag1
ag11
ag6
ag3
ag1
ag1
ag1
ag13
ag1
ag48
ag13
ag6
ag1
ag6
ag3
ag6
ag5
ag6
ag2
ag6
ag5
ag4
ag19
ag8
ag5
ag5
ag13
ag1
ag1
ag8
ag2
ag6
ag8
ag8
ag10
ag5
ag1
ag6
ag6
ag1
ag4
ag10
ag1
ag6
ag1
ag1
ag2
ag6
ag20
ag6
ag3
ag5
ag1
ag16
ag5
ag6
ag3
ag10
ag6
ag3
ag13
ag3
ag6
ag4
ag5
ag13
ag6
ag2
ag6
ag5
ag12
ag1
ag6
ag11
ag6
ag4
ag3
ag1
ag3
ag5
ag2
ag6
ag3
ag6
ag5
ag6
ag11
ag1
ag12
ag11
ag6
ag8
ag3
ag1
ag17
ag6
ag4
ag1
ag8
ag1
ag6
ag2
ag6
ag10
ag5
ag1
ag6
ag4
ag1
ag1
ag1
ag16
ag2
ag6
ag3
ag3
ag14
ag6
ag4
ag3
ag6
ag5
ag2
ag13
ag16
ag2
ag13
ag4
ag2
ag3
ag3
ag1
ag16
ag6
ag6
ag1
ag8
ag2
ag6
ag3
ag1
ag5
ag12
ag1
ag6
ag6
ag19
ag6
ag10
ag5
ag4
ag6
ag8
ag3
ag11
ag6
ag3
ag4
ag5
ag12
ag6
ag5
ag5
ag3
ag5
ag5
ag6
ag1
ag2
ag3
ag20
ag1
ag5
ag5
ag5
ag6
ag3
ag6
ag3
ag10
ag4
ag1
aVv
p270
ag3
ag1
ag11
ag6
ag3
ag6
ag5
ag3
ag10
ag4
ag12
ag2
ag11
ag6
ag3
ag4
ag5
ag6
ag3
ag34
ag8
ag3
ag1
ag20
ag13
ag2
ag5
ag1
ag3
ag10
ag4
ag1
ag5
ag6
ag34
ag10
ag6
ag4
ag6
ag8
ag3
ag2
ag3
ag13
ag5
ag4
ag5
ag5
ag8
ag3
ag4
ag13
ag3
ag6
ag2
ag3
ag4
ag3
ag17
ag1
ag17
ag6
ag3
ag1
ag16
ag2
ag5
ag6
ag19
ag6
ag2
ag6
ag5
ag12
ag1
ag6
ag11
ag6
ag4
ag3
ag6
ag11
ag6
ag8
ag3
ag10
ag5
ag1
ag6
ag3
ag3
ag1
ag16
ag6
ag2
ag6
ag6
ag5
ag11
ag6
ag1
ag1
ag1
ag20
ag6
ag3
ag5
ag1
ag16
ag5
ag6
ag10
ag6
ag3
ag13
ag3
ag6
ag1
ag6
ag5
ag2
ag6
ag3
ag6
ag4
ag5
ag5
ag13
ag1
ag48
ag13
ag6
ag1
ag11
ag6
ag3
ag6
ag10
ag3
ag17
ag5
ag6
ag8
ag3
ag6
ag4
ag6
ag1
ag6
ag1
ag3
ag2
ag10
ag10
ag6
ag3
ag6
ag34
ag1
ag6
ag2
ag6
ag10
ag3
aVw
p271
ag6
ag2
ag11
ag6
ag1
ag5
ag20
ag6
ag2
ag6
ag6
ag6
ag10
ag6
ag1
ag6
ag1
ag10
ag3
ag10
ag6
ag3
ag6
ag8
ag2
ag6
ag17
ag6
ag1
ag6
ag4
ag12
ag11
ag6
ag8
ag6
ag5
ag17
ag6
ag12
ag6
ag6
ag1
ag110
ag46
ag1
ag141
aVh
p272
ag20
ag6
ag6
ag4
ag3
ag6
ag5
ag11
ag6
ag1
ag3
ag1
ag16
ag6
ag2
ag6
ag6
ag8
ag3
ag1
ag1
ag13
ag4
ag6
ag17
ag2
ag6
ag12
ag6
ag3
ag1
ag14
ag6
ag4
ag1
ag4
ag6
ag12
ag2
ag2
ag6
ag13
ag5
ag1
ag8
ag2
ag6
ag53
ag110
ag110
ag131
ag6
ag6
ag10
aVh
p273
ag6
ag1
ag1
ag16
aVp
p274
ag3
ag14
ag6
ag4
ag1
ag2
ag6
ag4
ag8
aVb
p275
ag6
ag5
ag12
ag20
ag6
ag3
ag5
ag1
ag2
ag6
ag10
ag10
ag5
ag4
ag1
ag8
ag10
ag11
ag6
ag6
ag2
ag5
ag5
ag12
ag6
ag2
ag6
ag6
ag6
ag4
ag1
ag8
ag1
ag6
ag4
ag3
ag1
ag6
ag1
ag8
ag10
ag10
ag3
ag34
ag6
ag5
ag47
ag78
ag13
ag3
ag1
ag2
ag17
ag6
ag16
ag1
ag12
ag2
ag2
ag6
ag1
ag6
ag8
ag2
ag6
ag3
ag6
ag6
ag3
ag11
ag3
ag13
ag5
ag1
aVp
p276
ag6
ag19
ag6
ag8
ag3
ag1
ag12
ag3
ag6
ag4
ag2
ag6
ag6
ag46
ag78
ag8
ag6
ag3
ag2
ag6
ag17
ag5
ag6
ag6
ag8
ag8
ag1
ag8
ag6
ag3
ag2
ag6
ag1
ag13
ag4
ag6
ag6
ag4
ag4
ag6
ag6
aVw
p277
ag6
ag3
ag6
ag5
ag11
ag6
ag16
ag1
ag8
ag4
ag1
ag1
ag4
ag3
ag6
ag6
ag1
ag6
ag4
ag11
ag6
ag5
ag4
ag6
ag1
ag13
ag5
ag1
ag6
ag13
ag6
ag4
ag3
ag3
ag6
ag5
ag1
ag8
ag2
ag6
ag1
ag6
ag4
ag3
ag3
ag6
ag5
ag1
ag4
ag12
ag11
ag6
ag8
ag3
ag2
ag6
ag12
ag11
ag6
ag8
ag6
ag5
ag10
ag3
ag10
ag6
ag3
ag6
ag10
ag5
ag6
ag2
ag2
ag6
ag6
ag3
ag5
ag3
ag6
ag10
ag1
ag6
ag12
ag1
ag3
ag6
ag1
ag5
ag1
ag2
ag6
ag6
ag6
ag1
ag3
ag5
ag6
ag3
ag5
ag53
ag78
ag19
ag17
ag11
ag6
ag2
ag6
ag13
ag5
ag6
ag11
ag5
ag13
ag6
ag2
ag12
ag10
ag10
ag3
ag34
ag6
ag5
ag142
ag78
ag19
ag6
ag6
ag10
aVw
p278
ag6
ag1
ag11
ag6
ag3
ag6
ag2
ag6
ag11
ag6
ag5
ag4
ag4
ag2
ag1
ag16
ag6
ag1
ag6
ag4
ag3
ag3
ag6
ag5
ag1
ag6
ag6
ag2
ag6
ag10
ag5
ag3
ag17
ag13
ag1
ag8
ag2
ag6
ag6
ag13
ag4
ag2
ag1
ag16
ag6
ag2
ag6
ag3
ag6
ag13
ag5
ag1
ag16
ag16
ag5
ag2
ag13
ag16
ag2
ag2
ag6
ag11
ag5
ag3
ag6
ag1
ag6
ag1
ag3
ag13
ag3
ag6
ag13
ag3
ag4
ag6
ag1
ag4
ag1
ag6
ag4
ag1
ag3
ag1
ag16
ag3
ag16
ag6
ag2
ag6
ag3
ag16
ag6
ag10
ag2
ag4
ag5
ag10
ag3
ag10
ag6
ag3
ag6
ag3
ag6
ag1
ag10
ag3
ag5
ag13
ag1
ag6
ag3
ag2
ag6
ag2
ag6
ag3
ag13
ag5
ag13
ag8
ag10
ag3
ag4
ag13
ag5
ag3
ag1
ag6
ag3
ag6
ag17
ag6
ag4
ag13
ag6
ag13
ag1
ag6
ag3
ag2
ag6
ag3
ag16
ag2
ag4
ag1
ag1
ag2
ag6
ag6
ag5
ag4
ag1
ag3
ag1
ag12
ag11
ag6
aVh
p279
ag12
ag6
ag11
ag6
ag3
ag2
ag6
ag3
ag6
ag5
ag3
ag16
ag6
ag13
ag1
ag4
ag6
ag3
ag1
ag1
ag2
ag12
ag6
ag13
ag3
ag6
ag2
ag6
ag2
ag6
ag3
ag13
ag5
ag13
ag8
ag2
ag6
ag11
ag5
ag2
ag6
ag13
ag6
ag8
ag2
ag6
ag3
ag2
ag6
ag6
ag6
ag3
ag4
ag1
ag1
ag4
ag2
ag6
ag4
ag5
ag6
ag1
ag16
ag1
ag6
ag6
ag3
ag1
ag16
ag10
ag10
ag5
ag4
ag1
ag2
ag17
ag6
ag6
ag1
ag10
ag3
ag10
ag6
ag16
ag5
ag6
ag3
ag1
ag11
ag6
ag6
ag1
ag1
ag4
ag10
ag3
ag6
ag1
ag6
ag4
ag2
ag1
ag48
ag13
ag6
aVr
p280
ag2
ag6
ag6
ag6
ag3
ag3
ag6
ag1
ag3
ag4
ag11
ag6
ag5
ag6
ag3
ag1
ag11
ag6
ag8
ag3
ag6
ag13
ag3
ag1
ag16
ag2
ag6
ag2
ag6
ag3
ag13
ag5
ag13
ag17
ag6
ag4
ag13
ag6
ag8
ag2
ag6
ag3
ag12
ag6
ag10
ag3
ag6
ag13
ag6
ag1
ag11
ag5
ag17
ag5
ag1
ag3
ag6
ag3
ag6
ag2
ag6
ag11
ag5
ag8
ag2
ag6
ag3
ag2
ag6
ag6
ag6
ag3
ag6
ag2
ag6
ag13
ag3
ag6
ag2
ag6
ag2
ag6
ag3
ag13
ag5
ag13
ag8
ag2
ag6
ag11
ag5
ag8
ag3
ag16
ag6
ag10
ag2
ag4
ag5
ag10
ag10
ag5
ag4
ag1
ag12
ag6
ag6
ag6
ag12
ag10
ag5
ag6
ag13
ag1
ag16
ag6
ag4
ag2
ag1
ag48
ag13
ag6
ag8
ag5
ag3
ag16
ag6
ag10
ag2
ag4
ag6
ag1
ag1
ag4
ag10
ag3
ag6
ag1
ag1
ag13
ag5
ag3
ag1
ag4
ag1
ag4
ag10
ag3
ag6
ag2
ag6
ag3
ag6
ag13
ag5
ag12
ag2
ag2
ag6
ag3
ag2
ag6
ag6
ag6
ag3
ag6
ag13
ag3
ag6
ag6
ag1
aVw
p281
ag6
ag1
ag4
ag6
ag8
ag8
ag6
ag3
ag6
ag1
ag4
ag6
ag1
ag2
ag6
ag6
ag13
ag3
ag6
ag2
ag6
ag3
ag13
ag5
ag13
ag17
ag6
ag12
ag6
ag6
ag1
ag2
ag6
ag12
ag6
ag4
ag2
ag1
ag48
ag13
ag6
ag2
ag6
ag10
ag5
ag6
ag2
ag12
ag6
ag5
ag5
aVw
p282
ag6
ag2
ag11
ag6
ag6
ag1
ag3
ag6
ag2
ag6
ag6
ag8
ag8
ag6
ag4
ag8
ag4
ag3
ag6
ag4
ag1
ag6
ag1
ag1
ag2
ag6
ag4
ag13
ag4
ag10
ag3
ag10
ag6
ag3
ag6
ag8
ag12
ag6
ag5
ag5
ag4
ag1
ag3
ag5
ag5
ag6
ag4
ag3
ag3
ag13
ag4
ag13
ag3
ag6
ag2
ag3
ag6
ag4
ag3
ag6
ag6
ag1
ag2
ag6
ag5
ag17
ag3
ag3
ag4
ag5
ag6
ag5
ag4
ag2
ag6
ag8
ag4
ag3
ag17
ag1
ag6
ag3
ag4
ag19
ag1
ag10
ag3
ag4
ag13
ag5
ag3
ag12
ag6
ag6
ag34
ag1
ag6
ag2
ag6
ag6
ag8
ag8
ag6
ag4
ag8
ag4
ag3
ag6
ag4
ag1
ag6
ag1
ag1
ag2
ag6
ag4
ag13
ag4
ag11
ag6
ag5
ag4
ag6
ag1
ag11
ag8
ag11
ag6
ag5
ag4
ag10
ag3
ag6
ag13
ag3
ag6
ag1
ag4
ag2
ag1
ag16
ag6
ag1
ag11
ag6
ag5
ag4
ag3
ag6
ag13
ag5
ag1
ag16
ag8
ag3
ag5
ag13
ag1
ag13
ag10
ag1
ag13
ag3
ag1
ag12
ag2
ag3
ag6
ag4
ag11
ag6
ag8
ag5
ag13
aVw
p283
ag6
ag8
ag5
ag5
ag12
ag6
ag13
ag1
ag2
ag4
ag5
ag8
ag4
ag1
ag1
ag8
ag17
ag3
ag4
ag6
ag2
ag6
ag10
ag5
ag6
ag17
ag34
ag1
ag16
ag4
ag3
ag6
ag1
ag20
ag6
ag1
ag11
ag6
ag3
ag8
ag1
ag6
ag4
ag3
ag6
ag20
ag6
ag4
ag5
ag4
ag6
ag16
ag3
ag1
ag1
ag8
ag8
ag6
ag3
ag6
ag1
ag3
ag1
ag2
ag6
ag1
ag4
ag5
ag4
ag10
ag3
ag6
ag1
ag16
ag2
ag6
ag34
ag13
ag3
ag6
ag2
ag6
ag4
ag13
ag4
ag11
ag6
ag5
ag4
ag6
ag12
ag6
ag3
ag6
ag6
ag13
ag3
ag6
ag13
ag1
ag6
ag3
ag17
ag6
ag1
ag4
ag2
ag10
ag4
ag1
ag1
ag1
ag8
ag13
ag1
ag4
ag1
ag8
ag4
ag1
ag8
ag1
ag1
ag16
ag10
ag3
ag6
ag13
ag3
ag6
ag17
ag6
ag8
ag3
ag6
ag1
ag8
ag6
ag3
ag2
ag6
ag1
ag14
ag6
ag4
ag1
ag8
aVc
p284
ag53
ag48
ag13
ag6
ag13
ag5
ag13
ag1
ag2
ag6
ag17
ag6
ag1
ag4
ag2
ag10
ag6
ag13
ag3
ag6
ag6
ag1
ag1
ag4
ag6
ag2
ag2
ag6
ag1
ag8
ag4
ag3
ag6
ag6
ag2
ag6
ag8
ag3
ag6
ag8
ag2
ag6
ag4
ag3
ag17
ag1
ag6
ag10
ag5
ag6
ag8
ag8
ag6
ag3
aVb
p285
ag6
ag4
ag13
ag6
ag2
ag6
ag6
ag1
ag11
ag8
ag11
ag6
ag5
ag4
ag10
ag3
ag6
ag13
ag3
ag6
ag6
ag4
ag3
ag6
ag6
ag2
ag6
ag4
ag1
ag6
ag1
ag8
ag4
ag3
ag6
ag1
ag4
ag3
ag6
ag6
ag12
ag6
ag2
ag10
ag2
ag6
ag20
ag6
ag8
ag8
ag6
ag3
ag10
ag3
ag6
ag3
ag13
ag4
ag13
ag3
ag6
ag1
aVw
p286
ag6
ag2
ag11
ag6
ag4
ag1
ag6
ag3
ag6
ag2
ag6
ag10
ag3
ag17
ag5
ag6
ag8
ag13
ag1
ag16
ag4
ag3
ag6
ag4
ag4
ag2
ag3
ag4
ag6
ag3
ag20
ag6
ag2
ag6
ag8
ag5
ag12
ag8
ag1
ag14
ag6
ag4
ag6
ag8
ag5
ag13
ag13
ag3
ag1
ag16
ag2
ag3
ag13
ag5
ag4
ag8
ag3
ag4
ag13
ag3
ag1
ag16
aVw
p287
ag6
ag2
ag11
ag6
ag6
ag11
ag6
ag5
ag10
ag6
ag10
ag5
ag6
ag10
ag3
ag17
ag17
ag5
ag4
ag10
ag2
ag4
ag5
ag6
ag5
ag2
ag3
ag6
ag4
ag5
ag6
ag2
ag6
ag8
ag5
ag13
ag10
ag3
ag6
ag13
ag3
ag6
ag1
ag2
ag6
ag13
ag17
ag13
ag3
ag8
ag4
ag6
ag13
ag3
ag1
ag16
ag2
ag6
ag1
ag14
ag6
ag4
ag1
ag17
ag6
ag3
ag11
ag1
ag8
ag1
ag13
ag4
ag6
ag4
ag3
ag6
ag4
ag2
ag3
ag4
ag17
ag5
ag6
ag6
ag5
ag1
ag4
ag5
ag13
ag6
ag19
ag6
ag10
ag2
ag4
ag5
ag10
ag3
ag6
ag6
ag3
ag2
ag8
ag8
ag6
ag4
ag8
ag5
ag13
ag10
ag3
ag6
ag13
ag3
ag6
ag3
ag4
ag19
ag8
ag5
ag13
ag3
ag6
ag1
ag6
ag4
ag12
ag11
ag6
ag10
ag3
ag10
ag16
ag1
ag5
ag6
ag1
ag17
ag5
ag6
ag3
ag16
ag3
ag13
ag13
ag1
ag4
ag6
ag3
ag1
ag48
ag13
ag1
ag8
ag4
ag1
ag1
ag5
ag8
ag2
ag6
ag8
ag3
ag12
ag3
ag6
ag5
ag1
ag2
ag6
ag1
ag11
ag6
ag3
ag1
aVw
p288
ag6
ag2
ag11
ag6
ag13
ag6
ag2
ag10
ag3
ag17
ag17
ag5
ag4
ag3
ag4
ag19
ag8
ag5
ag13
ag3
ag6
ag6
ag5
ag1
ag11
ag6
ag3
ag8
ag3
ag8
ag5
ag13
ag10
ag3
ag6
ag13
ag3
ag6
ag13
ag3
ag1
ag16
ag1
ag14
ag6
ag4
ag1
ag8
ag3
ag1
ag2
ag6
ag4
ag5
ag5
ag16
ag6
ag1
ag6
ag3
ag6
ag4
ag3
ag6
ag4
ag1
ag48
ag13
ag1
ag8
ag2
ag6
ag13
ag1
ag4
ag6
ag3
ag1
ag8
ag2
ag1
ag11
ag6
ag3
ag1
ag2
ag6
ag3
ag6
ag13
ag5
ag8
ag13
ag3
ag1
ag5
ag4
ag1
ag17
ag6
ag13
ag6
ag6
ag2
ag6
ag6
ag8
ag8
ag6
ag4
ag11
ag6
ag1
ag6
ag8
ag4
ag3
ag6
ag4
ag1
ag3
ag1
ag16
ag1
ag16
ag11
ag6
ag1
ag6
ag34
ag10
ag6
ag3
ag6
ag1
ag1
ag6
ag11
ag6
ag1
ag13
ag16
ag16
ag6
ag12
ag10
ag3
ag11
ag6
ag2
ag6
ag48
ag13
ag5
ag1
ag11
ag5
ag13
ag6
ag8
ag1
ag3
ag1
ag16
ag2
ag6
ag13
ag16
ag6
ag1
ag1
ag8
ag5
ag12
ag8
ag3
ag6
ag48
ag13
ag6
ag1
ag4
ag6
ag1
ag10
ag3
ag1
ag10
ag3
ag17
ag5
ag6
ag8
ag3
ag1
ag11
ag6
ag3
ag1
ag16
ag6
ag4
ag3
ag6
ag8
ag5
ag6
ag4
ag1
ag2
ag3
ag13
ag16
ag2
ag1
ag4
ag13
ag4
ag4
ag6
ag3
ag1
ag16
ag10
ag10
ag3
ag4
ag2
ag12
ag6
ag2
ag11
ag6
ag4
ag2
ag3
ag4
ag6
ag3
ag20
ag6
ag2
ag12
ag2
ag6
ag12
ag1
ag20
ag6
ag3
ag8
ag3
ag6
ag48
ag13
ag6
ag1
ag4
ag16
ag3
ag12
ag1
ag10
ag3
ag1
ag4
ag6
ag12
ag2
ag1
ag4
ag3
ag6
ag1
ag16
ag6
ag10
ag2
ag1
ag2
ag6
ag20
ag6
ag8
ag2
ag6
ag11
ag6
ag5
ag4
ag4
ag1
ag3
aVw
p289
ag6
ag2
ag11
ag6
ag6
ag11
ag6
ag5
ag10
ag6
aVh
p290
ag6
ag3
ag6
ag3
ag17
ag13
ag6
ag10
ag10
ag3
ag34
ag1
ag8
ag13
ag1
ag4
ag1
ag5
aVh
p291
aVf
p292
ag1
ag10
ag1
ag1
ag16
ag6
ag2
ag2
ag10
ag3
ag11
ag6
ag5
ag6
ag48
ag13
ag3
ag6
ag8
ag1
ag16
ag8
ag2
ag6
ag4
ag13
ag4
ag3
ag6
ag8
ag5
ag6
ag4
ag1
ag12
ag1
ag20
ag6
ag3
ag8
ag3
ag6
ag48
ag13
ag6
ag1
ag4
ag2
ag6
aVh
p293
aVf
p294
ag8
ag1
ag16
ag10
ag10
ag5
ag6
ag2
ag6
ag8
ag3
aVb
p295
ag3
ag1
ag10
ag10
ag3
ag34
ag1
ag8
ag3
ag4
ag10
ag4
ag11
ag6
ag5
ag4
ag4
ag1
ag3
ag2
ag6
ag10
ag1
ag17
ag6
ag10
ag2
ag11
ag6
ag5
ag4
ag6
ag3
ag6
ag6
ag48
ag13
ag5
ag6
ag11
ag6
ag3
ag5
ag8
ag1
ag16
ag4
ag1
ag3
ag1
ag3
ag6
ag6
ag3
ag11
ag6
ag13
ag1
ag16
ag5
ag3
ag6
ag34
ag10
ag1
ag1
ag8
ag2
ag6
ag3
ag6
ag8
ag5
ag6
ag4
ag1
ag1
ag6
ag3
ag20
ag6
ag3
ag8
ag3
ag6
ag48
ag13
ag6
ag1
ag4
ag2
ag6
ag10
ag3
ag11
ag6
ag4
ag13
ag10
ag5
ag1
ag16
ag12
ag2
ag2
ag6
ag8
ag3
aVb
p296
ag3
ag1
ag10
ag10
ag3
ag34
ag1
ag8
ag2
ag6
ag11
ag6
ag5
ag4
ag4
ag1
ag3
ag2
ag6
ag6
ag2
ag4
ag1
ag17
ag6
ag6
ag34
ag6
ag1
ag6
ag2
ag6
ag16
ag6
ag1
ag6
ag3
ag5
ag16
ag6
ag10
ag2
ag4
ag5
ag4
ag6
ag1
ag12
ag2
ag4
ag2
ag2
ag6
ag8
ag1
ag5
ag11
ag6
ag5
ag4
ag6
ag8
ag8
ag6
ag3
ag6
ag1
ag8
ag3
ag2
ag6
ag3
ag1
ag16
ag11
ag6
ag5
ag4
ag17
ag13
ag6
ag8
ag2
ag6
ag3
ag6
ag12
ag11
ag6
aVb
p297
ag3
ag1
ag10
ag10
ag3
ag34
ag1
aVn
p298
ag13
ag6
ag3
ag4
ag5
ag3
ag6
ag13
ag5
ag8
ag3
ag46
aVe
p299
ag5
ag4
ag8
ag13
ag5
ag5
ag12
ag11
ag6
ag8
ag3
ag1
ag11
ag6
ag3
ag1
aVf
p300
aVw
p301
ag4
ag1
ag16
ag6
ag1
ag6
ag3
ag5
ag5
ag6
ag5
ag13
ag17
ag13
ag3
ag8
ag4
ag6
ag6
ag5
ag10
ag3
ag6
ag6
ag3
ag8
ag2
ag16
ag2
ag10
ag5
ag3
ag6
ag5
ag13
ag1
aVh
p302
ag12
ag6
ag11
ag6
ag3
ag2
ag6
ag4
ag10
ag13
ag1
ag5
ag1
ag3
ag16
ag6
ag17
ag13
ag3
ag6
ag1
ag3
ag6
ag6
ag1
ag13
ag16
ag6
ag2
ag10
ag3
ag17
ag5
ag6
ag12
ag6
ag6
ag11
ag6
ag5
ag10
ag6
ag2
ag6
ag8
ag5
ag5
ag12
ag1
ag16
ag2
ag3
ag6
ag6
ag3
ag6
ag16
ag6
aVf
p303
ag3
ag12
ag6
ag6
ag3
ag11
ag6
ag6
ag10
ag4
ag6
ag1
ag10
ag11
ag6
ag16
ag16
ag6
ag3
ag6
ag16
ag3
ag8
ag1
ag6
ag8
ag8
ag6
ag3
ag6
ag1
ag4
ag6
ag6
ag2
ag2
ag6
ag20
ag6
ag8
ag2
ag6
ag4
ag5
ag4
ag13
ag5
ag1
ag12
ag3
ag6
ag13
ag4
ag6
ag17
ag13
ag1
ag16
ag5
ag5
ag6
ag3
ag10
ag6
ag3
ag3
ag5
ag6
ag1
ag16
ag2
ag8
ag3
ag2
ag16
ag2
ag12
ag11
ag6
ag11
ag6
ag5
ag4
ag6
ag6
ag4
ag1
ag12
ag6
ag6
ag11
ag5
ag13
ag6
ag13
ag5
ag4
ag5
ag6
ag6
ag5
ag4
aVf
p304
aVw
p305
ag4
ag2
ag6
ag6
ag17
ag6
ag1
ag2
ag6
ag6
ag4
ag1
ag16
ag6
ag1
ag6
ag3
ag1
ag12
ag11
ag6
ag5
ag6
ag17
ag12
ag2
ag4
ag2
ag4
ag5
ag6
ag6
ag4
ag10
ag1
ag8
ag1
ag6
ag5
ag10
ag4
ag6
ag12
ag6
ag3
ag6
ag10
ag5
ag6
ag6
ag1
ag6
aVw
p306
ag2
ag2
ag6
ag4
ag5
ag6
ag1
ag4
ag3
ag6
ag1
ag16
ag10
ag5
ag10
ag5
ag1
ag16
ag1
ag6
ag3
ag11
ag5
ag1
ag6
ag6
ag10
ag17
ag6
ag4
ag6
ag5
ag3
ag16
ag6
ag3
ag2
ag6
ag3
ag6
ag8
ag3
ag6
ag2
ag6
ag1
ag13
ag4
ag10
ag13
ag1
ag5
ag4
ag4
ag13
ag5
ag17
ag6
ag4
ag2
ag6
ag11
ag6
ag17
ag4
ag17
ag1
ag1
ag16
ag2
ag6
ag11
ag3
ag17
ag5
ag6
ag10
ag6
ag3
ag3
ag5
ag6
ag1
ag16
ag2
ag4
ag2
ag6
ag6
ag12
ag2
ag2
ag6
ag13
ag5
ag4
ag5
ag6
ag4
ag2
ag6
ag6
ag2
ag3
ag6
ag4
ag1
ag20
ag6
ag2
ag6
ag6
ag3
ag4
ag1
ag13
ag10
ag1
ag12
ag6
ag6
ag34
ag6
ag1
ag6
ag2
ag6
ag6
ag8
ag8
ag4
ag6
ag1
ag17
ag13
ag1
ag3
ag3
ag16
ag6
ag1
ag4
ag2
ag6
ag4
ag19
ag10
ag1
ag1
ag16
ag4
ag2
ag6
ag6
ag1
ag6
ag5
ag4
aVf
p307
aVw
p308
ag1
ag5
ag12
ag11
ag6
ag8
ag6
ag5
ag8
ag6
ag11
ag6
ag3
ag5
ag10
ag3
ag1
ag2
ag6
ag17
ag13
ag1
ag3
ag3
ag6
ag17
ag6
ag12
ag6
ag2
ag6
ag1
ag6
ag16
ag3
ag1
ag8
ag8
ag8
ag6
ag3
ag6
ag1
ag16
ag6
ag10
ag2
ag4
ag5
ag2
ag2
ag6
ag10
ag6
ag1
ag5
ag10
ag3
ag11
ag6
ag3
ag6
ag4
ag4
ag13
ag3
ag6
ag6
ag6
ag8
ag13
ag17
ag13
ag3
ag8
ag4
ag6
ag3
ag4
ag19
ag10
ag3
ag10
ag6
ag3
ag6
ag6
ag11
ag6
ag3
ag5
ag6
ag2
ag5
ag16
ag6
ag1
ag6
ag10
ag2
ag11
ag6
ag17
ag6
ag6
ag1
ag6
ag11
ag6
ag5
ag10
ag6
ag11
ag6
ag3
ag2
ag6
ag6
ag3
ag12
ag2
ag2
ag6
ag17
ag14
ag6
ag4
ag11
ag6
ag8
ag3
ag6
ag13
ag4
ag1
ag16
ag6
ag34
ag10
ag5
ag3
ag1
ag3
ag19
aVw
p309
ag6
ag2
ag11
ag6
ag6
ag11
ag6
ag5
ag10
ag6
ag4
ag10
ag6
ag3
ag11
ag6
ag14
ag1
ag1
ag11
ag6
ag3
ag1
ag10
ag10
ag3
ag4
ag2
ag1
ag6
ag1
ag6
ag8
ag4
ag5
ag6
ag3
ag6
ag4
ag11
ag6
ag3
ag8
ag4
ag13
ag4
ag10
ag6
ag1
ag4
ag6
ag13
ag1
ag16
ag6
ag4
ag1
ag16
ag1
ag6
ag6
ag5
ag5
ag13
ag3
ag4
ag1
ag2
ag10
ag10
ag3
ag4
ag2
ag2
ag6
ag10
ag3
ag11
ag6
ag10
ag2
ag12
ag8
ag3
ag6
ag3
ag11
ag6
ag5
ag17
ag13
ag5
ag1
ag16
ag5
ag3
ag16
ag6
ag4
ag5
ag6
ag5
ag12
ag8
ag3
ag6
ag48
ag13
ag6
ag1
ag4
ag1
ag8
ag3
ag1
ag4
ag1
ag6
ag1
ag1
ag3
ag6
ag4
ag5
ag3
ag6
ag4
ag11
ag6
ag3
ag17
ag5
ag6
ag8
ag3
ag2
ag6
ag6
ag4
ag2
ag6
ag6
ag5
ag11
ag6
ag2
ag6
ag10
ag3
ag11
ag6
ag4
ag10
ag5
ag6
ag6
ag1
ag3
ag1
ag8
ag3
ag1
ag6
ag4
ag6
ag10
ag6
ag4
ag5
ag5
ag1
ag6
ag4
ag5
ag5
ag4
ag10
ag5
ag6
ag34
ag6
ag3
ag3
ag1
ag13
ag4
ag2
ag11
ag6
ag3
ag2
ag3
ag13
ag17
ag6
ag5
ag13
ag17
ag17
ag5
ag1
ag13
ag17
ag5
ag4
ag3
ag17
ag1
ag6
ag3
ag6
ag6
ag8
ag3
ag8
ag3
ag3
ag16
ag6
ag17
ag6
ag5
ag12
ag6
ag6
ag10
ag4
ag11
ag6
ag3
ag4
ag1
ag1
ag1
ag16
ag5
ag6
ag1
ag6
ag4
ag1
ag4
ag3
ag6
ag1
ag3
ag5
ag6
ag3
ag3
ag17
ag5
ag1
ag2
ag6
ag2
ag6
ag3
ag2
ag1
ag2
ag6
ag6
ag4
ag10
ag3
ag11
ag6
ag3
ag13
ag4
ag13
ag3
ag5
ag1
ag8
ag3
ag1
ag1
ag6
ag4
ag6
ag3
ag6
ag3
ag11
ag6
ag4
ag4
ag13
ag3
ag6
ag3
ag6
ag11
ag6
ag5
ag8
ag3
ag1
ag11
ag6
ag3
ag1
ag1
ag5
ag5
ag4
ag5
ag6
ag8
ag6
ag13
ag3
ag6
ag13
ag3
ag1
ag16
ag6
aVb
p310
ag6
ag4
ag13
ag6
ag6
ag5
ag1
ag16
ag8
ag3
ag8
ag13
ag5
ag5
ag12
ag11
ag6
ag8
ag3
ag1
ag11
ag6
ag3
ag1
aVf
p311
aVw
p312
ag4
ag1
ag1
ag10
ag3
ag13
ag4
ag6
ag3
ag6
ag8
ag5
ag6
ag4
ag1
ag13
ag1
ag5
ag6
ag2
ag6
ag11
ag6
ag5
ag4
ag6
ag5
ag2
ag2
ag6
ag4
ag6
ag3
ag1
ag16
ag10
ag6
ag1
ag5
ag2
ag16
ag2
ag12
ag11
ag6
ag1
ag13
ag17
ag6
ag3
ag13
ag1
ag16
ag16
ag3
ag1
ag6
ag16
ag3
ag1
ag10
ag3
ag4
ag6
ag16
ag6
ag1
ag6
ag3
ag6
ag6
ag5
ag1
ag16
ag12
ag2
ag4
ag2
ag19
ag6
ag6
ag10
ag1
ag12
ag2
ag1
ag12
ag19
ag1
ag12
ag1
ag3
ag6
ag8
ag5
ag6
ag4
ag1
aVf
p313
aVw
p314
aVr
p315
aVf
p316
aVw
p317
ag4
ag3
ag6
ag17
ag5
ag6
ag5
ag6
ag3
ag1
ag11
ag6
ag4
ag19
ag5
ag6
ag2
ag6
ag3
ag6
ag8
ag5
ag6
ag4
ag1
ag1
ag1
ag5
ag1
ag6
ag3
ag4
ag6
ag12
ag2
aVf
p318
aVw
p319
aVh
p320
ag12
ag6
ag11
ag6
ag3
ag17
ag6
ag4
ag13
ag6
aVr
p321
aVf
p322
aVw
p323
ag6
ag10
ag6
ag1
ag1
ag4
ag1
ag11
ag6
ag1
ag1
ag5
ag3
ag6
ag13
ag5
ag3
ag20
ag6
ag3
ag5
ag16
ag4
ag3
ag3
ag6
ag5
ag1
ag17
ag14
ag6
ag4
ag11
ag6
ag8
ag13
ag1
ag4
ag1
ag2
ag16
ag2
ag1
ag1
ag5
ag1
ag6
ag3
ag4
ag1
ag5
ag5
ag6
ag34
ag12
ag2
ag6
ag1
ag2
ag6
ag3
ag13
ag6
ag10
ag5
ag13
ag6
ag16
ag3
ag1
ag1
ag13
ag6
ag12
ag6
ag5
ag5
ag8
ag3
ag8
ag8
ag6
ag13
ag6
ag4
ag4
ag5
ag6
ag19
ag10
ag10
ag1
ag16
ag11
ag2
ag6
ag4
ag4
ag5
ag6
ag19
ag10
ag10
ag1
ag16
ag1
ag2
ag6
ag1
ag6
ag6
ag8
ag3
ag3
ag13
ag6
ag10
ag5
ag13
ag6
ag16
ag3
ag1
ag12
ag6
ag2
ag11
ag6
ag6
ag11
ag6
ag5
ag10
ag6
ag4
ag3
ag3
ag6
ag5
ag1
ag17
ag6
ag3
ag6
ag8
ag5
ag6
ag4
ag1
ag8
ag13
ag5
ag5
ag12
ag11
ag6
ag8
ag3
ag1
ag11
ag6
ag3
ag1
ag6
ag2
ag13
ag10
ag6
ag2
ag6
ag5
ag12
ag12
ag11
ag6
ag1
ag13
ag17
ag6
ag3
ag4
ag10
ag1
ag6
ag1
ag8
ag2
ag6
ag11
ag6
ag5
ag4
ag6
ag5
ag2
ag6
ag13
ag4
ag4
ag6
ag8
ag2
ag6
ag2
ag3
ag6
ag5
ag6
ag1
ag6
ag1
ag11
ag19
ag6
ag3
ag1
ag6
ag5
ag6
ag4
ag10
ag1
ag1
ag4
ag3
ag3
ag6
ag5
ag1
ag17
ag6
ag17
ag14
ag6
ag4
ag11
ag6
ag8
ag13
ag1
ag4
ag1
ag2
ag6
ag6
ag1
ag11
ag19
ag6
ag3
ag1
ag6
ag5
ag6
ag4
ag10
ag1
ag19
ag6
ag10
ag17
ag5
ag6
ag6
ag10
ag3
ag6
ag13
ag2
ag6
aVf
p324
ag13
ag5
ag5
ag12
ag11
ag6
ag8
ag3
ag1
ag11
ag6
ag3
ag1
aVf
p325
aVw
p326
ag3
ag10
ag5
ag17
ag6
ag4
ag1
ag16
ag1
ag3
ag5
ag8
ag3
ag2
ag16
ag2
ag3
ag6
ag5
ag13
ag1
ag11
ag6
ag5
ag4
ag6
ag1
aVh
p327
ag12
ag6
ag11
ag6
ag3
ag2
ag6
ag10
ag10
ag5
ag4
ag1
ag8
ag2
ag6
ag2
ag13
ag13
ag5
ag5
ag5
ag6
ag5
ag12
ag8
ag3
ag6
ag48
ag13
ag6
ag1
ag4
ag6
ag13
ag6
ag2
ag6
ag2
ag16
ag2
ag4
ag10
ag13
ag1
ag5
ag4
ag8
ag2
ag6
ag12
ag11
ag6
ag8
ag6
ag5
ag10
ag3
ag10
ag16
ag1
ag1
ag2
ag6
ag1
ag11
ag6
ag3
ag1
ag4
ag2
ag6
ag6
ag16
ag6
ag2
ag10
ag3
ag17
ag5
ag6
ag12
ag6
ag2
ag11
ag6
ag6
ag11
ag6
ag5
ag10
ag6
ag3
ag10
ag6
ag34
ag10
ag1
ag1
ag6
ag2
aVr
p328
aVe
p329
ag8
ag3
ag1
ag13
ag6
ag3
ag4
ag5
ag12
ag11
ag6
ag8
ag6
ag5
ag6
ag34
ag3
ag10
ag5
ag1
ag1
ag6
ag2
ag6
aVf
p330
aVw
p331
ag12
ag3
ag19
ag8
ag5
ag12
ag2
ag6
ag2
ag10
ag10
ag3
ag34
ag6
ag2
ag6
ag10
ag3
ag5
ag6
ag6
ag3
ag11
ag11
ag6
ag8
ag2
ag6
ag12
ag11
ag6
ag6
ag48
ag13
ag1
ag13
ag1
ag16
aVc
p332
ag2
ag6
ag17
ag2
ag6
ag11
ag10
ag5
ag1
ag5
ag1
ag6
ag8
ag2
ag6
ag4
ag1
ag11
ag6
ag1
ag1
ag5
ag8
ag1
ag6
ag8
ag8
ag6
ag3
ag6
ag1
ag4
ag6
aVf
p333
ag10
ag10
ag3
ag34
ag1
ag2
ag5
ag5
ag12
ag6
ag2
ag6
aVr
p334
aVe
p335
ag4
ag4
ag13
ag3
ag6
ag5
ag10
ag3
ag10
ag16
ag6
ag12
ag11
ag6
ag8
ag6
ag5
ag12
ag2
ag17
ag16
ag16
ag6
ag3
ag6
ag6
ag10
ag2
ag13
ag10
ag3
ag11
ag1
ag16
ag2
ag6
ag4
ag10
ag13
ag1
ag5
ag6
ag8
ag8
ag4
ag6
ag1
ag4
ag8
aVf
p336
aVw
p337
aVw
p338
ag6
ag2
ag11
ag6
ag4
ag10
ag3
ag6
ag2
ag16
ag2
ag8
ag3
ag6
ag48
ag13
ag6
ag1
ag4
aVf
p339
aVw
p340
ag3
ag6
ag13
ag5
ag13
ag1
ag16
aVr
p341
aVe
p342
ag1
ag2
ag6
ag3
ag1
ag5
aVf
p343
ag10
ag10
ag3
ag34
ag1
ag8
ag2
ag6
ag6
ag6
ag3
ag11
ag11
ag6
ag5
ag5
ag13
ag3
ag6
ag2
ag6
ag17
ag5
ag8
aVr
p344
aVe
p345
ag3
ag6
ag1
ag17
ag5
ag6
ag1
ag8
ag3
ag6
ag6
ag8
ag1
ag13
ag6
ag3
ag4
ag5
ag10
ag6
ag3
ag1
ag1
ag6
ag6
ag11
ag6
ag1
ag12
ag2
ag5
ag3
ag16
ag6
ag16
ag3
ag1
ag6
ag10
ag5
ag1
ag16
ag1
ag1
ag12
ag6
ag13
ag6
ag6
ag10
ag5
ag6
ag1
ag16
ag2
ag6
ag1
ag4
ag2
ag6
ag6
aVf
p346
ag13
ag5
ag5
ag12
ag11
ag6
ag8
ag3
ag1
ag11
ag6
ag3
ag1
ag3
ag6
ag48
ag13
ag3
ag6
ag2
ag6
ag4
ag4
ag13
ag3
ag6
ag13
ag5
ag1
ag8
ag2
ag6
ag1
ag4
ag1
ag19
ag1
ag6
ag4
ag8
ag12
ag11
ag6
ag10
ag3
ag10
ag16
ag1
ag2
ag8
ag8
ag4
ag13
ag5
ag1
ag10
ag3
ag4
ag4
ag6
ag17
ag6
ag4
ag13
ag6
ag2
ag6
ag10
ag5
ag13
ag6
ag4
ag1
ag1
ag17
ag6
ag10
ag3
ag6
ag4
ag6
ag5
ag3
ag6
ag10
ag3
ag13
ag4
ag6
ag8
ag3
ag6
ag4
ag12
ag11
ag6
ag1
ag2
ag6
ag6
ag3
ag2
aVw
p347
ag11
ag6
ag6
ag48
ag13
ag1
ag3
ag6
ag8
ag5
ag6
ag4
ag1
ag3
ag11
ag6
ag5
ag6
ag16
ag3
ag10
ag2
aVw
p348
ag10
ag3
ag10
ag6
ag11
ag2
ag10
ag3
ag17
ag5
ag6
ag17
ag3
ag6
ag4
ag5
ag1
ag11
ag6
ag3
ag1
ag16
ag2
ag6
ag3
ag6
ag8
ag5
ag6
ag4
ag1
ag3
ag11
ag6
ag5
ag6
ag3
ag6
ag13
ag5
ag12
ag2
ag13
ag2
ag6
ag13
ag6
ag8
ag2
ag6
ag2
ag16
ag2
ag8
ag3
ag6
ag48
ag13
ag6
ag1
ag4
ag10
ag10
ag3
ag34
ag1
aVw
p349
ag6
ag1
ag11
ag6
ag3
ag6
ag1
ag2
ag6
ag4
ag3
ag4
ag6
ag1
ag3
ag6
ag4
ag3
ag6
ag6
ag4
ag8
ag3
ag2
ag6
ag11
ag6
ag5
ag4
ag6
ag5
ag17
aVw
p350
ag13
ag3
ag3
ag6
ag13
ag5
ag6
ag1
ag3
ag6
ag2
ag2
ag6
ag12
ag11
ag6
ag6
ag48
ag13
ag1
ag5
ag13
ag1
ag11
ag6
ag3
ag4
ag6
ag2
ag6
ag2
ag16
ag2
ag8
ag3
ag6
ag48
ag13
ag6
ag1
ag4
ag10
ag10
ag3
ag34
ag1
ag8
ag3
ag17
ag6
ag16
ag3
ag10
ag2
ag12
ag5
ag3
ag16
ag6
ag5
ag1
ag6
ag1
ag11
ag6
ag2
ag6
ag4
ag4
ag13
ag3
ag6
ag6
ag5
ag1
ag16
ag8
ag10
ag5
ag13
ag6
ag1
ag16
ag6
ag10
ag3
ag17
ag5
ag6
ag12
ag2
ag17
ag16
ag13
ag13
ag6
ag11
ag6
ag1
ag6
ag1
ag8
ag4
ag1
ag2
ag6
ag1
ag2
ag6
ag4
ag6
ag34
ag10
ag5
ag6
ag5
ag5
ag13
ag3
ag6
ag2
ag6
ag6
ag8
ag8
ag6
ag4
ag11
ag6
ag1
ag6
ag8
ag2
ag6
aVw
p351
ag6
ag2
ag1
ag10
ag3
ag11
ag1
ag16
ag2
ag16
ag2
ag5
ag3
ag6
ag5
ag11
ag6
ag6
ag6
ag8
ag2
ag6
ag11
ag6
ag5
ag4
ag6
ag5
ag3
ag6
ag5
ag6
ag34
ag10
ag5
ag6
ag8
ag3
ag2
ag6
aVg
p352
ag13
ag5
ag8
ag8
ag6
ag34
ag4
ag6
ag1
ag3
ag6
ag2
ag6
ag6
ag17
ag6
ag1
ag6
ag8
ag8
aVw
p353
ag17
ag13
ag5
ag8
ag13
ag1
ag2
ag6
ag5
ag1
ag1
ag3
ag11
ag6
ag5
ag6
ag10
ag10
ag3
ag34
ag6
ag16
ag6
ag8
ag2
ag6
ag6
ag3
ag2
ag13
ag17
ag13
ag3
ag8
ag4
ag6
ag3
ag13
ag4
ag13
ag3
ag6
ag3
ag6
ag13
ag13
ag5
ag5
ag17
ag1
ag6
ag17
ag16
ag3
ag1
ag16
ag13
ag3
ag8
ag4
ag6
ag6
ag4
aVl
p354
ag6
ag48
ag13
ag3
ag6
ag16
ag3
ag1
ag13
ag1
ag6
ag3
ag2
ag6
ag1
ag16
ag5
ag6
ag4
ag6
ag3
ag1
ag16
ag13
ag10
ag1
ag13
ag6
ag1
ag6
ag3
ag11
ag6
ag5
ag1
ag6
ag3
ag20
ag6
ag1
ag11
ag6
ag3
ag1
ag4
ag2
ag6
ag6
ag13
ag10
ag10
ag3
ag6
ag16
ag3
ag1
ag3
ag8
ag4
ag6
ag4
ag1
ag11
ag5
ag11
ag6
ag2
ag6
ag13
ag3
ag4
ag6
ag16
ag1
ag13
ag3
ag6
ag16
ag6
ag2
ag6
ag4
ag48
ag13
ag1
ag8
ag1
ag16
ag6
ag3
ag10
ag3
ag1
ag1
ag6
ag1
ag2
ag1
ag4
ag6
ag2
ag6
ag10
ag5
ag3
ag6
ag5
ag13
ag1
ag8
ag16
ag3
ag6
ag16
ag6
ag2
ag6
ag10
ag3
ag17
ag5
ag6
ag12
ag2
ag5
ag6
ag48
ag13
ag3
ag6
ag16
ag3
ag1
ag8
ag10
ag3
ag3
ag6
ag2
ag12
ag6
ag11
ag6
ag3
ag2
ag1
ag17
ag6
ag17
ag5
ag6
ag6
ag1
ag2
ag1
ag4
ag6
ag6
ag11
ag6
ag1
ag2
ag3
ag6
ag1
ag5
ag5
ag5
ag13
ag1
ag6
ag17
ag1
ag6
ag3
ag1
ag5
ag13
ag5
ag10
ag5
ag6
ag13
ag4
ag2
ag11
ag6
ag3
ag4
ag5
ag1
ag1
ag6
ag3
ag5
ag11
ag6
ag3
ag4
ag5
ag8
ag13
ag5
ag3
ag5
ag8
ag5
ag1
ag19
ag5
ag5
ag6
ag11
ag6
ag2
ag10
ag3
ag17
ag5
ag6
ag12
ag6
ag10
ag6
ag5
ag1
ag6
ag3
ag20
ag6
ag1
ag11
ag6
ag3
ag1
ag8
ag3
ag6
ag12
ag3
ag19
ag16
ag3
ag6
ag1
ag6
ag3
ag1
ag5
ag5
ag4
ag6
ag3
ag6
ag6
ag1
ag6
ag3
ag16
aVw
p355
ag6
ag10
ag10
ag5
ag2
ag6
ag5
ag6
ag48
ag13
ag3
ag6
ag16
ag3
ag1
ag8
ag8
ag3
ag3
ag6
ag3
ag1
ag6
ag3
ag1
ag5
ag13
ag5
ag10
ag5
ag6
ag16
ag6
ag13
ag17
ag13
ag3
ag8
ag4
ag6
ag11
ag6
ag3
ag4
ag5
ag8
ag13
ag5
ag10
ag5
ag1
ag6
ag6
ag1
ag1
ag2
ag6
ag4
ag6
ag1
ag3
ag6
ag2
ag6
ag17
ag5
ag8
ag2
ag6
ag10
ag3
ag10
ag6
ag6
ag2
ag3
ag6
ag5
ag11
ag6
ag11
ag6
ag3
ag4
ag5
ag8
ag13
ag5
ag10
ag5
ag1
ag6
ag12
ag2
ag4
ag2
ag3
ag6
ag10
ag3
ag5
ag5
ag5
ag13
ag1
ag6
ag17
ag2
ag6
ag5
ag6
ag48
ag13
ag3
ag6
ag16
ag3
ag1
ag8
ag10
ag3
ag3
ag6
aVr
p356
ag6
ag11
ag6
ag3
ag6
ag6
ag16
ag3
ag1
aVr
p357
ag2
ag17
ag6
ag4
ag6
ag1
ag6
ag34
ag3
ag6
ag6
ag5
ag10
ag3
ag1
ag16
ag1
ag16
ag6
ag2
ag13
ag6
ag17
ag5
ag8
ag2
ag1
ag5
ag1
ag16
ag4
ag10
ag5
ag4
ag6
ag11
ag6
ag5
ag4
ag6
ag5
ag1
ag3
ag6
ag4
ag6
ag1
ag6
ag3
ag2
ag6
ag3
ag6
ag2
ag17
ag6
ag6
ag1
ag1
ag1
ag4
ag3
ag6
ag1
ag16
ag1
ag6
ag6
ag10
ag6
ag3
ag8
ag3
aVr
p358
ag12
ag2
ag1
ag3
ag10
ag4
ag11
ag6
ag5
ag4
ag6
ag5
ag13
ag4
ag2
ag3
ag1
ag11
ag6
ag3
ag6
ag5
ag3
ag10
ag4
ag6
ag12
ag2
ag11
ag6
ag3
ag4
ag5
ag6
ag3
ag34
aVv
p359
aVf
p360
ag1
ag6
ag8
ag8
ag6
ag3
ag6
ag1
ag4
ag6
aVf
p361
ag1
ag6
ag8
ag2
ag6
ag12
ag6
ag5
ag13
ag6
ag1
ag13
ag6
ag3
ag4
ag5
ag6
ag2
ag1
aVr
p362
aVh
p363
ag12
ag6
ag11
ag6
ag3
ag8
ag6
ag1
ag13
ag8
ag8
ag6
ag3
ag8
ag3
ag6
ag3
ag13
ag1
ag13
ag6
ag3
ag4
ag5
ag10
ag6
ag3
ag1
ag3
ag6
ag13
ag5
ag1
ag16
ag1
ag16
ag1
ag8
ag4
ag1
ag5
ag8
ag16
ag1
ag16
ag3
ag6
ag5
ag13
ag1
ag11
ag6
ag3
ag2
ag6
ag6
ag3
ag1
ag6
ag3
ag5
ag1
ag5
ag4
ag4
ag3
ag6
ag6
ag10
ag6
ag3
ag3
ag2
ag17
ag6
ag6
ag1
ag6
ag11
ag6
ag5
ag10
ag6
ag10
ag10
ag3
ag34
ag6
ag2
ag6
ag2
ag16
ag2
ag3
ag6
ag3
ag10
ag5
ag10
ag3
ag5
ag8
ag8
ag6
ag3
ag6
ag1
ag5
ag10
ag6
ag3
ag3
ag12
ag2
ag4
ag2
ag6
ag8
ag8
ag6
ag4
ag11
ag6
ag1
ag13
ag10
ag10
ag3
ag6
ag1
ag16
ag1
ag13
ag6
ag3
ag4
ag5
ag10
ag6
ag3
ag1
aVu
p364
ag1
ag16
ag2
ag10
ag6
ag3
ag3
ag12
ag6
ag6
ag11
ag6
ag5
ag10
ag6
ag1
ag6
ag3
ag5
ag1
ag5
ag4
ag10
ag5
ag6
ag4
ag4
aVn
p365
ag6
ag2
ag1
ag13
ag6
ag3
ag4
ag5
ag5
ag5
ag11
ag6
ag4
ag13
ag4
aVv
p366
ag12
ag11
ag6
ag6
ag48
ag13
ag1
ag12
ag2
ag4
ag2
ag10
ag3
ag6
ag6
ag3
ag11
ag6
ag2
ag6
ag10
ag5
ag6
ag4
ag4
ag3
ag13
ag4
ag13
ag3
ag6
aVw
p367
ag6
ag2
ag11
ag6
ag1
ag11
ag6
ag16
ag6
ag10
ag3
ag10
ag6
ag3
ag6
ag1
ag4
ag5
ag13
ag1
ag16
ag2
ag6
ag17
ag5
ag4
ag1
ag1
ag1
ag13
ag6
ag3
ag4
ag5
ag10
ag6
ag3
ag1
ag3
ag6
ag5
ag1
ag1
ag4
ag10
ag13
ag1
ag5
ag6
ag8
ag8
ag4
ag6
ag1
ag4
ag5
ag12
ag6
ag1
ag1
ag16
ag6
ag10
ag2
ag4
ag5
ag1
ag11
ag6
ag3
ag6
ag10
ag3
ag17
ag5
ag6
ag2
ag1
ag6
ag13
ag10
ag1
ag1
ag2
ag6
ag13
ag1
ag6
ag3
ag5
ag1
ag16
ag16
ag6
ag5
ag16
ag3
ag6
ag13
ag6
ag16
ag6
ag2
ag6
ag6
ag8
ag8
ag6
ag4
ag8
ag1
ag1
ag13
ag1
ag48
ag13
ag6
ag1
ag6
ag10
ag3
ag4
ag11
ag6
ag3
ag16
ag6
ag1
ag1
ag6
ag1
ag2
ag6
ag1
ag10
ag3
ag11
ag6
ag2
ag6
ag48
ag13
ag5
ag8
ag2
ag6
ag1
ag8
ag6
ag3
ag3
ag6
ag6
ag5
ag10
ag3
ag6
ag6
ag3
aVw
p368
ag2
ag1
aVb
p369
ag6
ag1
ag1
ag8
ag6
ag3
ag6
ag1
ag4
ag6
ag8
ag3
ag6
ag12
ag3
ag19
ag10
ag3
ag3
ag13
ag10
ag1
ag17
ag13
ag2
ag6
ag10
ag3
ag17
ag17
ag5
ag4
ag3
ag13
ag4
ag13
ag3
ag6
ag8
ag2
ag6
ag6
ag5
ag10
ag3
ag6
ag6
ag3
ag4
ag1
ag10
ag6
ag13
ag4
ag2
ag2
ag1
ag6
ag4
ag1
ag3
ag1
ag1
ag5
ag16
ag13
ag3
ag6
ag16
ag13
ag5
ag3
ag20
ag1
ag1
ag6
ag6
ag3
ag1
ag4
ag1
ag11
ag6
ag3
ag6
ag10
ag3
ag17
ag5
ag6
aVw
p370
ag6
ag2
ag11
ag6
ag4
ag1
ag6
ag3
ag6
ag1
ag6
ag10
ag3
ag4
ag5
aVb
p371
ag6
ag16
ag6
ag1
ag6
ag3
ag5
ag20
ag1
ag8
ag2
ag6
aVk
p372
ag3
ag4
ag2
ag2
ag8
ag8
ag17
ag6
ag5
ag6
ag48
ag13
ag3
ag6
ag16
ag3
ag1
aVl
p373
ag10
ag3
ag17
ag5
ag6
aVw
p374
ag6
ag2
ag11
ag6
ag6
ag11
ag6
ag5
ag10
ag6
ag1
ag11
ag6
ag5
ag6
ag2
ag5
ag16
ag8
ag3
ag6
ag1
ag8
ag2
ag6
ag3
ag6
ag8
ag5
ag6
ag4
ag11
ag6
ag5
ag1
ag3
ag6
ag16
ag13
ag5
ag3
ag20
ag1
ag10
ag3
ag6
ag6
ag3
ag13
ag1
ag16
aVb
p375
ag6
ag1
ag4
ag5
ag8
ag3
ag6
ag12
ag3
ag19
ag2
ag3
ag6
ag17
ag2
ag8
ag2
ag6
ag6
ag3
ag1
ag11
ag3
ag17
ag5
ag6
ag17
ag6
ag1
ag8
ag6
ag3
ag3
ag6
ag8
ag3
ag2
ag6
aVh
p376
ag6
ag1
ag4
ag6
ag3
ag2
ag6
ag3
ag2
ag1
ag8
ag34
ag1
ag16
ag2
ag6
ag3
ag6
ag16
ag13
ag5
ag3
ag20
ag1
ag10
ag3
ag6
ag6
ag3
ag10
ag3
ag3
ag1
ag11
ag6
ag3
ag1
ag16
ag8
ag3
ag2
ag6
ag16
ag6
ag12
ag6
ag5
ag5
ag12
ag2
ag6
ag4
ag6
ag12
ag2
ag6
ag3
ag6
ag3
ag6
ag16
ag13
ag5
ag3
ag20
ag6
aVe
p377
ag1
ag16
ag2
ag6
ag6
ag3
ag6
ag16
ag13
ag5
ag3
ag20
ag1
ag10
ag3
ag6
ag6
ag3
ag16
ag11
ag6
ag13
ag1
ag8
ag3
ag1
ag17
ag13
aVp
p378
ag5
ag3
ag4
ag2
ag1
ag16
ag6
ag1
ag4
ag1
ag11
ag6
ag3
ag6
ag12
ag11
ag6
ag16
ag6
ag4
ag1
ag3
ag13
ag4
ag6
ag17
ag6
ag5
ag4
ag3
ag6
ag11
ag6
ag3
ag6
ag6
ag16
ag3
ag1
ag4
ag13
ag6
ag6
ag3
ag13
ag4
ag11
ag6
ag1
ag6
ag3
ag8
ag6
ag3
ag6
ag1
ag4
ag6
ag8
ag6
ag3
ag4
ag19
ag1
ag16
ag11
ag6
ag3
ag2
ag6
ag6
ag34
ag10
ag6
ag3
ag6
ag1
ag8
ag6
ag4
ag13
ag3
ag11
ag6
ag2
ag10
ag5
ag3
ag3
ag6
ag11
ag6
ag3
ag5
ag13
ag6
aVp
p379
ag1
aVp
p380
ag3
ag6
ag8
ag5
ag6
ag4
ag11
ag6
ag3
ag6
ag11
ag6
ag3
ag1
ag16
ag16
ag1
ag4
ag6
ag3
ag1
ag1
ag4
ag6
ag1
ag4
ag6
ag1
ag16
ag5
ag6
ag6
ag16
ag1
ag3
ag5
ag1
ag4
ag6
ag1
ag4
ag6
ag1
ag3
ag10
ag4
ag6
ag1
ag8
ag2
ag6
ag11
ag5
ag17
ag5
ag6
ag10
ag5
ag3
ag4
ag3
ag3
ag6
ag4
ag1
ag6
ag2
ag3
ag6
ag4
ag10
ag5
ag6
ag34
ag1
ag3
ag6
ag48
ag13
ag3
ag6
ag4
ag5
ag3
ag1
ag8
ag3
ag1
ag6
ag16
ag2
ag6
ag1
ag16
ag5
ag6
ag1
aVw
p381
ag6
ag6
ag3
ag11
ag6
ag10
ag5
ag6
ag16
ag1
ag16
ag4
ag1
ag1
ag8
ag3
ag4
ag1
ag11
ag6
ag3
ag6
ag12
ag11
ag6
ag4
ag3
ag3
ag6
ag4
ag2
ag6
ag16
ag6
ag10
ag5
ag3
ag1
ag3
ag6
ag11
ag6
ag5
ag2
ag6
ag4
ag1
ag11
ag6
ag3
ag1
ag3
ag6
ag1
ag16
ag2
ag8
ag3
ag1
ag6
ag12
ag11
ag6
ag6
ag1
ag2
ag6
ag3
ag13
ag3
ag16
ag1
ag16
ag4
ag1
ag1
ag6
ag34
ag10
ag5
ag10
ag13
ag3
ag6
aVp
p382
ag1
ag6
ag17
ag1
ag6
ag17
aVh
p383
ag6
ag5
ag2
ag5
ag20
ag6
ag4
ag10
ag1
ag1
ag6
ag8
ag4
ag3
ag3
ag6
ag5
ag1
ag16
aVc
p384
ag3
ag6
ag1
ag4
ag10
ag1
ag6
ag1
ag8
ag2
ag6
ag11
ag6
ag4
ag3
ag6
ag12
ag2
ag2
ag6
aVp
p385
ag6
ag12
ag6
ag6
ag34
ag10
ag5
ag5
ag5
ag2
ag3
ag6
ag6
ag4
ag10
ag1
ag6
ag1
ag8
ag2
ag6
ag12
ag11
ag6
ag8
ag6
ag5
ag1
ag4
ag6
ag10
ag3
ag13
ag4
ag6
ag13
ag1
ag48
ag13
ag6
ag16
ag6
aVw
p386
ag6
ag16
ag6
ag1
ag6
ag3
ag6
aVp
p387
ag1
aVp
p388
ag16
ag6
ag13
ag1
ag16
ag16
ag6
ag6
ag3
ag4
ag3
ag6
ag5
ag1
ag2
ag10
ag1
ag16
ag2
ag6
ag10
ag3
ag10
ag16
ag1
ag3
ag6
ag4
ag1
ag8
ag3
ag2
ag6
aVp
p389
ag1
ag12
ag11
ag6
ag8
ag6
ag5
ag2
ag6
ag3
ag6
ag8
ag5
ag6
ag4
ag3
ag3
ag6
ag1
ag1
ag1
ag2
ag6
ag2
ag8
ag3
ag12
ag11
ag6
ag8
ag6
ag5
ag1
ag14
ag6
ag4
ag1
ag3
ag6
ag4
ag1
ag5
ag13
ag6
ag6
ag34
ag3
ag10
ag5
ag6
ag6
ag4
ag1
ag3
ag6
ag11
ag6
ag3
ag6
ag6
ag16
ag3
ag1
aVr
p390
ag1
ag14
ag6
ag4
ag1
ag16
ag1
ag16
ag5
ag6
ag4
ag10
ag1
ag6
ag1
ag8
ag2
ag6
ag4
ag13
ag4
ag8
ag6
ag5
ag8
ag3
ag6
ag34
ag10
ag5
ag6
ag10
ag3
ag6
ag13
ag3
ag6
ag5
ag6
ag17
ag16
ag13
ag1
ag2
ag6
ag3
ag6
ag4
ag1
ag8
ag10
ag3
ag10
ag16
ag1
aVe
p391
ag4
ag2
ag3
ag6
ag4
ag3
ag6
ag12
ag11
ag6
ag8
ag3
ag1
ag10
ag3
ag10
ag16
ag6
ag17
ag2
ag13
ag10
ag12
ag3
ag1
ag12
ag1
ag12
ag3
ag1
ag10
ag13
ag3
ag13
ag3
ag16
ag2
ag3
ag6
ag8
ag5
ag6
ag4
ag3
ag3
ag6
ag4
ag3
ag6
ag6
ag5
ag1
ag16
ag6
ag3
ag6
ag5
ag3
ag6
ag8
ag5
ag6
ag4
ag3
ag1
ag2
ag6
ag13
ag17
ag13
ag3
ag8
ag4
ag6
ag16
ag6
ag2
ag13
ag12
ag11
ag6
ag8
ag6
ag5
ag6
ag10
ag3
ag1
ag17
ag6
ag1
ag2
ag6
ag4
ag17
ag1
ag1
ag8
ag10
ag3
ag6
ag13
ag3
ag6
ag1
ag10
ag3
ag4
ag5
ag6
ag11
ag6
ag5
ag4
ag16
ag6
ag1
ag6
ag3
ag5
ag5
ag10
ag6
ag3
ag8
ag3
ag6
ag10
ag3
ag3
ag16
ag1
ag16
ag6
ag34
ag3
ag4
ag1
ag5
ag2
ag6
ag13
ag10
ag16
ag1
ag16
ag8
ag6
ag5
ag8
ag3
ag13
ag5
ag4
ag10
ag1
ag6
ag1
ag6
ag17
ag6
ag3
ag12
ag6
ag3
ag1
ag6
ag6
ag4
ag3
ag6
ag4
ag3
ag1
ag16
aVb
p392
ag1
ag6
ag4
ag17
ag1
ag1
ag16
ag11
ag6
ag4
ag3
ag4
ag13
ag4
aVv
p393
ag12
ag2
ag1
ag10
ag5
ag6
ag1
ag10
ag5
ag6
ag10
ag6
ag10
ag3
ag10
ag16
ag3
ag1
ag2
ag6
ag6
ag34
ag3
ag10
ag5
ag1
ag8
ag2
ag3
ag3
ag6
ag4
ag6
ag11
ag6
ag3
ag16
ag2
ag6
ag3
ag12
ag6
ag2
ag12
ag2
ag12
ag11
ag6
ag8
ag6
ag5
ag6
ag10
ag3
ag1
ag3
ag6
ag16
ag2
ag1
ag16
ag4
ag1
ag1
ag6
ag17
ag6
ag10
ag6
ag3
ag8
ag3
ag6
ag1
ag2
ag6
ag8
ag5
ag5
ag6
ag1
ag5
ag4
ag2
ag3
ag6
ag16
ag12
ag13
ag4
ag4
ag6
ag8
ag13
ag5
ag5
ag10
ag10
ag5
ag6
ag5
ag1
ag6
ag8
aVn
p394
ag3
ag2
ag6
ag4
ag6
ag1
ag17
ag4
ag17
ag5
ag6
ag6
ag4
ag48
ag13
ag3
ag6
ag11
ag6
ag3
ag2
ag6
aVv
p395
ag5
ag11
ag6
ag8
ag6
ag5
aVw
p396
ag6
aVw
p397
ag6
ag2
ag11
ag6
ag6
ag11
ag6
ag5
ag10
ag6
ag10
ag3
ag6
ag4
ag19
ag6
ag16
ag3
ag1
ag5
ag8
ag3
ag5
ag4
ag5
ag10
ag3
ag11
ag6
ag6
ag1
ag8
ag2
ag6
ag6
ag4
ag16
ag3
ag1
ag11
ag6
ag5
ag4
ag6
ag5
ag2
ag6
ag6
ag2
ag17
ag6
ag1
ag3
ag6
ag16
ag3
ag1
ag3
ag14
ag6
ag4
ag3
ag6
ag2
ag6
ag4
ag3
ag17
ag6
ag2
ag6
ag10
ag1
ag8
ag1
ag16
ag6
ag10
ag1
ag1
ag2
ag6
ag16
ag6
ag1
ag8
ag3
ag8
ag8
ag6
ag3
ag6
ag1
ag13
ag3
ag4
ag6
ag3
ag6
ag4
ag6
ag11
ag6
ag3
ag8
ag8
ag6
ag8
ag13
ag1
ag4
ag1
ag8
ag2
ag6
ag16
ag3
ag1
ag11
ag6
ag5
ag4
ag6
ag6
ag3
ag1
ag6
ag19
ag1
ag6
ag4
ag16
ag3
ag1
ag10
ag3
ag6
ag6
ag3
ag13
ag1
ag16
ag5
ag4
ag5
ag5
ag10
ag6
ag1
ag8
ag3
ag1
ag8
ag16
ag3
ag6
ag6
ag4
ag3
ag6
ag8
ag5
ag6
ag4
ag1
ag6
ag11
ag6
ag1
ag2
ag6
ag6
ag10
ag3
ag6
ag6
ag3
ag1
ag13
ag3
ag1
ag3
ag6
ag13
ag6
ag5
ag4
ag5
ag5
ag4
ag3
ag3
ag6
ag4
ag2
ag6
ag11
ag6
ag5
ag4
ag6
ag5
ag2
ag6
ag1
ag11
ag1
ag16
ag6
ag8
ag2
ag6
ag4
ag2
ag1
ag48
ag13
ag6
ag2
ag5
ag5
ag12
ag13
ag4
ag3
ag3
ag13
ag11
ag6
ag13
ag4
ag3
ag3
ag6
ag4
ag1
ag1
ag14
ag13
ag8
ag34
ag6
ag10
ag1
ag1
ag20
ag6
ag3
ag8
ag8
ag6
ag10
ag4
ag19
ag6
ag16
ag3
ag6
ag16
ag2
ag6
ag3
ag17
ag13
ag11
ag3
ag1
ag16
ag2
ag3
ag13
ag16
ag2
ag5
ag5
ag8
ag8
ag6
ag8
ag4
ag1
ag16
ag6
ag16
ag2
ag6
ag3
ag19
ag1
ag16
ag1
ag4
ag4
ag13
ag1
ag2
ag6
ag3
ag6
ag8
ag5
ag6
ag4
ag1
ag10
ag1
ag10
ag5
ag4
ag6
ag6
ag1
ag1
ag2
ag6
ag10
ag1
ag3
ag6
ag4
ag1
ag1
ag2
ag6
ag3
ag12
ag3
ag10
ag3
ag11
ag6
ag8
ag3
ag6
ag16
ag3
ag1
ag11
ag6
ag5
ag4
ag1
ag5
ag8
ag3
ag10
ag3
ag6
ag4
ag19
aVw
p398
ag6
ag2
ag11
ag6
ag6
ag6
ag2
ag6
ag8
ag6
ag17
ag5
ag8
ag2
ag6
ag6
ag2
ag1
ag1
ag2
ag6
ag4
ag8
ag3
ag8
ag13
ag3
ag10
ag5
ag6
ag6
ag5
ag1
ag2
ag6
ag16
ag17
ag6
ag6
ag53
aVb
p399
ag13
ag3
ag6
ag6
ag6
ag3
ag4
ag4
ag13
ag3
ag6
ag13
ag5
ag1
ag8
ag6
ag4
ag12
ag11
ag6
ag8
ag4
ag3
ag4
ag5
ag10
ag3
ag1
ag4
ag6
ag1
ag11
ag3
ag6
ag8
ag16
ag6
ag10
ag2
ag4
ag5
ag10
ag10
ag5
ag4
ag1
aVb
p400
ag6
ag1
ag3
ag6
ag4
ag6
ag1
ag12
ag3
ag19
ag1
ag16
ag16
ag6
ag3
ag6
ag4
ag1
ag1
ag13
ag13
aVg
p401
ag5
ag6
ag3
ag19
ag1
ag6
ag2
ag12
ag6
ag2
ag11
ag6
ag6
ag11
ag6
ag5
ag10
ag6
ag1
ag6
ag12
ag6
ag2
ag8
ag3
ag2
ag6
ag13
ag5
ag1
ag8
ag6
ag4
ag12
ag11
ag6
ag12
ag2
ag4
ag2
ag2
ag6
ag1
ag6
ag3
ag16
ag4
ag1
ag6
ag3
ag11
ag1
ag1
ag6
ag34
ag3
ag6
ag6
ag5
ag5
ag12
ag16
ag3
ag10
ag6
ag3
ag1
ag2
ag1
ag13
ag3
ag5
ag5
ag10
ag3
ag11
ag6
ag4
ag4
ag13
ag3
ag6
ag1
ag13
ag6
ag3
ag4
ag5
ag13
ag5
ag1
ag8
ag12
ag11
ag6
ag10
ag3
ag10
ag16
ag1
ag13
ag6
ag8
ag13
ag5
ag8
ag3
ag16
ag6
ag10
ag2
ag4
ag5
ag10
ag10
ag5
ag4
ag1
ag1
ag12
ag16
ag6
ag1
ag6
ag3
ag5
ag20
ag1
ag8
ag4
ag5
ag4
ag5
ag16
ag16
ag6
ag3
ag6
ag16
ag3
ag8
ag1
ag6
ag8
ag8
ag6
ag3
ag6
ag1
ag4
ag6
ag6
ag2
ag3
ag6
ag11
ag6
ag3
ag4
ag13
ag5
ag2
ag1
ag5
ag6
ag12
ag2
ag6
ag6
ag3
ag3
ag6
ag16
ag13
ag5
ag3
ag13
ag3
ag8
ag4
ag6
ag10
ag16
ag3
ag10
ag2
ag1
ag4
ag1
ag1
ag13
ag6
ag1
ag2
ag6
ag13
ag17
ag13
ag3
ag8
ag4
ag6
ag6
ag5
ag13
ag3
ag1
ag6
ag12
ag6
ag2
ag4
ag3
ag6
ag20
ag6
ag2
ag6
ag11
ag6
ag5
ag4
ag1
ag2
ag6
ag3
ag6
ag6
ag1
ag3
ag1
ag2
ag16
ag16
ag6
ag3
ag6
ag16
ag3
ag12
ag2
ag4
ag1
ag1
ag13
ag10
ag6
ag1
ag8
ag8
ag6
ag3
ag6
ag1
ag10
ag3
ag8
ag2
ag6
ag6
ag2
ag2
ag6
ag6
ag3
ag8
ag2
ag6
ag3
ag6
ag6
ag1
ag3
ag12
ag6
ag1
ag8
ag3
ag4
ag6
ag17
ag2
ag6
aVl
p402
ag16
ag3
ag1
ag16
ag6
ag13
ag5
ag10
ag5
ag6
ag3
ag6
ag4
ag2
ag1
ag48
ag13
ag6
ag2
ag6
ag3
ag6
ag13
ag5
ag1
ag16
ag6
ag2
ag12
ag1
ag6
ag34
ag10
ag5
ag4
ag4
ag2
ag6
ag6
ag3
ag6
ag48
ag13
ag3
ag1
ag16
ag2
ag6
ag5
ag13
ag1
ag8
ag17
ag5
ag4
ag19
ag16
ag1
ag5
ag6
ag1
ag5
ag4
ag5
ag5
ag6
ag10
ag1
ag6
ag1
ag6
ag4
ag2
ag6
ag6
ag10
ag1
ag12
ag2
ag6
ag3
ag6
ag8
ag3
ag6
ag11
ag6
ag4
ag6
ag34
ag10
ag5
ag3
ag1
ag2
ag6
ag10
ag3
ag3
ag5
ag8
ag3
ag8
ag1
ag1
ag16
ag1
ag10
ag10
ag1
ag16
ag13
ag2
ag3
ag4
ag3
ag17
ag1
ag6
ag10
aVw
p403
ag6
ag2
ag11
ag6
ag4
ag1
ag6
ag3
ag6
ag2
ag6
ag53
ag8
ag3
ag12
ag3
ag6
ag5
ag1
ag16
ag10
ag3
ag17
ag5
ag6
ag2
ag6
ag13
ag17
ag13
ag3
ag8
ag4
ag6
ag3
ag13
ag4
ag13
ag3
ag6
ag12
ag6
ag3
ag6
ag13
ag6
ag17
ag6
ag19
ag1
ag12
ag1
ag1
ag2
ag6
ag19
ag12
ag13
ag5
ag6
ag6
ag5
ag4
ag12
ag11
ag6
ag10
ag3
ag10
ag16
ag1
ag2
ag3
ag13
ag16
ag2
ag13
ag2
ag6
ag6
ag13
ag1
ag3
ag1
ag5
ag10
ag10
ag3
ag4
ag2
ag6
ag5
ag11
ag1
ag16
ag2
ag10
ag3
ag17
ag5
ag6
ag4
ag4
ag13
ag1
ag8
ag3
ag6
ag3
ag5
ag1
ag6
ag3
ag8
ag4
ag6
ag17
ag5
ag5
ag12
ag1
ag16
ag6
ag5
ag10
ag3
ag6
ag6
ag3
ag11
ag5
ag13
ag6
ag13
ag4
ag2
ag12
ag11
ag6
ag10
ag6
ag6
ag1
ag6
ag1
ag11
ag3
ag6
ag2
ag6
ag3
ag2
ag3
ag10
ag5
ag3
ag2
ag5
ag17
ag6
ag12
ag6
ag6
ag1
ag14
ag4
ag6
ag1
ag10
ag1
ag5
ag2
ag13
ag16
ag2
ag10
ag5
ag6
ag10
ag5
ag6
ag6
ag1
ag2
ag6
ag6
ag3
ag6
ag16
ag6
ag10
ag4
ag5
ag5
ag10
ag3
ag13
ag4
ag6
ag5
ag13
ag1
ag2
ag8
ag6
ag13
ag3
ag6
ag13
ag17
ag10
ag5
ag8
ag3
ag3
ag6
ag3
ag4
ag1
ag11
ag6
ag3
ag16
ag6
ag1
ag4
ag6
ag2
ag6
ag3
ag13
ag6
ag5
ag13
ag1
ag10
ag5
ag4
ag3
ag6
ag20
ag1
ag17
ag6
ag1
ag3
ag5
ag17
ag8
ag13
ag1
ag4
ag1
ag16
ag6
ag1
ag6
ag3
ag6
ag8
ag1
ag6
ag8
ag8
ag6
ag3
ag6
ag1
ag4
ag6
aVr
p404
aVb
p405
aVf
p406
aVf
p407
ag2
ag10
ag3
ag6
ag11
ag13
ag5
ag17
ag6
ag6
ag1
ag2
ag12
ag1
ag8
ag8
ag6
ag3
ag2
ag16
ag2
ag4
ag4
ag13
ag3
ag4
ag1
ag5
ag16
ag6
ag17
ag3
ag4
ag10
ag5
ag4
ag12
ag2
ag6
ag1
ag13
ag1
ag16
ag4
ag6
ag3
ag6
ag5
ag13
ag8
ag4
ag10
ag13
ag1
ag5
ag1
ag6
aVw
p408
ag6
ag2
ag11
ag6
ag1
ag12
ag6
ag11
ag6
ag5
ag10
ag6
ag2
ag6
ag2
ag8
ag13
ag3
ag2
ag6
ag3
ag10
ag3
ag11
ag6
ag2
ag3
ag3
ag6
ag3
ag4
ag4
ag13
ag3
ag4
ag1
ag1
ag5
ag2
ag3
ag13
ag16
ag2
ag13
ag2
ag3
ag6
ag16
ag1
ag17
ag13
ag5
ag8
ag3
ag12
ag11
ag6
ag3
ag6
ag8
ag5
ag6
ag4
ag1
ag1
ag3
ag1
ag1
aVp
p409
ag1
ag12
ag11
ag6
ag8
ag6
ag5
ag6
ag10
ag3
ag1
ag1
ag6
ag4
ag6
ag3
ag6
ag34
ag3
ag4
aVp
p410
aVp
p411
ag1
aVp
p412
ag16
ag6
ag8
ag3
ag10
ag3
ag6
ag4
ag19
ag6
ag5
ag4
ag3
ag6
ag11
ag6
ag3
ag6
ag6
ag16
ag3
ag1
aVu
p413
ag1
ag5
ag19
ag6
ag3
ag1
ag5
ag6
ag10
ag3
ag1
ag6
ag2
ag2
ag13
ag6
ag4
ag13
ag3
ag5
ag1
ag11
ag6
ag3
ag16
ag6
ag1
ag4
ag6
ag10
ag6
ag3
ag3
ag12
ag2
ag4
ag2
ag1
ag10
ag3
ag6
ag6
ag3
ag11
ag6
ag2
ag6
ag12
ag11
ag6
ag8
ag6
ag5
ag11
ag6
ag4
ag3
ag4
ag10
ag1
ag6
ag1
ag1
ag8
ag3
ag1
ag12
ag6
aVp
p414
ag1
ag11
ag6
ag4
ag3
ag6
ag4
ag10
ag1
ag12
ag2
ag4
ag2
ag10
ag3
ag6
ag6
ag3
ag11
ag6
ag2
ag6
ag6
ag11
ag6
ag4
ag3
ag4
ag10
ag1
ag6
ag1
ag2
ag6
ag34
ag1
ag2
ag6
ag1
ag10
ag13
ag6
ag5
ag4
ag12
ag11
ag6
ag8
ag6
ag5
ag2
ag6
ag10
ag5
ag13
ag6
ag1
ag10
ag2
ag6
ag1
ag8
ag3
ag1
ag12
ag13
ag4
ag5
ag5
ag10
ag3
ag6
ag6
ag3
ag11
ag6
ag1
ag10
ag5
ag13
ag6
ag3
ag10
ag2
ag6
ag4
ag3
ag3
ag6
ag4
ag1
ag12
ag6
ag3
ag6
ag3
ag6
ag48
ag13
ag3
ag6
aVw
p415
ag6
ag4
ag1
ag6
ag3
ag6
ag12
ag6
ag2
ag3
ag6
ag5
ag20
ag6
aVp
p416
ag1
ag11
ag6
ag4
ag3
ag6
ag4
ag10
ag1
ag6
ag5
ag6
ag4
ag11
ag6
ag6
ag1
ag13
ag1
ag1
ag6
ag4
ag13
ag10
ag5
ag6
ag10
ag3
ag10
ag16
ag1
ag6
ag5
ag6
ag4
ag11
ag6
ag6
ag1
ag13
ag1
ag13
ag6
ag11
ag4
ag6
ag5
ag4
ag6
ag34
ag3
ag10
ag5
ag1
ag1
ag12
ag2
ag4
ag2
ag2
ag6
aVq
p417
ag11
ag5
ag13
ag6
ag3
ag6
ag13
ag6
ag10
ag3
ag4
ag6
ag1
ag16
ag10
ag3
ag6
ag6
ag3
ag3
ag6
ag11
ag6
ag6
ag2
ag6
ag3
ag2
ag6
aVp
p418
ag12
ag11
ag6
ag3
ag2
ag6
ag12
ag11
ag6
ag6
ag4
ag13
ag10
ag5
ag6
ag10
ag3
ag10
ag16
ag1
ag3
ag6
ag12
ag3
ag6
ag2
ag6
ag3
ag6
ag1
ag10
ag3
ag4
ag5
ag6
ag11
ag6
ag5
ag4
ag8
ag3
ag13
ag5
ag1
ag8
ag2
ag6
ag6
ag5
ag4
ag6
ag48
ag13
ag1
ag1
ag6
ag10
ag3
ag6
aVp
p419
ag1
ag12
ag11
ag6
ag4
ag10
ag1
ag6
ag1
ag1
ag17
ag2
ag6
ag2
ag2
ag6
ag6
ag4
ag10
ag1
ag3
ag6
ag5
ag20
ag6
ag13
ag3
ag1
ag16
ag2
ag6
ag6
ag34
ag3
ag10
ag5
ag1
ag8
ag1
ag6
ag5
ag4
ag12
ag11
ag6
ag8
ag6
ag5
ag2
ag6
ag4
ag13
ag4
ag10
ag10
ag3
ag34
ag1
ag8
ag6
ag5
ag4
ag12
ag11
ag6
ag11
ag6
ag3
ag4
ag1
ag10
ag10
ag3
ag34
ag1
ag1
ag6
ag34
ag10
ag5
ag3
ag1
ag16
ag6
ag10
ag2
ag4
ag2
ag6
ag1
ag6
ag3
ag6
ag8
ag2
ag6
ag4
ag13
ag4
ag10
ag10
ag3
ag34
ag1
ag1
ag2
ag6
ag1
ag11
ag6
ag3
ag6
ag10
ag3
ag17
ag5
ag6
ag4
ag1
ag6
ag34
ag5
ag6
ag1
ag2
ag6
ag8
ag4
ag2
ag5
ag6
ag13
ag4
ag2
ag5
ag12
ag6
ag3
ag1
ag13
ag6
ag3
ag4
ag5
ag4
ag2
ag1
ag8
ag3
ag2
ag6
ag6
ag5
ag4
ag10
ag3
ag17
ag5
ag6
aVn
p420
ag6
ag11
ag6
ag3
ag2
ag6
ag5
ag6
ag2
ag6
ag6
ag3
ag2
ag1
ag1
ag4
ag13
ag4
ag17
ag1
ag2
ag17
ag6
ag6
ag1
ag8
ag13
ag1
ag1
ag2
ag6
ag10
ag2
ag2
ag10
ag10
ag3
ag34
ag1
ag1
ag12
ag2
ag13
ag3
ag12
ag17
ag4
ag19
ag1
ag5
ag17
ag6
ag4
ag13
ag6
ag8
aVp
p421
ag6
ag1
ag6
ag3
ag16
ag4
ag1
ag11
ag6
ag3
ag1
ag1
ag2
ag1
ag3
ag10
ag4
ag1
ag1
ag17
ag6
ag6
ag5
ag6
ag5
ag6
aVw
p422
ag6
ag13
ag6
ag8
ag8
ag6
ag3
ag6
ag1
ag13
ag6
ag8
ag2
ag10
ag10
ag3
ag34
ag1
ag3
ag6
ag5
ag6
ag5
ag5
ag2
ag6
ag6
ag3
ag16
ag6
ag1
ag6
ag6
ag12
ag2
ag3
ag6
ag10
ag6
ag4
ag2
ag6
ag1
ag13
ag12
ag11
ag6
ag5
ag6
ag1
ag16
ag2
ag8
ag2
ag6
ag12
ag11
ag6
ag8
ag6
ag5
aVw
p423
ag6
ag8
ag3
ag1
ag13
ag6
ag3
ag4
ag5
ag5
ag8
ag13
ag1
ag2
ag6
ag5
ag4
ag1
ag4
ag13
ag4
ag12
ag11
ag6
ag17
ag6
ag2
ag11
ag6
ag8
ag8
ag6
ag3
ag6
ag1
ag5
ag12
ag2
ag3
ag6
ag10
ag6
ag4
ag5
ag5
ag4
ag5
ag6
ag2
ag6
ag6
ag3
ag16
ag6
ag1
ag6
ag6
ag1
ag3
ag13
ag4
ag1
ag16
ag8
ag8
ag6
ag3
ag6
ag1
ag4
ag6
ag1
ag10
ag5
ag13
ag6
ag17
ag13
ag5
ag1
ag10
ag2
ag6
ag17
ag6
ag12
ag6
ag6
ag1
ag6
ag5
ag4
ag1
ag4
ag13
ag4
ag16
ag1
ag5
aVw
p424
ag6
ag2
ag6
ag1
ag6
ag3
ag11
ag6
ag10
ag2
ag4
ag5
ag1
ag2
ag6
ag4
ag5
ag1
ag6
ag3
ag10
ag3
ag6
ag1
ag8
ag2
ag10
ag2
ag6
ag1
ag6
ag1
ag1
ag6
ag11
ag6
ag5
ag10
ag1
ag16
ag2
ag6
ag8
ag8
ag6
ag3
ag6
ag1
ag1
ag13
ag3
ag6
ag8
ag6
ag5
ag4
ag1
ag4
ag13
ag4
ag12
ag11
ag6
ag10
ag3
ag10
ag16
ag1
ag2
ag5
ag6
ag2
ag6
ag4
ag1
ag1
ag13
ag13
ag16
ag3
ag6
ag2
ag4
ag1
ag16
ag3
ag6
ag5
ag3
ag6
ag13
ag4
ag6
ag2
ag6
ag3
ag16
ag6
ag3
ag6
ag48
ag13
ag3
ag6
ag6
ag1
ag1
ag4
ag10
ag13
ag1
ag5
ag4
ag8
ag8
ag1
ag6
ag8
ag8
ag6
ag3
ag6
ag1
ag4
ag6
aVf
p425
ag6
ag5
ag1
ag16
ag8
ag3
ag5
ag3
ag16
ag6
ag11
ag6
ag5
ag4
ag4
ag1
ag3
ag6
ag5
aVh
p426
ag12
ag6
ag11
ag6
ag3
ag3
ag1
ag5
ag4
ag1
ag1
ag13
ag13
ag16
ag3
ag6
ag2
ag2
ag11
ag6
ag13
ag6
ag1
ag6
ag3
ag10
ag5
ag1
ag12
ag2
ag6
ag1
ag3
ag6
ag8
ag1
ag1
ag16
ag2
ag6
ag12
ag11
ag6
ag8
ag6
ag5
ag1
ag3
ag1
ag1
ag20
ag1
ag6
ag1
ag12
ag13
ag5
ag4
ag13
ag6
ag10
ag10
ag3
ag6
ag1
ag3
ag8
ag4
aVw
p427
ag6
ag2
ag11
ag6
ag6
ag11
ag6
ag5
ag10
ag6
ag1
ag6
ag12
ag4
ag1
ag1
ag13
ag13
ag4
ag5
ag5
ag4
ag6
ag16
ag3
ag4
ag2
ag6
ag6
ag8
ag3
ag2
ag16
ag2
ag3
ag6
ag3
aVf
p428
ag6
ag5
ag1
ag16
aVw
p429
ag6
ag3
ag6
ag8
ag1
ag6
ag2
ag6
ag12
ag11
ag6
ag8
ag6
ag5
ag1
ag3
ag6
ag4
ag3
ag1
ag6
ag6
ag12
ag2
ag6
ag3
ag6
ag2
ag6
ag1
ag6
ag3
ag10
ag5
ag1
ag1
ag3
ag6
ag48
ag13
ag3
ag6
ag16
ag1
ag2
ag6
ag2
ag3
ag20
ag1
ag5
ag1
ag11
ag6
ag3
ag4
ag5
ag10
ag5
ag6
ag3
ag11
ag11
ag6
ag4
ag1
ag17
ag6
ag4
ag4
ag13
ag3
ag6
ag5
ag4
ag1
ag11
ag6
ag3
ag6
ag1
ag16
ag1
ag5
ag6
ag3
ag11
ag11
ag6
ag12
ag2
ag1
ag2
ag6
ag3
ag6
ag4
ag3
ag1
ag6
ag6
ag2
ag13
ag13
ag3
ag4
ag2
ag6
ag6
ag12
ag13
ag5
ag17
ag6
ag8
ag3
ag6
ag6
ag8
ag3
ag8
ag4
ag4
ag13
ag6
ag17
ag10
ag3
ag10
ag6
ag3
ag1
ag6
ag3
ag10
ag5
ag1
ag2
ag6
ag3
ag8
ag3
ag4
ag3
ag6
ag8
ag1
ag6
ag16
ag3
ag10
ag4
ag1
ag16
ag3
ag6
ag3
ag4
ag6
ag53
ag1
ag8
ag3
ag13
ag3
ag4
ag2
ag6
ag6
ag12
ag2
ag6
ag3
ag6
ag1
ag10
ag11
ag6
ag1
ag6
ag16
ag6
ag3
aVn
p430
ag13
ag6
ag3
ag4
ag5
ag6
ag34
ag10
ag6
ag3
ag6
ag1
ag6
ag1
ag3
ag6
ag2
ag2
ag6
ag10
ag3
ag10
ag6
ag4
ag1
ag1
ag13
ag13
ag4
ag5
ag5
ag4
ag6
ag16
ag3
ag4
ag2
ag6
ag6
ag3
ag6
ag13
ag4
ag6
ag2
ag6
ag3
ag8
ag4
ag5
ag3
ag6
ag8
ag5
ag6
ag4
ag1
ag17
ag17
ag13
ag12
ag3
ag6
ag3
ag8
ag16
ag1
ag13
ag6
ag4
ag10
ag3
ag2
ag6
ag1
ag8
ag8
ag4
ag13
ag5
ag12
ag2
ag6
ag3
ag11
ag6
ag12
ag11
ag6
ag8
ag3
ag1
ag11
ag6
ag3
ag1
ag2
ag6
ag1
ag16
ag6
ag13
ag4
ag19
ag1
ag5
ag4
ag5
ag1
ag4
ag6
ag12
ag2
ag2
ag6
ag12
ag11
ag6
ag8
ag3
ag8
ag8
ag13
ag1
ag4
ag1
ag16
ag6
ag2
ag10
ag3
ag17
ag5
ag6
ag1
ag11
ag2
ag6
ag1
ag6
ag6
ag8
ag10
ag5
ag13
ag6
ag1
ag2
ag6
ag12
ag6
ag2
ag11
ag6
ag6
ag11
ag6
ag5
ag10
ag6
ag12
ag11
ag6
ag6
ag48
ag13
ag1
ag6
ag2
ag2
ag1
ag11
ag6
ag3
ag2
ag6
ag3
ag11
ag6
ag5
ag6
ag8
ag3
ag6
ag8
ag5
ag6
ag4
ag1
ag6
ag11
ag6
ag1
ag1
ag5
ag6
ag10
ag3
ag1
ag6
ag2
ag6
ag5
ag4
ag5
ag1
ag10
ag3
ag17
ag5
ag6
ag1
ag6
ag8
ag12
ag11
ag6
ag8
ag3
ag8
ag8
ag13
ag1
ag4
ag1
ag2
ag6
ag10
ag6
ag1
ag5
ag8
ag13
ag1
ag4
ag1
ag12
ag4
ag3
ag4
ag3
ag3
ag6
ag5
ag1
ag8
ag2
ag6
ag12
ag1
ag16
ag1
ag16
ag3
ag6
ag4
ag12
ag11
ag6
ag1
ag2
ag6
ag13
ag10
ag16
ag1
ag16
ag3
ag6
ag8
ag5
ag6
ag4
ag1
ag12
ag11
ag6
ag2
ag6
ag3
ag5
ag16
ag6
ag10
ag1
ag2
ag6
ag6
ag5
ag16
ag12
ag2
ag4
ag2
ag34
ag20
ag6
ag2
ag6
ag4
ag3
ag4
ag3
ag3
ag6
ag5
ag1
ag10
ag5
ag13
ag6
ag3
ag6
ag10
ag3
ag6
ag6
ag1
ag6
ag2
ag6
ag3
ag6
ag8
ag5
ag6
ag4
ag1
ag3
ag11
ag6
ag5
ag6
ag3
ag6
ag13
ag5
aVr
p431
aVr
p432
ag2
ag12
ag17
ag4
ag19
ag10
ag3
ag14
ag6
ag4
ag6
ag5
ag1
ag16
ag2
ag6
ag3
ag6
ag8
ag5
ag6
ag4
ag1
ag12
ag11
ag6
ag10
ag2
ag13
ag10
ag6
ag2
ag6
ag11
ag6
ag5
ag4
ag2
ag1
ag1
ag16
ag5
ag6
ag1
ag4
ag3
ag4
ag3
ag3
ag6
ag5
ag1
ag8
ag13
ag1
ag4
ag1
ag12
ag6
ag3
ag6
ag1
ag3
ag13
ag4
ag6
ag6
ag6
ag2
ag6
aVr
p433
aVr
p434
ag17
ag6
ag17
ag5
ag1
ag4
ag6
ag1
ag5
ag1
ag4
ag1
ag1
ag1
ag16
ag1
ag2
ag6
ag3
ag1
ag5
ag2
ag6
ag3
ag11
ag6
ag5
ag6
ag1
ag8
ag3
ag1
ag12
ag1
ag11
ag6
ag3
ag6
ag1
ag2
ag6
ag3
ag6
ag12
ag1
ag1
ag6
ag6
ag10
ag3
ag6
ag4
ag6
ag5
ag8
ag2
ag6
ag10
ag5
ag13
ag6
ag3
ag13
ag6
ag2
ag16
ag2
ag8
ag3
ag6
ag48
ag13
ag6
ag1
ag4
ag10
ag10
ag3
ag34
ag1
aVr
p435
ag6
ag13
ag5
ag12
aVw
p436
ag6
ag2
ag11
ag6
ag6
ag11
ag6
ag5
ag10
ag6
ag3
ag1
ag19
ag3
ag6
ag13
ag4
ag1
ag5
ag16
ag3
ag2
ag17
ag6
ag1
ag1
ag16
ag13
ag5
ag3
ag10
ag6
ag4
ag3
ag13
ag1
ag5
ag2
ag4
ag10
ag17
ag5
ag6
ag8
ag13
ag10
ag10
ag3
ag6
ag1
ag16
ag2
ag6
ag1
ag6
ag3
ag8
ag6
ag3
ag6
ag1
ag4
ag6
ag16
ag6
ag1
ag6
ag3
ag6
ag17
ag13
ag5
ag1
ag6
ag13
ag13
ag3
ag4
ag6
ag4
ag48
ag13
ag1
aVw
p437
ag6
ag6
ag11
ag5
ag13
ag6
ag1
ag1
ag11
ag6
ag3
ag1
ag4
ag2
ag6
ag6
ag2
ag1
ag20
ag6
ag2
ag6
ag8
ag17
ag6
ag12
ag6
ag6
ag1
ag10
ag3
ag6
ag4
ag6
ag1
ag17
ag6
ag3
ag11
ag6
ag17
ag5
ag6
ag1
ag6
ag1
ag34
ag1
ag13
ag17
ag14
ag6
ag4
ag5
ag12
ag3
ag1
ag19
ag4
ag1
ag3
ag1
ag2
ag10
ag10
ag5
ag6
ag1
ag2
ag6
ag8
ag34
ag1
ag1
ag10
ag3
ag4
ag13
ag5
ag3
ag12
ag6
ag6
ag11
ag6
ag5
ag10
ag6
ag1
ag6
ag3
ag11
ag6
ag5
ag16
ag3
ag2
ag17
ag10
ag1
ag16
ag2
ag6
ag10
ag3
ag14
ag6
ag4
ag6
ag16
ag3
ag6
ag1
ag6
ag2
ag12
ag2
ag2
ag6
ag8
ag5
ag6
ag3
ag4
ag1
ag16
ag2
ag6
ag10
ag3
ag14
ag6
ag4
ag1
ag10
ag6
ag3
ag3
ag2
ag6
ag2
ag6
ag1
ag5
ag6
ag34
ag3
ag4
ag1
ag16
ag5
ag5
ag10
ag4
ag2
ag6
ag8
ag8
ag3
ag4
ag1
ag3
ag6
ag4
ag6
ag11
ag6
ag3
ag16
ag2
ag6
ag3
ag1
ag3
ag16
ag1
ag20
ag1
ag16
ag2
ag6
ag10
ag5
ag16
ag11
ag6
ag1
ag1
ag4
ag2
ag3
ag4
ag8
ag3
ag6
ag48
ag13
ag6
ag1
ag4
ag1
aVh
p438
ag1
ag19
ag6
ag5
ag3
ag34
aVf
p439
ag3
ag2
ag6
ag6
ag5
ag13
ag1
ag17
ag5
ag6
ag1
ag6
aVh
p440
ag1
ag19
ag6
ag5
ag3
ag4
ag6
ag6
ag34
ag3
ag4
ag6
ag8
ag3
ag2
ag6
ag3
ag6
ag8
ag5
ag12
ag3
ag1
ag19
ag2
ag6
ag1
ag4
ag2
ag6
ag3
ag6
ag1
ag1
ag6
ag3
ag8
ag6
ag3
ag6
ag1
ag4
ag6
ag1
ag4
ag1
ag3
ag6
ag4
ag6
ag11
ag6
ag3
ag1
ag4
ag13
ag6
ag17
ag13
ag5
ag1
ag6
ag13
ag5
ag8
ag3
ag6
ag2
ag1
ag4
ag3
ag6
ag6
ag2
ag6
ag3
ag1
ag19
ag8
ag2
ag6
ag8
ag3
ag6
ag6
ag1
ag1
ag6
aVh
p441
ag1
ag19
ag6
ag5
ag3
ag4
ag6
ag2
ag6
ag3
ag6
ag8
ag3
ag6
ag3
ag1
ag19
ag3
ag6
ag13
ag4
ag1
ag8
ag5
ag6
ag3
ag1
ag16
ag1
ag6
ag8
ag8
ag6
ag4
ag11
ag6
ag12
ag1
ag1
ag2
ag5
ag6
ag13
ag3
ag4
ag6
ag1
ag6
ag1
ag2
ag6
ag6
ag1
ag1
ag16
ag8
ag6
ag4
ag10
ag3
ag10
ag6
ag4
ag1
ag16
ag17
ag4
ag19
ag16
ag3
ag13
ag1
ag1
ag6
ag8
ag6
ag1
ag13
ag6
ag17
ag6
ag1
ag3
ag1
aVg
p442
ag13
ag1
aVh
p443
ag12
ag6
ag11
ag6
ag3
ag2
ag1
ag5
ag12
ag10
ag10
ag3
ag10
ag3
ag6
ag8
ag3
ag3
ag6
ag5
ag6
ag4
aVw
p444
ag6
ag13
ag6
ag4
ag5
ag6
ag6
ag2
ag6
ag1
ag3
ag1
aVg
p445
ag13
ag1
ag8
ag5
ag1
ag6
ag4
ag2
ag6
ag12
ag6
ag13
ag6
ag8
ag3
ag2
ag6
ag1
ag5
ag6
ag12
ag6
ag3
ag6
ag10
ag11
ag6
ag1
ag6
ag3
ag6
ag4
ag3
ag4
ag5
ag5
ag6
ag4
ag6
ag12
ag2
ag3
ag6
ag4
ag6
ag11
ag6
ag3
ag3
ag3
ag1
ag8
ag8
ag6
ag3
ag6
ag1
ag5
ag1
ag6
ag1
ag11
ag3
ag1
ag6
ag1
ag6
ag16
ag6
ag6
ag3
ag6
ag10
ag10
ag6
ag1
ag13
ag1
ag1
ag2
ag6
ag3
ag6
ag13
ag5
ag2
ag12
ag6
ag2
ag2
ag6
ag17
ag4
ag19
ag16
ag3
ag13
ag1
ag1
ag6
ag12
ag1
ag3
ag4
ag5
ag1
ag3
ag17
ag13
ag5
ag4
ag5
ag5
ag1
ag3
ag2
ag6
ag1
ag6
ag4
ag13
ag5
ag17
ag6
ag3
ag6
ag6
ag1
ag3
ag6
ag3
ag6
ag1
ag5
ag1
ag2
ag3
ag6
ag10
ag6
ag3
ag12
ag2
ag6
ag3
ag6
ag2
ag6
ag1
ag3
ag17
ag6
ag4
ag6
ag10
ag3
ag12
ag2
ag1
ag4
ag3
ag6
ag1
ag16
ag2
ag6
ag6
ag5
ag6
ag1
ag16
ag2
ag8
ag2
ag6
ag1
ag6
ag3
ag6
ag4
ag3
aVb
p446
ag1
ag5
ag20
ag1
ag16
ag2
ag6
ag17
ag6
ag2
ag11
ag3
ag8
ag1
ag6
ag12
ag6
ag6
ag6
ag3
ag1
ag6
ag2
ag2
ag6
ag1
ag1
ag1
ag3
ag1
ag6
ag5
ag12
ag2
ag3
ag6
ag6
ag1
ag6
ag3
ag16
ag1
ag2
ag6
ag2
ag16
ag2
ag8
ag3
ag6
ag48
ag13
ag6
ag1
ag4
ag17
ag1
ag12
ag2
ag4
ag2
ag11
ag3
ag6
ag12
ag2
ag2
ag6
ag4
ag48
ag13
ag1
ag6
ag1
ag11
ag3
ag1
ag6
ag1
ag2
ag6
ag12
ag1
ag3
ag6
ag1
ag16
ag2
ag1
ag2
ag6
ag4
ag10
ag5
ag6
ag34
ag8
ag2
ag6
ag6
ag1
ag11
ag3
ag1
ag6
ag1
ag5
ag4
ag1
ag1
ag5
ag10
ag4
ag6
ag2
ag6
ag1
ag6
ag1
ag3
ag3
ag6
ag11
ag6
ag3
ag12
ag6
ag8
ag13
ag1
ag2
ag1
ag6
ag1
aVw
p447
ag6
ag2
ag11
ag6
ag6
ag11
ag6
ag5
ag10
ag6
ag1
ag11
ag6
ag5
ag3
ag6
ag16
ag8
ag3
ag13
ag5
ag1
ag6
ag13
ag1
ag6
ag3
ag10
ag5
ag1
ag1
ag6
ag1
ag1
ag16
ag8
ag10
ag3
ag6
ag4
ag19
ag6
ag4
ag6
ag4
ag13
ag3
ag11
ag6
ag8
ag5
ag4
ag11
ag6
ag3
ag5
ag5
ag10
ag17
ag5
ag6
ag13
ag3
ag4
ag6
ag3
ag6
ag4
ag6
ag11
ag6
ag3
ag4
ag17
ag1
ag1
ag5
ag6
ag1
ag16
ag1
ag16
ag6
ag10
ag6
ag4
ag5
ag5
ag1
ag2
ag6
ag10
ag1
ag8
ag8
ag6
ag1
ag2
ag13
ag1
ag6
ag3
ag10
ag5
ag1
ag16
ag4
ag1
ag4
ag10
ag5
ag4
ag6
ag4
ag6
ag3
ag1
ag10
ag3
ag4
ag6
ag1
ag16
ag6
ag10
ag13
ag4
ag2
ag10
ag5
ag13
ag6
ag11
ag3
ag1
ag12
ag2
ag8
ag8
ag6
ag1
ag5
ag1
ag16
ag3
ag1
ag1
ag6
ag3
ag10
ag5
ag1
ag4
ag1
ag16
ag6
ag2
ag6
ag10
ag4
ag8
ag1
ag16
ag3
ag4
ag6
aVw
p448
ag6
ag4
ag1
ag6
ag3
ag6
ag2
ag6
ag10
ag3
ag6
ag4
ag19
ag78
ag13
ag5
ag6
ag1
ag1
ag5
ag3
ag3
ag3
ag2
ag6
ag3
ag12
ag6
ag3
ag6
ag8
ag6
ag3
ag3
ag6
ag78
ag6
ag1
ag3
aVu
p449
ag1
ag16
ag1
ag2
ag6
ag4
ag6
ag12
ag6
ag8
ag3
ag8
ag13
ag1
ag2
ag10
ag3
ag6
ag4
ag19
ag4
ag1
ag17
ag6
ag12
ag6
ag5
ag5
ag10
ag10
ag3
ag34
ag6
ag17
ag5
ag12
ag3
ag1
ag19
ag6
ag1
ag3
ag13
ag1
ag6
ag3
ag3
ag6
ag4
ag6
ag1
ag5
ag10
ag3
ag10
ag6
ag8
ag3
ag6
ag12
ag3
ag19
ag8
ag3
ag6
ag1
ag3
ag1
ag16
ag13
ag5
ag3
ag11
ag5
ag13
ag6
ag6
ag4
ag10
ag1
aVv
p450
aVu
p451
ag1
ag6
ag3
ag2
ag5
ag12
ag3
ag1
ag19
ag13
ag10
ag1
ag12
ag6
ag10
ag3
ag10
ag6
ag4
ag10
ag5
ag6
ag34
ag10
ag6
ag1
ag5
ag20
ag6
ag5
ag16
ag3
ag2
ag8
ag3
ag2
ag6
ag3
ag6
ag4
ag11
ag6
ag3
ag8
ag1
ag16
ag3
ag4
ag6
ag1
ag6
ag1
ag1
ag16
ag1
ag2
ag5
ag16
ag3
ag2
ag2
ag6
ag4
ag10
ag5
ag6
ag34
ag3
ag6
ag16
ag13
ag5
ag3
ag20
ag1
ag12
ag4
ag1
ag3
ag5
ag5
ag6
ag17
ag13
ag1
ag1
ag16
ag1
ag16
ag5
ag6
ag3
ag6
ag16
ag13
ag5
ag3
ag20
ag1
ag10
ag3
ag6
ag6
ag3
ag13
ag1
ag16
ag4
ag5
ag6
aVw
p452
ag6
ag6
ag6
a.