(lp0
VFrance
p1
aVFrance
p2
aVFrance
p3
aVFrance
p4
aVNorway
p5
aVChina
p6
aVChina
p7
aVNorway
p8
aVSaudi Arabia
p9
aVChina
p10
aVUK
p11
aVUK
p12
aVUK
p13
aVUSA
p14
aVUK
p15
aVUK
p16
aVDenmark
p17
aVUK
p18
aVUK
p19
aVCanada
p20
aVUSA
p21
aVUSA
p22
aVUSA
p23
aVFrance
p24
aVthe Netherlands
p25
aVRussia
p26
aVUSA
p27
aVCanada
p28
aVUSA
p29
aVUSA
p30
aVUSA
p31
aVIndia
p32
aVUSA
p33
aVFrance
p34
aVFrance
p35
aVFrance
p36
aVPortugal
p37
aVCanada
p38
aVBrazil
p39
aVBrazil
p40
aVUSA
p41
aVChina
p42
aVUSA
p43
aVRussia
p44
aVUSA
p45
aVPortugal
p46
aVPortugal
p47
aVPortugal
p48
aVPortugal
p49
aVBrazil
p50
aVUSA
p51
aVFrance
p52
aVFrance
p53
aVFrance
p54
aVNorway
p55
aVCanada
p56
aVCanada
p57
aVCanada
p58
aVChina
p59
aVSaudi Arabia
p60
aVUK
p61
aVUK
p62
aVUSA
p63
aVSwitzerland
p64
a.