(lp0
Vissue
p1
aVgeophysics
p2
aVhigh
p3
aVresolution
p4
aVquantitative
p5
aVseismic
p6
aVimaging
p7
aVstrike
p8
aVslip
p9
aVfault
p10
aVsmall
p11
aVvertical
p12
aVoffset
p13
aVclay
p14
aVrocks
p15
aVunderground
p16
aVgalleries
p17
aVexperimental
p18
aVplatform
p19
aVtournemire
p20
aVfrance
p21
aVinfluence
p22
aVfrequency
p23
aVsaturation
p24
aVavo
p25
aVattributes
p26
aVpatchy
p27
aVsaturated
p28
aVrocks
p29
aVsimulating
p30
aVpropagation
p31
aVseparated
p32
aVwave
p33
aVmodes
p34
aVgeneral
p35
aVanisotropic
p36
aVmedia
p37
aVqp
p38
aVwave
p39
aVpropagators
p40
aVmapping
p41
aVmoveout
p42
aVapproximations
p43
aVti
p44
aVmedia
p45
aVsimulation
p46
aVmultipole
p47
aVacoustic
p48
aVlogging
p49
aVcracked
p50
aVporous
p51
aVformations
p52
aVautomated
p53
aVdetection
p54
aVplanar
p55
aVgeologic
p56
aVfeatures
p57
aVborehole
p58
aVimages
p59
aVlaboratory
p60
aVstudy
p61
aVspectral
p62
aVinduced
p63
aVpolarization
p64
aVresponses
p65
aVmagnetite
p66
aVfe2
p67
aVredox
p68
aVreactions
p69
aVporous
p70
aVmedia
p71
aVmapping
p72
aVlateral
p73
aVchanges
p74
aVconductance
p75
aVsheet
p76
aVusing
p77
aVtime
p78
aVdomain
p79
aVinductive
p80
aVelectromagnetic
p81
aVdata
p82
aVquantifying
p83
aVbackground
p84
aVmagnetic
p85
aVfield
p86
aVinhomogeneity
p87
aVimproved
p88
aVinterpretation
p89
aVfree
p90
aVinduction
p91
aVdecay
p92
aVmeasurements
p93
aVcomplex
p94
aVconductivity
p95
aVtomography
p96
aVusing
p97
aVlow
p98
aVfrequency
p99
aVcrosswell
p100
aVelectromagnetic
p101
aVdata
p102
aVtransient
p103
aVmarine
p104
aVelectromagnetics
p105
aVshallow
p106
aVwater
p107
aVsensitivity
p108
aVresolution
p109
aVstudy
p110
aVvertical
p111
aVelectric
p112
aVfield
p113
aVshort
p114
aVranges
p115
aVdemonstration
p116
aVvalue
p117
aVinformation
p118
aVmetric
p119
aVassess
p120
aVuse
p121
aVgeophysical
p122
aVdata
p123
aVgroundwater
p124
aVapplication
p125
aVgeophysical
p126
aVmonitoring
p127
aVreactive
p128
aVtransport
p129
aVsimulations
p130
aVbioclogging
p131
aVprocesses
p132
aVinduced
p133
aVleuconostoc
p134
aVmesenteroides
p135
aVseismic
p136
aVstudy
p137
aVlow
p138
aVpermeability
p139
aVvolume
p140
aVsouthern
p141
aVfrance
p142
aVkarst
p143
aVsystems
p144
aVevaluating
p145
aVutility
p146
aVgravity
p147
aVgradient
p148
aVtensor
p149
aVcomponents
p150
aVharmonic
p151
aVbiharmonic
p152
aVbiases
p153
aVpotential
p154
aVfield
p155
aVinversion
p156
aVadaptive
p157
aVsampling
p158
aVpotential
p159
aVfield
p160
aVdata
p161
aVdirect
p162
aVapproach
p163
aVcompressive
p164
aVinversion
p165
aVtrend
p166
aVenhancement
p167
aVaeromagnetic
p168
aVmaps
p169
aVusing
p170
aVconstrained
p171
aVcoherence
p172
aVenhancing
p173
aVdiffusion
p174
aVfiltering
p175
aVazimuthal
p176
aVanisotropy
p177
aVmicroseismic
p178
aVmonitoring
p179
aVbakken
p180
aVcase
p181
aVstudy
p182
aVcompressional
p183
aVwave
p184
aVpropagation
p185
aVporous
p186
aVmedia
p187
aVsaturated
p188
aVfluids
p189
aVmultidimensional
p190
aVscaling
p191
aVevaluation
p192
aVgeostatistical
p193
aVseismic
p194
aVelastic
p195
aVinversion
p196
aVmethodology
p197
aVtime
p198
aVseries
p199
aVanalysis
p200
aVdiffusion
p201
aVinterferometry
p202
aVdata
p203
aVapplication
p204
aVbayesian
p205
aVinversion
p206
aVsynthetic
p207
aVborehole
p208
aVpressure
p209
aVdata
p210
aVcross
p211
aVborehole
p212
aVtomography
p213
aVcorrelation
p214
aVdelay
p215
aVtimes
p216
aVanisotropic
p217
aVmigration
p218
aVvelocity
p219
aVanalysis
p220
aVusing
p221
aVreverse
p222
aVtime
p223
aVmigration
p224
aVestimation
p225
aVelastic
p226
aVstiffness
p227
aVcoefficients
p228
aVorthorhombic
p229
aVphysical
p230
aVmodel
p231
aVusing
p232
aVgroup
p233
aVvelocity
p234
aVanalysis
p235
aVtransmission
p236
aVdata
p237
aVsimultaneous
p238
aVreverse
p239
aVtime
p240
aVmigration
p241
aVprimaries
p242
aVfree
p243
aVsurface
p244
aVrelated
p245
aVmultiples
p246
aVmultiple
p247
aVprediction
p248
aVsquares
p249
aVreverse
p250
aVtime
p251
aVmigration
p252
aVmultiples
p253
aVseismic
p254
aVray
p255
aVtracing
p256
aVanisotropic
p257
aVmedia
p258
aVmodified
p259
aVnewton
p260
aValgorithm
p261
aVsolving
p262
aVhighly
p263
aVnonlinear
p264
aVsystems
p265
aVrecursive
p266
aVintegral
p267
aVtime
p268
aVextrapolation
p269
aVmethods
p270
aVwaves
p271
aVcomparative
p272
aVreview
p273
aVkrauklis
p274
aVwave
p275
aVinitiation
p276
aVfluid
p277
aVfilled
p278
aVfractures
p279
aVseismic
p280
aVbody
p281
aVwaves
p282
a.