(lp0
VBrazil
p1
aVBrazil
p2
aVBrazil
p3
aVSwitzerland
p4
aVSweden
p5
aVSwitzerland
p6
aVSwitzerland
p7
aVSwitzerland
p8
aVDenmark
p9
aVDenmark
p10
aVBotswana
p11
aVBrazil
p12
aVBrazil
p13
aVCanada
p14
aVUSA
p15
aVUSA
p16
aVNorway
p17
aVFrance
p18
aVAustralia
p19
aVAustralia
p20
aVNorway
p21
aVNorway
p22
aVUSA
p23
aVUSA
p24
aVFrance
p25
aVUSA
p26
aVUSA
p27
aVFrance
p28
aVUSA
p29
aVUSA
p30
aVKorea
p31
aVUSA
p32
aVUSA
p33
aVBrazil
p34
aVBrazil
p35
aVUSA
p36
aVUSA
p37
aVUSA
p38
aVUSA
p39
aVUSA
p40
aVUSA
p41
aVUSA
p42
aVFrance
p43
aVUSA
p44
aVUSA
p45
aVCanada
p46
aVUSA
p47
aVUSA
p48
aVUSA
p49
aVItaly
p50
aVAustralia
p51
aVChina
p52
aVCanada
p53
aVBrazil
p54
aVBrazil
p55
aVChina
p56
aVUSA
p57
aVChina
p58
aVUSA
p59
aVChina
p60
aVUSA
p61
aVChina
p62
aVNorway
p63
aVChina
p64
aVCanada
p65
aVRepublic of Korea
p66
aVRepublic of Korea
p67
aVRepublic of Korea
p68
aVRepublic of Korea
p69
aVSaudi Arabia
p70
aVNorway
p71
aVChina
p72
aVChina
p73
aVBrazil
p74
aVBrazil
p75
aVBrazil
p76
aVBrazil
p77
aVMexico
p78
aVChina
p79
aVChina
p80
aVChina
p81
aVUSA
p82
aVUSA
p83
aVUSA
p84
aVUSA
p85
aVUSA
p86
aVUSA
p87
aVSaudi Arabia
p88
aVNorway
p89
aVNorway
p90
aVNorway
p91
aVNorway
p92
aVGermany
p93
aVRussian Federation
p94
aVFrance
p95
aVFrance
p96
aVFrance
p97
aVFrance
p98
aVChina
p99
aVUSA
p100
aVNorway
p101
aVBrazil
p102
aVBrazil
p103
aVCanada
p104
aVIran
p105
aVChina
p106
aVUSA
p107
aVUSA
p108
aVSaudi Arabia
p109
aVUSA
p110
aVSaudi Arabia
p111
aVUSA
p112
aVUSA
p113
aVIceland
p114
aVUSA
p115
aVUSA
p116
aVCanada
p117
aVUSA
p118
aVUSA
p119
aVUSA
p120
aVSwitzerland
p121
aVCanada
p122
aVSwitzerland
p123
aVSwitzerland
p124
aVSwitzerland
p125
aVGermany
p126
aVColorado
p127
aVUSA
p128
aVIndia
p129
aVUSA
p130
aVAustralia
p131
aVAustralia
p132
aVAustralia
p133
aVAustralia
p134
aVAustralia
p135
aVAustralia
p136
a.