(lp0
Vissue
p1
aVgeophysics
p2
aVfrequency
p3
aVdomain
p4
aVacoustic
p5
aVwave
p6
aVmodeling
p7
aVhybrid
p8
aVabsorbing
p9
aVboundary
p10
aVconditions
p11
aVhydrogeophysical
p12
aVinvestigations
p13
aVwestern
p14
aVnorth
p15
aVcentral
p16
aVokavango
p17
aVdelta
p18
aVbotswana
p19
aVbased
p20
aVhelicopter
p21
aVground
p22
aVbased
p23
aVtransient
p24
aVelectromagnetic
p25
aVdata
p26
aVelectrical
p27
aVresistance
p28
aVtomography
p29
aV3d
p30
aVtensor
p31
aVgradiometry
p32
aVfalcon
p33
aVsystems
p34
aVdata
p35
aVanalysis
p36
aViron
p37
aVore
p38
aVexploration
p39
aVba
p40
aVquadril
p41
aVtero
p42
aVferr
p43
aVfero
p44
aVminas
p45
aVgerais
p46
aVbrazil
p47
aVapplication
p48
aVseismic
p49
aVattributes
p50
aVspectral
p51
aVdecomposition
p52
aVreservoir
p53
aVcharacterization
p54
aVcomplex
p55
aVfluvial
p56
aVcase
p57
aVstudy
p58
aVcarbonera
p59
aVformation
p60
aVllanos
p61
aVforeland
p62
aVbasin
p63
aVcolombia
p64
aVmicroseismic
p65
aVjoint
p66
aVlocation
p67
aVanisotropic
p68
aVvelocity
p69
aVinversion
p70
aVhydraulic
p71
aVfracturing
p72
aVtight
p73
aVbakken
p74
aVreservoir
p75
aVfresnel
p76
aVvolume
p77
aVinterface
p78
aVfresnel
p79
aVzone
p80
aVreflected
p81
aVtransmitted
p82
aVwaves
p83
aVcurved
p84
aVinterface
p85
aVanisotropic
p86
aVmedia
p87
aVmodeling
p88
aVelastic
p89
aVanisotropy
p90
aVresulting
p91
aVapplication
p92
aVtriaxial
p93
aVstress
p94
aVdiagnostics
p95
aVseismic
p96
aVtime
p97
aVlapse
p98
aVeffects
p99
aVsandstones
p100
aVbased
p101
aVlaboratory
p102
aVdata
p103
aVpore
p104
aVscale
p105
aVmodeling
p106
aVelectrical
p107
aVresistivity
p108
aVpermeability
p109
aVfib
p110
aVsem
p111
aVimages
p112
aVorganic
p113
aVmudrock
p114
aVelectrical
p115
aVconductivity
p116
aVinduced
p117
aVpolarization
p118
aVpermeability
p119
aVfontainebleau
p120
aVsandstone
p121
aVeffect
p122
aVsurface
p123
aVroughness
p124
aVmixed
p125
aVmode
p126
aVloading
p127
aVstiffness
p128
aVratio
p129
aVx
p130
aVz
p131
aVfractures
p132
aVfluid
p133
aVsalinity
p134
aVclay
p135
aVcontent
p136
aVpermeability
p137
aVrocks
p138
aVdetermined
p139
aVcomplex
p140
aVresistivity
p141
aVpartition
p142
aVfraction
p143
aVdecomposition
p144
aVmeasurements
p145
aVelastic
p146
aVconstants
p147
aVanisotropic
p148
aVmedia
p149
aV1d
p150
aVradial
p151
aVinversion
p152
aVmultidetector
p153
aVlogging
p154
aVdrilling
p155
aVsigma
p156
aVmeasurements
p157
aVlaboratory
p158
aVdetermination
p159
aVcomplex
p160
aVconductivity
p161
aVtensor
p162
aVunconventional
p163
aVanisotropic
p164
aVshales
p165
aVmultielevation
p166
aVcalibration
p167
aVfrequency
p168
aVdomain
p169
aVelectromagnetic
p170
aVdata
p171
aVcoseismic
p172
aVelectromagnetic
p173
aVfield
p174
aVelectrokinetic
p175
aVeffect
p176
aVanalytical
p177
aVsolutions
p178
aVem
p179
aVfields
p180
aVdipolar
p181
aVsource
p182
aVinside
p183
aVinfinite
p184
aVcasing
p185
aVautomatic
p186
aVgeneration
p187
aV3d
p188
aVgeophysical
p189
aVmodels
p190
aVusing
p191
aVcurvatures
p192
aVderived
p193
aVairborne
p194
aVgravity
p195
aVgradient
p196
aVdata
p197
aVhigh
p198
aVprecision
p199
aVfourier
p200
aVforward
p201
aVmodeling
p202
aVpotential
p203
aVfields
p204
aVnoise
p205
aVreduction
p206
aVprocedures
p207
aVgravity
p208
aVgradiometer
p209
aVdata
p210
aVfast
p211
aVgravity
p212
aVinversion
p213
aVbasement
p214
aVrelief
p215
aVnew
p216
aVmethod
p217
aVestimating
p218
aVgas
p219
aVhydrate
p220
aVsaturation
p221
aVshenhu
p222
aVarea
p223
aVprobabilistic
p224
aVlithofacies
p225
aVprediction
p226
aVprestack
p227
aVseismic
p228
aVdata
p229
aVheterogeneous
p230
aVcarbonate
p231
aVreservoir
p232
aVestimation
p233
aVpressure
p234
aVsaturation
p235
aVchanges
p236
aVunconsolidated
p237
aVreservoir
p238
aVrocks
p239
aVhigh
p240
aVvp
p241
aVvs
p242
aVratio
p243
aVusing
p244
aVcylindrical
p245
aVsurface
p246
aVbased
p247
aVcurvature
p248
aVchange
p249
aVrate
p250
aVdetect
p251
aVfaults
p252
aVfractures
p253
aVcomparison
p254
aVmultifrequency
p255
aVselection
p256
aVstrategies
p257
aVsimultaneous
p258
aVsource
p259
aVwaveform
p260
aVinversion
p261
aValgorithm
p262
aVadapting
p263
aVencoded
p264
aVsimultaneous
p265
aVsource
p266
aVwaveform
p267
aVinversion
p268
aVmarine
p269
aVstreamer
p270
aVacquisition
p271
aVdata
p272
aVlaplace
p273
aVfourier
p274
aVdomain
p275
aVelastic
p276
aVwaveform
p277
aVinversion
p278
aVusing
p279
aVtime
p280
aVdomain
p281
aVmodeling
p282
aVdynamic
p283
aVtime
p284
aVwarping
p285
aVimproved
p286
aVmethod
p287
aV4d
p288
aVtomography
p289
aVtime
p290
aVshift
p291
aVestimation
p292
aVbayesian
p293
aVinversion
p294
aVeffective
p295
aVpore
p296
aVfluid
p297
aVbulk
p298
aVmodulus
p299
aVbased
p300
aVfluid
p301
aVmatrix
p302
aVdecoupled
p303
aVamplitude
p304
aVvariation
p305
aVoffset
p306
aVapproximation
p307
aVsymplectic
p308
aVscheme
p309
aVpoynting
p310
aVvector
p311
aVreverse
p312
aVtime
p313
aVmigration
p314
aV3d
p315
aVps
p316
aVwave
p317
aVimaging
p318
aVelastic
p319
aVreverse
p320
aVtime
p321
aVmigration
p322
aVreducing
p323
aVcomputer
p324
aVmemory
p325
aVrequirement
p326
aV3d
p327
aVreverse
p328
aVtime
p329
aVmigration
p330
aVboundary
p331
aVwavefield
p332
aVextrapolation
p333
aVmethod
p334
aVsquares
p335
aVreverse
p336
aVtime
p337
aVmigration
p338
aVwavefield
p339
aVseparation
p340
aVimaging
p341
aVcondition
p342
aVupdated
p343
aVsource
p344
aVwavefields
p345
aVgeneralized
p346
aVinternal
p347
aVmultiple
p348
aVimaging
p349
aVmigration
p350
aVprimaries
p351
aVmultiples
p352
aVusing
p353
aVimaging
p354
aVcondition
p355
aVamplitude
p356
aVnormalized
p357
aVseparated
p358
aVwavefields
p359
aVcurvatures
p360
aVinhomogeneities
p361
aVimproved
p362
aVcommon
p363
aVreflection
p364
aVsurface
p365
aVapproach
p366
aVcomputationally
p367
aVefficient
p368
aVdimensional
p369
aVacoustic
p370
aVfinite
p371
aVdifference
p372
aVfrequency
p373
aVdomain
p374
aVseismic
p375
aVmodeling
p376
aVvertical
p377
aVtransversely
p378
aVisotropic
p379
aVmedia
p380
aVsparse
p381
aVdirect
p382
aVsolver
p383
aVseismic
p384
aVmodeling
p385
aVoptimizing
p386
aVregularized
p387
aVstaggered
p388
aVgrid
p389
aVfinite
p390
aVdifference
p391
aVoperators
p392
aVusing
p393
aVtime
p394
aVspace
p395
aVdomain
p396
aVdispersion
p397
aVrelationship
p398
aVpreserving
p399
aVmethod
p400
aVsignal
p401
aVtraveltime
p402
aVparameter
p403
aVestimation
p404
aVusing
p405
aVsingular
p406
aVvalue
p407
aVdecomposition
p408
aVsparse
p409
aVmultichannel
p410
aVblind
p411
aVdeconvolution
p412
aVphase
p413
aVretrieval
p414
aVregularization
p415
aVseismic
p416
aVproblems
p417
aV2d
p418
aV3d
p419
aVprestack
p420
aVseismic
p421
aVdata
p422
aVregularization
p423
aVusing
p424
aVaccelerated
p425
aVsparse
p426
aVtime
p427
aVinvariant
p428
aVradon
p429
aVtransform
p430
aViterative
p431
aVdeblending
p432
aVsimultaneous
p433
aVsource
p434
aVseismic
p435
aVdata
p436
aVusing
p437
aVseislet
p438
aVdomain
p439
aVshaping
p440
aVregularization
p441
aVmultidimensional
p442
aVinterpolation
p443
aVusing
p444
aVmodel
p445
aVconstrained
p446
aVminimum
p447
aVweighted
p448
aVnorm
p449
aVinterpolation
p450
aVreview
p451
aVimproved
p452
aVseismic
p453
aVimaging
p454
aVclosure
p455
aVphase
p456
aVvalue
p457
aVspatial
p458
aVinformation
p459
aVdetermining
p460
aVplacement
p461
aVgeothermal
p462
aVexample
p463
aVattenuation
p464
aVadvances
p465
aVanalysis
p466
aVestimation
p467
aVintroduction
p468
aVprediction
p469
aVseismic
p470
aVwave
p471
aVdispersion
p472
aVattenuation
p473
aVultrasonic
p474
aVvelocity
p475
aVmeasurements
p476
aVlaboratory
p477
aVmeasurements
p478
aVseismic
p479
aVattenuation
p480
aVsandstone
p481
aVstrain
p482
aVversus
p483
aVfluid
p484
aVsaturation
p485
aVeffects
p486
aVsensitivity
p487
aVwave
p488
aVattenuation
p489
aVconnectivity
p490
aVfractures
p491
aVfluid
p492
aVsaturated
p493
aVrocks
p494
aVpoint
p495
aVsource
p496
aVradiation
p497
aVattenuative
p498
aVanisotropic
p499
aVmedia
p500
aVquantifying
p501
aVeffect
p502
aVcapillarity
p503
aVattenuation
p504
aVdispersion
p505
aVpatchy
p506
aVsaturated
p507
aVrocks
p508
a.