(lp0
VUSA
p1
aVThe Netherlands
p2
aVUSA
p3
aVSwitzerland
p4
aVSwitzerland
p5
aVU. K
p6
aVSwitzerland
p7
aVUSA
p8
aVChina
p9
aVU. K.
p10
aVU. K.
p11
aVFrance
p12
aVU. K.
p13
aVAustralia
p14
aVBrazil
p15
aVU. K
p16
aVBrazil
p17
aVBrazil
p18
aVNorway
p19
aVUSA
p20
aVNorway
p21
aVGermany
p22
aVUSA
p23
aVNorway
p24
aVThe Netherlands
p25
aVUSA
p26
aVAustralia
p27
aVUSA
p28
aVUSA
p29
aVUSA
p30
aVUSA
p31
aVNorway
p32
aVThe Netherlands
p33
aVThe Netherlands
p34
aVThe Netherlands
p35
aVUSA
p36
aVUSA
p37
aVUSA
p38
aVGermany
p39
aVDenmark
p40
aVUSA
p41
aVUSA
p42
aVKorea
p43
aVUSA
p44
aVUSA
p45
aVUSA
p46
aVUSA
p47
aVUSA
p48
aVUSA
p49
aVUSA
p50
aVFrance
p51
aVFrance
p52
aVFrance
p53
aVFrance
p54
aVUSA
p55
aVNorway
p56
aVRussia
p57
aVNorway
p58
aVRepublic of Korea
p59
aVUSA
p60
aVBrazil
p61
aVBrazil
p62
aVUSA
p63
aVUSA
p64
aVChina
p65
aVChina
p66
aVSingapore
p67
aVUSA
p68
aVUSA
p69
aVUSA
p70
aVUSA
p71
aVBrazil
p72
aVSaudi Arabia
p73
aVUSA
p74
aVUSA
p75
aVUSA
p76
aVUSA
p77
aVUSA
p78
aVSweden
p79
aVAustralia
p80
aVCanada
p81
aVCanada
p82
aVNew Zealand
p83
aVCanada
p84
aVCanada
p85
aVCanada
p86
aVCanada
p87
aVFinland
p88
aVFinland
p89
aVFinland
p90
aVCanada
p91
aVFinland
p92
aVFinland
p93
aVCanada
p94
aVSweden
p95
aVNew Zealand
p96
aVCanada
p97
aVPoland
p98
aVCanada
p99
aVCanada
p100
aVPoland
p101
aVCanada
p102
aVCanada
p103
aVSweden
p104
aVSweden
p105
aVPoland
p106
aVCanada
p107
aVSweden
p108
aVAustralia
p109
aVAustralia
p110
aVFinland
p111
aVSweden
p112
aVCanada
p113
aVWestern Australia
p114
aVWestern Australia
p115
aVWestern Australia
p116
aVRepublic of South Africa
p117
aVRepublic of South Africa
p118
aVRepublic of South Africa
p119
aVRepublic of South Africa
p120
aVFinland
p121
aVSweden
p122
aVFinland
p123
aVRepublic of South Africa
p124
aVRepublic of South Africa
p125
aVRepublic of South Africa
p126
aVRepublic of South Africa
p127
aVRepublic of South Africa
p128
aVSweden
p129
aVSouth Africa
p130
aVCanada
p131
aVAustralia
p132
aVCanada
p133
aVSouth Africa
p134
aVCanada
p135
aVCanada
p136
aVCanada
p137
aVFinland
p138
aVFinland
p139
aVFinland
p140
aVAustralia
p141
aVAustralia
p142
aVCanada
p143
aVAustralia
p144
a.