(lp0
Vissue
p1
aVgeophysics
p2
aVfocusing
p3
aVwavefield
p4
aVinside
p5
aVunknown
p6
aV1d
p7
aVmedium
p8
aVseismic
p9
aVinterferometry
p10
aVimaging
p11
aVquantifying
p12
aVsalt
p13
aVtracer
p14
aVtransport
p15
aVriparian
p16
aVgroundwater
p17
aVmeans
p18
aV3d
p19
aVert
p20
aVmonitoring
p21
aVapplication
p22
aVmagnetic
p23
aVamplitude
p24
aVinversion
p25
aVexploration
p26
aVvolcanic
p27
aVunits
p28
aVbasin
p29
aVenvironment
p30
aVshifted
p31
aVelliptical
p32
aVnonstretch
p33
aVmoveout
p34
aVcorrection
p35
aVwide
p36
aVangle
p37
aVseismic
p38
aVdata
p39
aVp
p40
aVdomain
p41
aVusing
p42
aVexample
p43
aVfaeroe
p44
aVshetland
p45
aVbasin
p46
aVrobust
p47
aVgeophysical
p48
aVintegration
p49
aVstructure
p50
aVcoupled
p51
aVjoint
p52
aVinversion
p53
aVmultispectral
p54
aVfusion
p55
aVseismic
p56
aVreflection
p57
aVmagnetotelluric
p58
aVmagnetic
p59
aVgravity
p60
aVimages
p61
aVexample
p62
aVsantos
p63
aVbasin
p64
aVoffshore
p65
aVbrazil
p66
aVmodeling
p67
aVcompaction
p68
aVeffects
p69
aVelastic
p70
aVproperties
p71
aVclay
p72
aVwater
p73
aVcomposites
p74
aVsalinity
p75
aVdependence
p76
aVcomplex
p77
aVconductivity
p78
aVunconsolidated
p79
aVconsolidated
p80
aVmaterials
p81
aVcomparisons
p82
aVelectrical
p83
aVdouble
p84
aVlayer
p85
aVmodels
p86
aVtheoretical
p87
aVestimate
p88
aVtube
p89
aVwave
p90
aVmodulus
p91
aVarbitrarily
p92
aVanisotropic
p93
aVmedia
p94
aVcomparisons
p95
aVsemianalytical
p96
aVfem
p97
aVapproximate
p98
aVsolutions
p99
aVinduced
p100
aVpolarization
p101
aVairborne
p102
aVem
p103
aVnumerical
p104
aVmodeling
p105
aVanalysis
p106
aVshort
p107
aVoffset
p108
aVelectric
p109
aVfield
p110
aVmeasurements
p111
aVvertical
p112
aVelectric
p113
aVdipole
p114
aVsource
p115
aVcomplex
p116
aVoffshore
p117
aVenvironments
p118
aV3d
p119
aVcsem
p120
aVmodeling
p121
aVtime
p122
aVlapse
p123
aVsensitivity
p124
aVanalysis
p125
aVsubsurface
p126
aVco2
p127
aVstorage
p128
aVquasi
p129
aVanalytical
p130
aVmethod
p131
aVfrequency
p132
aVtime
p133
aVconversion
p134
aVcsem
p135
aVapplications
p136
aVeffect
p137
aVspatial
p138
aVvariation
p139
aVsurface
p140
aVrelaxivity
p141
aVnuclear
p142
aVmagnetic
p143
aVresonance
p144
aVrelaxation
p145
aVrates
p146
aVmodel
p147
aVcompression
p148
aVscheme
p149
aVnonlinear
p150
aVelectromagnetic
p151
aVinversions
p152
aVp
p153
aVwave
p154
aVtraveltime
p155
aVtomography
p156
aVseismic
p157
aVcharacterization
p158
aVblack
p159
aVshales
p160
aVshallow
p161
aVdepth
p162
aVbornholm
p163
aVdenmark
p164
aVtheoretical
p165
aVexperimental
p166
aVstudy
p167
aVresonance
p168
aVblobs
p169
aVporous
p170
aVmedia
p171
aVsingle
p172
aVhole
p173
aVimaging
p174
aVusing
p175
aVborehole
p176
aVgravity
p177
aVgradiometry
p178
aVefficient
p179
aVestimation
p180
aVnonlinear
p181
aVposterior
p182
aVmodel
p183
aVcovariances
p184
aVusing
p185
aVmaximally
p186
aVsparse
p187
aVcubature
p188
aVrules
p189
aVjoint
p190
aVinversion
p191
aVcontrolled
p192
aVsource
p193
aVelectromagnetic
p194
aVproduction
p195
aVdata
p196
aVreservoir
p197
aVmonitoring
p198
aVwaveform
p199
aVjoint
p200
aVinversion
p201
aVseismograms
p202
aVelectrograms
p203
aVmoment
p204
aVtensor
p205
aVcharacterization
p206
aVfracking
p207
aVevents
p208
aVmultiscale
p209
aVmatched
p210
aVfield
p211
aVprocessing
p212
aVnoise
p213
aVsource
p214
aVlocalization
p215
aVexploration
p216
aVgeophysics
p217
aVeffect
p218
aVinterface
p219
aVcurvature
p220
aVavo
p221
aVinversion
p222
aVnear
p223
aVcritical
p224
aVpostcritical
p225
aVpp
p226
aVreflections
p227
aVlaplace
p228
aVdomain
p229
aVwaveform
p230
aVinversion
p231
aVseismic
p232
aVdata
p233
aVlacking
p234
aVlow
p235
aVfrequency
p236
aVinformation
p237
aVquasi
p238
aVnewton
p239
aVwaveform
p240
aVinversion
p241
aVprojected
p242
aVhessian
p243
aVmatrix
p244
aVtomography
p245
aVdiffraction
p246
aVbased
p247
aVfocusing
p248
aVoperators
p249
aVangle
p250
aVdomain
p251
aVimaging
p252
aVcondition
p253
aVelastic
p254
aVreverse
p255
aVtime
p256
aVmigration
p257
aVapplication
p258
aVangle
p259
aVgather
p260
aVextraction
p261
aVmigration
p262
aV3d
p263
aVirregular
p264
aVsurfaces
p265
aVprestack
p266
aVtime
p267
aVmigration
p268
aVapproach
p269
aVorder
p270
aVsystems
p271
aVelastic
p272
aVacoustic
p273
aVvariable
p274
aVtilt
p275
aVti
p276
aVmedia
p277
aVinstability
p278
aVsecond
p279
aVorder
p280
aVsystems
p281
aVacoustic
p282
aVvti
p283
aVtti
p284
aVmedia
p285
aVnew
p286
aVfamily
p287
aVfinite
p288
aVdifference
p289
aVschemes
p290
aVsolve
p291
aVheterogeneous
p292
aVacoustic
p293
aVwave
p294
aVequation
p295
aVmigration
p296
aVvelocity
p297
aVanalysis
p298
aVusing
p299
aVtraveltime
p300
aVwavefield
p301
aVtomography
p302
aVconstrained
p303
aVsquares
p304
aVspectral
p305
aVanalysis
p306
aVapplication
p307
aVseismic
p308
aVdata
p309
aVapplication
p310
aVconstrained
p311
aVpolarization
p312
aVfiltering
p313
aVsurface
p314
aVwave
p315
aVmitigation
p316
aVcase
p317
aVstudies
p318
aVseismic
p319
aVmethods
p320
aVmineral
p321
aVexploration
p322
aVplanning
p323
aVintroduction
p324
aVperformance
p325
aVlow
p326
aVfold
p327
aVscalar
p328
aVmigration
p329
aVdownhole
p330
aVseismic
p331
aVimaging
p332
aVmassive
p333
aVsulfide
p334
aVore
p335
aVdeposits
p336
aVnorman
p337
aVwest
p338
aVsudbury
p339
aVcanada
p340
aVseismic
p341
aVreflection
p342
aVprofiling
p343
aVpyh
p344
aVsalmi
p345
aVvhms
p346
aVdeposit
p347
aVcomplementary
p348
aVapproach
p349
aVdeep
p350
aVbase
p351
aVmetal
p352
aVexploration
p353
aVfinland
p354
aVelastic
p355
aVfinite
p356
aVdifference
p357
aVmodeling
p358
aVvolcanic
p359
aVhosted
p360
aVmassive
p361
aVsulfide
p362
aVdeposits
p363
aVcase
p364
aVstudy
p365
aVhalf
p366
aVmile
p367
aVlake
p368
aVnew
p369
aVbrunswick
p370
aVcanada
p371
aVinterpretation
p372
aV2d
p373
aVseismic
p374
aVprofiles
p375
aVcomplex
p376
aVgeological
p377
aVterrains
p378
aVexamples
p379
aVflin
p380
aVflon
p381
aVmining
p382
aVcamp
p383
aVcanada
p384
aV3d
p385
aVseismic
p386
aVimaging
p387
aVvolcanogenic
p388
aVmassive
p389
aVsulfide
p390
aVdeposits
p391
aVflin
p392
aVflon
p393
aVmining
p394
aVcamp
p395
aVcanada
p396
aV1
p397
aVseismic
p398
aVresults
p399
aVseismic
p400
aVproperties
p401
aVvoisey
p402
aVbay
p403
aVmassive
p404
aVsulfide
p405
aVdeposit
p406
aVinsights
p407
aVapproaches
p408
aVseismic
p409
aVimaging
p410
aV3d
p411
aVconstraints
p412
aVfinite
p413
aVdifference
p414
aVmodeling
p415
aVmassive
p416
aVsulfide
p417
aVdeposits
p418
aVkristineberg
p419
aVseismic
p420
aVlines
p421
aVrevisited
p422
aVnorthern
p423
aVsweden
p424
aV3d
p425
aVseismic
p426
aVimaging
p427
aVvolcanogenic
p428
aVmassive
p429
aVsulfide
p430
aVdeposits
p431
aVflin
p432
aVflon
p433
aVmining
p434
aVcamp
p435
aVcanada
p436
aV2
p437
aVforward
p438
aVmodeling
p439
aV3d
p440
aVreflection
p441
aVseismic
p442
aVimaging
p443
aVopen
p444
aVpit
p445
aVplanning
p446
aVdeep
p447
aVexploration
p448
aVkevitsa
p449
aVni
p450
aVcu
p451
aVpge
p452
aVdeposit
p453
aVnorthern
p454
aVfinland
p455
aV3d
p456
aVimaging
p457
aVchallenges
p458
aVsteeply
p459
aVdipping
p460
aVmining
p461
aVstructures
p462
aVnew
p463
aVlights
p464
aVacquisition
p465
aVgeometry
p466
aVprocessing
p467
aVbrunswick
p468
aV6
p469
aVseismic
p470
aVdata
p471
aVcanada
p472
aVtargeting
p473
aVnickel
p474
aVsulfide
p475
aVdeposits
p476
aV3d
p477
aVseismicreflection
p478
aVdata
p479
aVkambalda
p480
aVaustralia
p481
aV3d
p482
aVedge
p483
aVdetection
p484
aVseismic
p485
aVattributes
p486
aVused
p487
aVmap
p488
aVpotential
p489
aVconduits
p490
aVwater
p491
aVmethane
p492
aVdeep
p493
aVgold
p494
aVmines
p495
aVwitwatersrand
p496
aVbasin
p497
aVsouth
p498
aVafrica
p499
aV2d
p500
aVreflection
p501
aVseismic
p502
aVinvestigations
p503
aVkevitsa
p504
aVni
p505
aVcu
p506
aVpge
p507
aVdeposit
p508
aVnorthern
p509
aVfinland
p510
aVapplication
p511
aV3d
p512
aVseismic
p513
aVtechniques
p514
aVevaluate
p515
aVore
p516
aVresources
p517
aVwest
p518
aVwits
p519
aVline
p520
aVgoldfield
p521
aVportions
p522
aVwest
p523
aVrand
p524
aVgoldfield
p525
aVsouth
p526
aVafrica
p527
aVseismic
p528
aVmethods
p529
aVmineral
p530
aVexploration
p531
aVplanning
p532
aVgeneral
p533
aVoverview
p534
aVpast
p535
aVpresent
p536
aVcase
p537
aVhistories
p538
aVlook
p539
aVfuture
p540
aVseismic
p541
aVdelineation
p542
aVorion
p543
aVsouth
p544
aVkimberlite
p545
aVfort
p546
aVla
p547
aVcorne
p548
aVcanada
p549
aVinterpretation
p550
aVsurface
p551
aVborehole
p552
aVseismic
p553
aVsurveys
p554
aVplanning
p555
aVmillennium
p556
aVuranium
p557
aVdeposit
p558
aVnorthern
p559
aVsaskatchewan
p560
aVcanada
p561
aVdelineating
p562
aVophiolite
p563
aVderived
p564
aVhost
p565
aVrocks
p566
aVmassive
p567
aVsulfide
p568
aVcu
p569
aVzn
p570
aVdeposits
p571
aV2d
p572
aVhigh
p573
aVresolution
p574
aVseismic
p575
aVreflection
p576
aVdata
p577
aVoutokumpu
p578
aVfinland
p579
aVhydrophone
p580
aVvsp
p581
aVsurveys
p582
aVhard
p583
aVrock
p584
aVseismic
p585
aVprocessing
p586
aVinversion
p587
aVavo
p588
aVgold
p589
aVexploration
p590
aVcase
p591
aVstudy
p592
aVwestern
p593
aVaustralia
p594
a.