(lp0
VNorway
p1
aVNorway
p2
aVUSA
p3
aVSweden
p4
aVFinland
p5
aVFinland
p6
aVDenmark
p7
aVUSA
p8
aVUSA
p9
aVUSA
p10
aVUSA
p11
aVChina
p12
aVUSA
p13
aVNorway
p14
aVNorway
p15
aVNorway
p16
aVNorway
p17
aVAustralia
p18
aVAustralia
p19
aVAustralia
p20
aVUSA
p21
aVChina
p22
aVChina
p23
aVHungary
p24
aVHungary
p25
aVUSA
p26
aVUSA
p27
aVFrance
p28
aVUSA
p29
aVUSA
p30
aVUSA
p31
aVUSA
p32
aVUSA
p33
aVAustralia
p34
aVAustralia
p35
aVDenmark
p36
aVDenmark
p37
aVNorway
p38
aVNorway
p39
aVNorway
p40
aVRussia
p41
aVRussia
p42
aVRussia
p43
aVFrance
p44
aVUSA
p45
aVUSA
p46
aVUSA
p47
aVFrance
p48
aVUSA
p49
aVUSA
p50
aVFrance
p51
aVChina
p52
aVUSA
p53
aVChina
p54
aVBrazil
p55
aVCanada
p56
aVChina
p57
aVChina
p58
aVChina
p59
aVChina
p60
aVAustralia
p61
aVAustralia
p62
aVCanada
p63
aVChina
p64
aVUSA
p65
aVUSA
p66
aVUSA
p67
aVUSA
p68
aVUSA
p69
aVUSA
p70
aVUK
p71
aVKorea
p72
aVFrance
p73
aVUSA
p74
aVCanada
p75
aVCanada
p76
aVCanada
p77
aVGermany
p78
aVUK
p79
aVSwitzerland
p80
aVSwitzerland
p81
aVSaudi Arabia
p82
aVUSA
p83
aVGermany
p84
aVGermany
p85
aVGermany
p86
aVUSA
p87
aVUSA
p88
aVSaudi Arabia
p89
aVFrance
p90
aVNorway
p91
aVNorway
p92
aVNorway
p93
aVUSA
p94
aVUSA
p95
aVUSA
p96
aVCanada
p97
aVUSA
p98
aVChina
p99
aVChina
p100
aVChina
p101
aVUSA
p102
aVChina
p103
aVSaudi Arabia
p104
aVChina
p105
aVChina
p106
aVChina
p107
aVUSA
p108
aVUSA
p109
aVUSA
p110
aVUSA
p111
aVUSA
p112
aVHong Kong
p113
aVUSA
p114
aVUSA
p115
aVUSA
p116
aVUSA
p117
aVCanada
p118
aVUSA
p119
aVChina
p120
aVUSA
p121
aVUSA
p122
aVIran
p123
aVUSA
p124
aVBrazil
p125
aVBrazil
p126
aVChina
p127
aVChina
p128
aVUK
p129
aVCanada
p130
aVIran
p131
aVCanada
p132
aVUSA
p133
a.