(lp0
Vissue
p1
aVgeophysics
p2
aVdetecting
p3
aVgas
p4
aVleakage
p5
aVusing
p6
aVhigh
p7
aVfrequency
p8
aVsignals
p9
aVgenerated
p10
aVair
p11
aVgun
p12
aVarrays
p13
aVdirectional
p14
aVstructure
p15
aVtensor
p16
aVbased
p17
aVcoherence
p18
aVdetect
p19
aVseismic
p20
aVfaults
p21
aVchannels
p22
aVlandstreamer
p23
aVseismics
p24
aVphysical
p25
aVproperty
p26
aVmeasurements
p27
aVsiilinj
p28
aVrvi
p29
aVopen
p30
aVpit
p31
aVapatite
p32
aVphosphate
p33
aVcentral
p34
aVfinland
p35
aVmodeling
p36
aVinduced
p37
aVpolarization
p38
aVeffects
p39
aVhelicopter
p40
aVtime
p41
aVdomain
p42
aVelectromagnetic
p43
aVdata
p44
aVfield
p45
aVcase
p46
aVstudies
p47
aVazimuthal
p48
aVanisotropy
p49
aVanalysis
p50
aVp
p51
aVwave
p52
aVseismic
p53
aVdata
p54
aVestimation
p55
aVorientation
p56
aVsitu
p57
aVstress
p58
aVfields
p59
aVexample
p60
aVrock
p61
aVsprings
p62
aVuplift
p63
aVwyoming
p64
aVusa
p65
aVefficient
p66
aVwave
p67
aVmode
p68
aVseparation
p69
aVvertical
p70
aVtransversely
p71
aVisotropic
p72
aVmedia
p73
aV3d
p74
aVgeneralized
p75
aVnonhyperboloidal
p76
aVmoveout
p77
aVapproximation
p78
aVvelocity
p79
aVanisotropy
p80
aVupper
p81
aVjurassic
p82
aVorganic
p83
aVrich
p84
aVshales
p85
aVnorwegian
p86
aVcontinental
p87
aVshelf
p88
aVstress
p89
aVinduced
p90
aVseismic
p91
aVazimuthal
p92
aVanisotropy
p93
aVsand
p94
aVshale
p95
aVcontent
p96
aVdepth
p97
aVtrends
p98
aVoffshore
p99
aVnorth
p100
aVwest
p101
aVaustralia
p102
aVfast
p103
aVinversion
p104
aVtriaxial
p105
aVinduction
p106
aVdata
p107
aVdipping
p108
aVcrossbedded
p109
aVformations
p110
aVdetermining
p111
aVformation
p112
aVwave
p113
aVtransverse
p114
aVisotropy
p115
aVborehole
p116
aVflexural
p117
aVwave
p118
aVdispersion
p119
aVdata
p120
aVinversion
p121
aVshear
p122
aVvelocity
p123
aVcement
p124
aVcased
p125
aVborehole
p126
aVultrasonic
p127
aVflexural
p128
aVwaves
p129
aVrobust
p130
aVestimation
p131
aVreservoir
p132
aVshaliness
p133
aViteratively
p134
aVreweighted
p135
aVfactor
p136
aVanalysis
p137
aVcomplex
p138
aVelectrical
p139
aVconductivity
p140
aVchanges
p141
aVassociated
p142
aVhydrous
p143
aVpyrolysis
p144
aVmaturation
p145
aVwoodford
p146
aVshale
p147
aVfast
p148
aVforward
p149
aVmodeling
p150
aVcompressional
p151
aVarrival
p152
aVslowness
p153
aVlogs
p154
aVhigh
p155
aVangle
p156
aVhorizontal
p157
aVwells
p158
aVgoal
p159
aVoriented
p160
aVframework
p161
aVrapid
p162
aVintegral
p163
aVequation
p164
aVbased
p165
aVsimulation
p166
aVborehole
p167
aVresistivity
p168
aVmeasurements
p169
aV3d
p170
aVhydraulic
p171
aVfractures
p172
aVeffective
p173
aVmedium
p174
aVmodeling
p175
aVvelocity
p176
aVdispersion
p177
aVattenuation
p178
aVisotropic
p179
aVrocks
p180
aVlow
p181
aVfrequency
p182
aVrotational
p183
aVisolator
p184
aVairborne
p185
aVexploration
p186
aVmodeling
p187
aVinduced
p188
aVpolarization
p189
aVeffects
p190
aVhelicopter
p191
aVtime
p192
aVdomain
p193
aVelectromagnetic
p194
aVdata
p195
aVsynthetic
p196
aVcase
p197
aVstudies
p198
aVexact
p199
aVsolution
p200
aVtransient
p201
aVelectromagnetic
p202
aVfield
p203
aVfinite
p204
aVlength
p205
aVtransmitter
p206
aVtreatment
p207
aVsingularity
p208
aVmethod
p209
aVboundary
p210
aVintegral
p211
aVequations
p212
aV2
p213
aV5d
p214
aVelectromagnetic
p215
aVmodeling
p216
aVinduced
p217
aVpolarization
p218
aVresponse
p219
aVporous
p220
aVmedia
p221
aVmetallic
p222
aVparticles
p223
aV5
p224
aVinfluence
p225
aVbackground
p226
aVpolarization
p227
aVinduced
p228
aVpolarization
p229
aVresponse
p230
aVporous
p231
aVmedia
p232
aVmetallic
p233
aVparticles
p234
aV6
p235
aVcase
p236
aVmetals
p237
aVsemimetals
p238
aVefficient
p239
aVgravity
p240
aVinversion
p241
aVbasement
p242
aVrelief
p243
aVusing
p244
aVversatile
p245
aVmodeling
p246
aValgorithm
p247
aVdata
p248
aVanalysis
p249
aVpotential
p250
aVfield
p251
aVmethods
p252
aVusing
p253
aVgeostatistics
p254
aVquasi
p255
aV2d
p256
aVblock
p257
aVinversion
p258
aVlarge
p259
aVscale
p260
aVsurface
p261
aVnuclear
p262
aVmagnetic
p263
aVresonance
p264
aVprofile
p265
aVdata
p266
aVusing
p267
aVlaterally
p268
aVconstrained
p269
aVmodel
p270
aVoriented
p271
aVsurface
p272
aVpassive
p273
aVseismic
p274
aVlocation
p275
aVusing
p276
aVlocal
p277
aVslopes
p278
aVmodel
p279
aVbased
p280
aVamplitude
p281
aVversus
p282
aVoffset
p283
aVazimuth
p284
aVinversion
p285
aVestimating
p286
aVfracture
p287
aVparameters
p288
aVfluid
p289
aVcontent
p290
aVexperimental
p291
aVdevelopment
p292
aVlow
p293
aVfrequency
p294
aVshear
p295
aVmodulus
p296
aVattenuation
p297
aVmeasurements
p298
aVmated
p299
aVrock
p300
aVfractures
p301
aVshear
p302
aVmechanics
p303
aVasperity
p304
aVcontact
p305
aVarea
p306
aVchanges
p307
aVnormal
p308
aVstress
p309
aVelastic
p310
aVinternal
p311
aVmultiple
p312
aVanalysis
p313
aVattenuation
p314
aVusing
p315
aVmarchenko
p316
aVinterferometric
p317
aVmethods
p318
aVinterrelation
p319
aVlaplace
p320
aVconstants
p321
aVgradient
p322
aVdistortion
p323
aVeffect
p324
aVlaplace
p325
aVdomain
p326
aVwaveform
p327
aVinversion
p328
aVaccelerating
p329
aVhessian
p330
aVfree
p331
aVgauss
p332
aVnewton
p333
aVwaveform
p334
aVinversion
p335
aVl
p336
aVbfgs
p337
aVpreconditioned
p338
aVconjugate
p339
aVgradient
p340
aValgorithm
p341
aVutilizing
p342
aVdiffractions
p343
aVwavefront
p344
aVtomography
p345
aVtarget
p346
aVoriented
p347
aVvelocity
p348
aVanalysis
p349
aVusing
p350
aVmarchenko
p351
aVredatumed
p352
aVdata
p353
aVsparse
p354
aVpromoting
p355
aVwaveform
p356
aVinversion
p357
aVbased
p358
aVonline
p359
aVorthonormal
p360
aVdictionary
p361
aVlearning
p362
aVapplication
p363
aVcomplete
p364
aVworkflow
p365
aV2d
p366
aVelastic
p367
aVwaveform
p368
aVinversion
p369
aVrecorded
p370
aVshallow
p371
aVseismic
p372
aVrayleigh
p373
aVwaves
p374
aVviscoelastic
p375
aVreverse
p376
aVtime
p377
aVmigration
p378
aVattenuation
p379
aVcompensation
p380
aVsquares
p381
aVreverse
p382
aVtime
p383
aVmigration
p384
aVlocal
p385
aVradon
p386
aVbased
p387
aVpreconditioning
p388
aVimaging
p389
aVtotal
p390
aVwavefields
p391
aVreflectivity
p392
aVestimation
p393
aVusing
p394
aVamplitude
p395
aVnormalized
p396
aVwavefield
p397
aVdecomposition
p398
aVfield
p399
aVdata
p400
aVexample
p401
aVconverted
p402
aVwave
p403
aVseismic
p404
aVimaging
p405
aVamplitude
p406
aVbalancing
p407
aVsource
p408
aVindependent
p409
aVimaging
p410
aVconditions
p411
aVvector
p412
aVbased
p413
aVelastic
p414
aVreverse
p415
aVtime
p416
aVmigration
p417
aVbased
p418
aVscalar
p419
aVimaging
p420
aVcondition
p421
aValgorithms
p422
aVstabilize
p423
aVmultidirectional
p424
aVpoynting
p425
aVvectors
p426
aVcalculating
p427
aVangle
p428
aVgathers
p429
aVreverse
p430
aVtime
p431
aVmigration
p432
aVelastic
p433
aVsquares
p434
aVreverse
p435
aVtime
p436
aVmigration
p437
aVprestack
p438
aVcorrelative
p439
aVsquares
p440
aVreverse
p441
aVtime
p442
aVmigration
p443
aVelastic
p444
aVwavefield
p445
aVseparation
p446
aVbased
p447
aVhelmholtz
p448
aVdecomposition
p449
aVlocally
p450
aVsolving
p451
aVfractional
p452
aVlaplacian
p453
aVviscoacoustic
p454
aVwave
p455
aVequation
p456
aVusing
p457
aVhermite
p458
aVdistributed
p459
aVapproximating
p460
aVfunctional
p461
aVmethod
p462
aVresidual
p463
aVdriven
p464
aVonline
p465
aVmultiscale
p466
aVmethods
p467
aVacoustic
p468
aVwave
p469
aVpropagation
p470
aV2d
p471
aVheterogeneous
p472
aVmedia
p473
aVsensitivity
p474
aV3d
p475
aV3c
p476
aVsynthetic
p477
aVseismograms
p478
aVanisotropic
p479
aVattenuation
p480
aVvelocity
p481
aVreservoir
p482
aVmodels
p483
aVautomatic
p484
aVearly
p485
aVarrival
p486
aVtraveltime
p487
aVtomography
p488
aVapplications
p489
aVreceiver
p490
aVnear
p491
aVsurface
p492
aVcorrections
p493
aVp
p494
aVdomain
p495
aVraypath
p496
aVconsistent
p497
aVsolution
p498
aVconverted
p499
aVwave
p500
aVprocessing
p501
aVdiffraction
p502
aVimaging
p503
aVtime
p504
aVmigration
p505
aVvelocity
p506
aVanalysis
p507
aVusing
p508
aVoriented
p509
aVvelocity
p510
aVcontinuation
p511
aVsignal
p512
aVextraction
p513
aVusing
p514
aVrandomized
p515
aVorder
p516
aVmultichannel
p517
aVsingular
p518
aVspectrum
p519
aVanalysis
p520
aVhigh
p521
aVresolution
p522
aVweighted
p523
aVab
p524
aVsemblance
p525
aVdealing
p526
aVamplitude
p527
aVvariation
p528
aVoffset
p529
aVphenomenon
p530
aVimproved
p531
aVeigenvalue
p532
aVbased
p533
aVcoherence
p534
aValgorithm
p535
aVdip
p536
aVscanning
p537
aVtime
p538
aVoffset
p539
aVdomain
p540
aVinternal
p541
aVmultiple
p542
aVprediction
p543
aVnonstationary
p544
aVparameters
p545
aVdeconvolutive
p546
aVradon
p547
aVtransform
p548
aVextended
p549
aVwalton
p550
aVorder
p551
aVelastic
p552
aVcoefficients
p553
aVmodified
p554
aVanisotropic
p555
aVstress
p556
aVdependent
p557
aVcoordination
p558
aVnumber
p559
aVjeremy
p560
aVgallo
p561
aVelastic
p562
aVwaveform
p563
aVinversion
p564
aVvti
p565
aVmedia
p566
aVmethodology
p567
aVsensitivity
p568
aVanalysis
p569
aVnishant
p570
aVkamath
p571
aVilya
p572
aVtsavnki
p573
a.