(lp0
VSouth Korea
p1
aVAustria
p2
aVUSA
p3
aVUK
p4
aVChina
p5
aVChina
p6
aVUK
p7
aVFrance
p8
aVCzech Republic
p9
aVUSA
p10
aVChina
p11
aVChina
p12
aVUSA
p13
aVUSA
p14
aVUSA
p15
aVUSA
p16
aVUSA
p17
aVChina
p18
aVUSA
p19
aVUSA
p20
aVUSA
p21
aVUSA
p22
aVFrance
p23
aVJapan
p24
aVJapan
p25
aVHungary
p26
aVHungary
p27
aVHungary
p28
aVHungary
p29
aVSwitzerland
p30
aVSwitzerland
p31
aVCanada
p32
aVAustralia
p33
aVUSA
p34
aVUSA
p35
aVUSA
p36
aVCanada
p37
aVUSA
p38
aVFrance
p39
aVFrance
p40
aVFrance
p41
aVFrance
p42
aVFrance
p43
aVFrance
p44
aVChina
p45
aVCanada
p46
aVChina
p47
aVCanada
p48
aVChina
p49
aVBrazil
p50
aVUSA
p51
aVUSA
p52
aVUSA
p53
aVFrance
p54
aVUSA
p55
aVUSA
p56
aVUSA
p57
aVFrance
p58
aVUSA
p59
aVBrazil
p60
aVBrazil
p61
aVUK
p62
aVUK
p63
aVUK
p64
aVSwitzerland
p65
aVFrance
p66
aVFrance
p67
aVGermany
p68
aVUSA
p69
aVUSA
p70
aVUSA
p71
aVUSA
p72
aVUSA
p73
aVUSA
p74
aVUSA
p75
aVChina
p76
aVUSA
p77
aVChina
p78
aVUK
p79
aVUK
p80
aVUK
p81
aVUK
p82
aVUK
p83
aVGermany
p84
aVUK
p85
aVGermany
p86
aVGermany
p87
aVDenmark
p88
aVUSA
p89
aVUSA
p90
aVChina
p91
aVUSA
p92
aVUSA
p93
aVCanada
p94
aVChina
p95
aVChina
p96
aVChina
p97
aVSouth Africa
p98
aVVenezuela
p99
aVVenezuela
p100
aVCanada
p101
aVUSA
p102
aVUK
p103
aVJapan
p104
aVChina
p105
aVChina
p106
aVChina
p107
aVUSA
p108
aVthe Netherlands
p109
aVCanada
p110
aVCanada
p111
aVChina
p112
aVUSA
p113
aVUSA
p114
aVUK
p115
aVUK
p116
aVUK
p117
aVChina
p118
aVChina
p119
aVChina
p120
aVUK
p121
aVUK
p122
aVThe Netherlands
p123
aVChina
p124
aVChina
p125
aVNorway
p126
aVNorway
p127
aVNorway
p128
aVUSA
p129
aVChina
p130
aVUSA
p131
aVUSA
p132
aVUSA
p133
aVKuwait
p134
aVUSA
p135
aVUSA
p136
aVNorway
p137
aVChina
p138
aVChina
p139
aVSaudi Arabia
p140
aVChina
p141
aVSwitzerland
p142
aVNorway
p143
aVUSA
p144
aVChina
p145
aVIran
p146
aVIran
p147
aVSwitzerland
p148
aVUnited Kingdom
p149
aVUnited Kingdom
p150
aVSwitzerland
p151
aVItaly
p152
a.