(lp0
Vissue
p1
aVgeophysics
p2
aVnew
p3
aVmeasurement
p4
aVprotocol
p5
aVdirect
p6
aVcurrent
p7
aVresistivity
p8
aVdata
p9
aVhigh
p10
aVfrequency
p11
aVrayleigh
p12
aVwave
p13
aVtomography
p14
aVusing
p15
aVtraffic
p16
aVnoise
p17
aVlong
p18
aVbeach
p19
aVcalifornia
p20
aVexact
p21
aVelastic
p22
aVimpedance
p23
aVmatrices
p24
aVtransversely
p25
aVisotropic
p26
aVmedium
p27
aVweak
p28
aVanisotropy
p29
aVmoveout
p30
aVapproximations
p31
aVp
p32
aVwaves
p33
aVhomogeneous
p34
aVlayers
p35
aVmonoclinic
p36
aVhigher
p37
aVanisotropy
p38
aVsymmetries
p39
aVsimulating
p40
aVpropagation
p41
aVseparated
p42
aVwave
p43
aVmodes
p44
aVgeneral
p45
aVanisotropic
p46
aVmedia
p47
aVii
p48
aVqs
p49
aVwave
p50
aVpropagators
p51
aVelastic
p52
aVwaveform
p53
aVinversion
p54
aVvti
p55
aVmedia
p56
aVmethodology
p57
aVsensitivity
p58
aVanalysis
p59
aVtime
p60
aVdomain
p61
aVfinite
p62
aVdifference
p63
aVmodeling
p64
aVattenuative
p65
aVanisotropic
p66
aVmedia
p67
aVporosity
p68
aVheavy
p69
aVoil
p70
aVsand
p71
aVlaboratory
p72
aVmeasurement
p73
aVbound
p74
aVanalysis
p75
aVusing
p76
aVpair
p77
aVcorrelation
p78
aVfunction
p79
aVtool
p80
aVidentify
p81
aVlocation
p82
aVshale
p83
aVgas
p84
aVoil
p85
aVreservoir
p86
aVbased
p87
aVlog
p88
aVdata
p89
aVinversion
p90
aVbased
p91
aVinterpretation
p92
aVborehole
p93
aVsonic
p94
aVmeasurements
p95
aVusing
p96
aVsemianalytical
p97
aVspatial
p98
aVsensitivity
p99
aVfunctions
p100
aVsalinity
p101
aVdependence
p102
aVcomplex
p103
aVsurface
p104
aVconductivity
p105
aVportland
p106
aVsandstone
p107
aVultrasonic
p108
aVmeasurements
p109
aVattenuation
p110
aVvelocity
p111
aVcompressional
p112
aVshear
p113
aVwaves
p114
aVpartially
p115
aVfrozen
p116
aVunconsolidated
p117
aVsediment
p118
aVsynthetic
p119
aVporous
p120
aVrock
p121
aVinterval
p122
aVinversion
p123
aVapproach
p124
aVimproved
p125
aVinterpretation
p126
aVlogs
p127
aVrepresentative
p128
aVelementary
p129
aVvolumes
p130
aVevaluating
p131
aVeffective
p132
aVseismic
p133
aVproperties
p134
aVheterogeneous
p135
aVporoelastic
p136
aVmedia
p137
aVeffect
p138
aVfluids
p139
aVfrequencies
p140
aVpoisson
p141
aVratio
p142
aVsandstone
p143
aVsamples
p144
aVmineral
p145
aVsubstitution
p146
aVseparating
p147
aVeffects
p148
aVfluids
p149
aVminerals
p150
aVmicrostructure
p151
aVp
p152
aVwave
p153
aVvelocities
p154
aVsurvey
p155
aVdecomposition
p156
aVscalable
p157
aVframework
p158
aV3d
p159
aVcontrolled
p160
aVsource
p161
aVelectromagnetic
p162
aVinversion
p163
aVstochastic
p164
aVstructure
p165
aVconstrained
p166
aVimage
p167
aVguided
p168
aVinversion
p169
aVgeophysical
p170
aVdata
p171
aVinterpretation
p172
aVshallow
p173
aVelectromagnetic
p174
aVinstruments
p175
aVresistivity
p176
aVmagnetic
p177
aVsusceptibility
p178
aVmeasurements
p179
aVusing
p180
aVrapid
p181
aV1d
p182
aV3d
p183
aVinversion
p184
aVeffective
p185
aVinverse
p186
aVlaplace
p187
aVtransform
p188
aValgorithms
p189
aVcomputing
p190
aVtime
p191
aVdomain
p192
aVelectromagnetic
p193
aVresponses
p194
aVrelaxation
p195
aVtime
p196
aVdistribution
p197
aVobtained
p198
aVdebye
p199
aVdecomposition
p200
aVspectral
p201
aVinduced
p202
aVpolarization
p203
aVdata
p204
aVinterfacial
p205
aVpolarization
p206
aVdisseminated
p207
aVconductive
p208
aVminerals
p209
aVabsence
p210
aVredox
p211
aVactive
p212
aVspecies
p213
aV1
p214
aVmechanistic
p215
aVmodel
p216
aVvalidation
p217
aVinterfacial
p218
aVpolarization
p219
aVdisseminated
p220
aVconductive
p221
aVminerals
p222
aVabsence
p223
aVredox
p224
aVactive
p225
aVspecies
p226
aV2
p227
aVeffective
p228
aVelectrical
p229
aVconductivity
p230
aVdielectric
p231
aVpermittivity
p232
aVautomatic
p233
aVapproximate
p234
aVmapping
p235
aVsubsurface
p236
aVresistivity
p237
aVapparent
p238
aVresistivity
p239
aVdata
p240
aVusing
p241
aVgeostatistics
p242
aVtime
p243
aVlapse
p244
aVmonitoring
p245
aVclimate
p246
aVeffects
p247
aVearthworks
p248
aVusing
p249
aVsurface
p250
aVwaves
p251
aVseiscope
p252
aVoptimization
p253
aVtoolbox
p254
aVlarge
p255
aVscale
p256
aVnonlinear
p257
aVoptimization
p258
aVlibrary
p259
aVbased
p260
aVreverse
p261
aVcommunication
p262
aVconstrained
p263
aVindicator
p264
aVdata
p265
aVresampling
p266
aVparameter
p267
aVconstrained
p268
aVirregular
p269
aVresampling
p270
aVmethod
p271
aVscattered
p272
aVpoint
p273
aVdata
p274
aVlevel
p275
aVset
p276
aVmethod
p277
aVimaging
p278
aVsalt
p279
aVstructures
p280
aVusing
p281
aVgravity
p282
aVdata
p283
aVterracing
p284
aVgravity
p285
aVmagnetic
p286
aVdata
p287
aVusing
p288
aVedge
p289
aVpreserving
p290
aVsmoothing
p291
aVfilters
p292
aVground
p293
aVpenetrating
p294
aVradar
p295
aVderived
p296
aVmeasurements
p297
aVactive
p298
aVlayer
p299
aVthickness
p300
aVlandscape
p301
aVscale
p302
aVsparse
p303
aVcalibration
p304
aVtoolik
p305
aVhappy
p306
aVvalley
p307
aValaska
p308
aVjoint
p309
aVstochastic
p310
aVconstraint
p311
aVlarge
p312
aVdata
p313
aVset
p314
aVsalt
p315
aVdome
p316
aV3d
p317
aVseismic
p318
aVimage
p319
aVprocessing
p320
aVfaults
p321
aVimproved
p322
aVestimates
p323
aVseismic
p324
aVcurvature
p325
aVflexure
p326
aVbased
p327
aV3d
p328
aVsurface
p329
aVrotation
p330
aVpresence
p331
aVstructure
p332
aVdip
p333
aVmoving
p334
aVfaults
p335
aVunfaulting
p336
aV3d
p337
aVseismic
p338
aVimages
p339
aVresolution
p340
aVmeasures
p341
aV3d
p342
aVmagnetic
p343
aVinversions
p344
aVapparent
p345
aVmagnetization
p346
aVmapping
p347
aVpresence
p348
aVstrong
p349
aVremanent
p350
aVmagnetization
p351
aVspace
p352
aVdomain
p353
aVinversion
p354
aVapproach
p355
aVdetermining
p356
aVdistance
p357
aVmagnetic
p358
aVsources
p359
aVstatistical
p360
aVgraphical
p361
aVworkflow
p362
aVanalysis
p363
aVmagnetic
p364
aVsusceptibility
p365
aVdata
p366
aVdrill
p367
aVcuttings
p368
aVhydrocarbon
p369
aVexploration
p370
aVsetting
p371
aVeffect
p372
aVdielectric
p373
aVpermittivity
p374
aVfields
p375
aVradiated
p376
aVradio
p377
aVfrequency
p378
aVelectric
p379
aVdipole
p380
aVhomogeneous
p381
aVspace
p382
aVmultievent
p383
aVmoment
p384
aVtensor
p385
aVinversion
p386
aVill
p387
aVconditioned
p388
aVgeometries
p389
aVreal
p390
aVtime
p391
aVevent
p392
aVlocation
p393
aVusing
p394
aVmodel
p395
aVbased
p396
aVestimation
p397
aVarrival
p398
aVtimes
p399
aVazimuths
p400
aVseismic
p401
aVphases
p402
aVjoint
p403
aVinversion
p404
aVsource
p405
aVlocation
p406
aVfocal
p407
aVmechanism
p408
aVmicroseismicity
p409
aVreverse
p410
aVtime
p411
aVmigration
p412
aVmicroseismic
p413
aVsources
p414
aVusing
p415
aVgeometric
p416
aVmean
p417
aVimaging
p418
aVcondition
p419
aVcalibration
p420
aVlocal
p421
aVmagnitude
p422
aVrelationship
p423
aVmicroseismic
p424
aVevents
p425
aVusing
p426
aVearthquake
p427
aVdata
p428
aVreview
p429
aVappraisal
p430
aVarrival
p431
aVtime
p432
aVpicking
p433
aVmethods
p434
aVdownhole
p435
aVmicroseismic
p436
aVdata
p437
aVimproved
p438
aVmethods
p439
aVdetection
p440
aVarrival
p441
aVpicking
p442
aVmicroseismic
p443
aVevents
p444
aVlow
p445
aVsignal
p446
aVnoise
p447
aVratios
p448
aVeffect
p449
aVthermal
p450
aVmaturity
p451
aVelastic
p452
aVproperties
p453
aVkerogen
p454
aVstochastic
p455
aVinversion
p456
aVmatching
p457
aVlarge
p458
aVnumbers
p459
aVpseudo
p460
aVwells
p461
aVamplitude
p462
aVvariation
p463
aVangle
p464
aVinversion
p465
aVusing
p466
aVexact
p467
aVzoeppritz
p468
aVequations
p469
aVtheory
p470
aVmethodology
p471
aVreconstructing
p472
aVprimary
p473
aVreflections
p474
aVseismic
p475
aVdata
p476
aVmarchenko
p477
aVredatuming
p478
aVconvolutional
p479
aVinterferometry
p480
aVrobust
p481
aVsource
p482
aVindependent
p483
aVelastic
p484
aVwaveform
p485
aVinversion
p486
aVtime
p487
aVdomain
p488
aVefficient
p489
aV3d
p490
aVelastic
p491
aVwaveform
p492
aVinversion
p493
aVusing
p494
aVwavefield
p495
aVreconstruction
p496
aVmethods
p497
aVmultidirectional
p498
aVslowness
p499
aVvector
p500
aVcomputing
p501
aVangle
p502
aVgathers
p503
aVreverse
p504
aVtime
p505
aVmigration
p506
aVefficient
p507
aVangle
p508
aVdomain
p509
aVcommon
p510
aVimage
p511
aVgathers
p512
aVusing
p513
aVcauchy
p514
aVcondition
p515
aVbased
p516
aVpolarization
p517
aVvectors
p518
aV2d
p519
aVwaveform
p520
aVmodeling
p521
aVseismic
p522
aVwaves
p523
aVlayered
p524
aVkarstic
p525
aVmedia
p526
aVindustry
p527
aVscale
p528
aVfinite
p529
aVdifference
p530
aVelastic
p531
aVwave
p532
aVmodeling
p533
aVgraphics
p534
aVprocessing
p535
aVunits
p536
aVusing
p537
aVcore
p538
aVtechnique
p539
aVk
p540
aVspace
p541
aVoperator
p542
aVbased
p543
aVsquares
p544
aVstaggered
p545
aVgrid
p546
aVfinite
p547
aVdifference
p548
aVmethod
p549
aVmodeling
p550
aVscalar
p551
aVwave
p552
aVpropagation
p553
aVsimulating
p554
aVpropagation
p555
aVdecoupled
p556
aVelastic
p557
aVwaves
p558
aVusing
p559
aVlow
p560
aVrank
p561
aVapproximate
p562
aVmixed
p563
aVdomain
p564
aVintegral
p565
aVoperators
p566
aVanisotropic
p567
aVmedia
p568
aVmodel
p569
aVindependent
p570
aVfinite
p571
aVdifference
p572
aVmethod
p573
aVremoval
p574
aVfree
p575
aVsurface
p576
aVgenerated
p577
aVmultiples
p578
aVdouble
p579
aVsparsity
p580
aVdictionary
p581
aVseismic
p582
aVnoise
p583
aVattenuation
p584
aVsparse
p585
aVtime
p586
aVfrequency
p587
aVrepresentation
p588
aVseismic
p589
aVnoise
p590
aVreduction
p591
aVusing
p592
aVlow
p593
aVrank
p594
aVsparse
p595
aVdecomposition
p596
aVspatially
p597
aVcompact
p598
aVsource
p599
aVdesignature
p600
aVfilter
p601
aVautomated
p602
aVphase
p603
aVattribute
p604
aVbased
p605
aVpicking
p606
aVapplied
p607
aVreflection
p608
aVseismics
p609
a.